; ModuleID = '4vdtvoho5uk7e4tm'
source_filename = "4vdtvoho5uk7e4tm"
target datalayout = "e-m:e-p270:32:32-p271:32:32-p272:64:64-i64:64-f80:128-n8:16:32:64-S128"
target triple = "x86_64-unknown-linux-gnu"

%"alloc::string::String" = type { %"alloc::vec::Vec<u8>" }
%"alloc::vec::Vec<u8>" = type { { i8*, i64 }, i64 }
%"core::panic::location::Location" = type { { [0 x i8]*, i64 }, i32, i32 }
%"core::ops::range::RangeFull" = type {}
%"core::ptr::metadata::PtrRepr<[u8]>" = type { [2 x i64] }
%"core::result::Result<u64, std::io::error::Error>" = type { i64, [1 x i64] }
%"std::path::Path" = type { %"std::ffi::os_str::OsStr" }
%"std::ffi::os_str::OsStr" = type { %"std::sys::unix::os_str::Slice" }
%"std::sys::unix::os_str::Slice" = type { [0 x i8] }
%"core::result::Result<alloc::string::String, std::env::VarError>" = type { i64, [3 x i64] }
%"std::path::PathBuf" = type { %"std::ffi::os_str::OsString" }
%"std::ffi::os_str::OsString" = type { %"std::sys::unix::os_str::Buf" }
%"std::sys::unix::os_str::Buf" = type { %"alloc::vec::Vec<u8>" }
%"alloc::borrow::Cow<str>" = type { i64, [3 x i64] }
%"core::fmt::Arguments" = type { { [0 x { [0 x i8]*, i64 }]*, i64 }, { i64*, i64 }, { [0 x { i8*, i64* }]*, i64 } }
%HeaderLocation = type { i64, [3 x i64] }
%"HeaderLocation::FromPath" = type { [1 x i64], %"alloc::string::String" }
%"core::result::Result<vcpkg::Library, vcpkg::Error>" = type { i64, [28 x i64] }
%"core::result::Result<vcpkg::Library, vcpkg::Error>::Ok" = type { [1 x i64], %"vcpkg::Library" }
%"vcpkg::Library" = type { %"alloc::vec::Vec<std::path::PathBuf>", %"alloc::vec::Vec<std::path::PathBuf>", %"alloc::vec::Vec<std::path::PathBuf>", %"alloc::vec::Vec<alloc::string::String>", %"alloc::vec::Vec<std::path::PathBuf>", %"alloc::vec::Vec<std::path::PathBuf>", %"alloc::vec::Vec<alloc::string::String>", %"alloc::vec::Vec<alloc::string::String>", %"alloc::string::String", i8, [7 x i8] }
%"alloc::vec::Vec<std::path::PathBuf>" = type { { i64*, i64 }, i64 }
%"alloc::vec::Vec<alloc::string::String>" = type { { i64*, i64 }, i64 }
%"core::result::Result<vcpkg::Library, vcpkg::Error>::Err" = type { [1 x i64], %"vcpkg::Error" }
%"vcpkg::Error" = type { i64, [3 x i64] }
%"core::option::Option<HeaderLocation>" = type { i64, [3 x i64] }
%"core::option::Option<HeaderLocation>::Some" = type { %HeaderLocation }
%"core::result::Result<pkg_config::Library, pkg_config::Error>" = type { i64, [30 x i64] }
%"core::result::Result<pkg_config::Library, pkg_config::Error>::Ok" = type { [1 x i64], %"pkg_config::Library" }
%"pkg_config::Library" = type { {}, %"alloc::vec::Vec<alloc::string::String>", %"alloc::vec::Vec<std::path::PathBuf>", %"alloc::vec::Vec<std::path::PathBuf>", %"alloc::vec::Vec<alloc::string::String>", %"alloc::vec::Vec<std::path::PathBuf>", %"alloc::vec::Vec<std::path::PathBuf>", %"alloc::vec::Vec<alloc::vec::Vec<alloc::string::String>>", %"std::collections::hash::map::HashMap<alloc::string::String, core::option::Option<alloc::string::String>>", %"alloc::string::String" }
%"alloc::vec::Vec<alloc::vec::Vec<alloc::string::String>>" = type { { i64*, i64 }, i64 }
%"std::collections::hash::map::HashMap<alloc::string::String, core::option::Option<alloc::string::String>>" = type { %"hashbrown::map::HashMap<alloc::string::String, core::option::Option<alloc::string::String>, std::collections::hash::map::RandomState>" }
%"hashbrown::map::HashMap<alloc::string::String, core::option::Option<alloc::string::String>, std::collections::hash::map::RandomState>" = type { { i64, i64 }, %"hashbrown::raw::RawTable<(alloc::string::String, core::option::Option<alloc::string::String>)>" }
%"hashbrown::raw::RawTable<(alloc::string::String, core::option::Option<alloc::string::String>)>" = type { %"core::marker::PhantomData<(alloc::string::String, core::option::Option<alloc::string::String>)>", %"hashbrown::raw::RawTableInner<alloc::alloc::Global>" }
%"core::marker::PhantomData<(alloc::string::String, core::option::Option<alloc::string::String>)>" = type {}
%"hashbrown::raw::RawTableInner<alloc::alloc::Global>" = type { %"alloc::alloc::Global", i64, i8*, i64, i64 }
%"alloc::alloc::Global" = type {}
%"core::result::Result<pkg_config::Library, pkg_config::Error>::Err" = type { [1 x i64], %"pkg_config::Error" }
%"pkg_config::Error" = type { i64, [13 x i64] }
%"core::ptr::metadata::PtrRepr<[&str]>" = type { [2 x i64] }
%"core::result::Result<u64, std::io::error::Error>::Ok" = type { [1 x i64], i64 }
%"core::result::Result<u64, std::io::error::Error>::Err" = type { [1 x i64], i8* }
%"core::result::Result<alloc::string::String, std::env::VarError>::Ok" = type { [1 x i64], %"alloc::string::String" }
%"core::option::Option<std::path::PathBuf>" = type { {}*, [2 x i64] }
%"core::mem::maybe_uninit::MaybeUninit<std::path::PathBuf>" = type { [3 x i64] }
%"core::mem::manually_drop::ManuallyDrop<std::path::PathBuf>" = type { %"std::path::PathBuf" }
%"core::option::Option<std::path::PathBuf>::Some" = type { %"std::path::PathBuf" }
%"pkg_config::Config" = type { %"core::ops::range::Bound<alloc::string::String>", %"core::ops::range::Bound<alloc::string::String>", %"alloc::vec::Vec<std::ffi::os_str::OsString>", i8, i8, i8, i8, i8, [3 x i8] }
%"core::ops::range::Bound<alloc::string::String>" = type { i64, [3 x i64] }
%"alloc::vec::Vec<std::ffi::os_str::OsString>" = type { { i64*, i64 }, i64 }
%"vcpkg::Config" = type { %"alloc::vec::Vec<alloc::string::String>", %"alloc::vec::Vec<alloc::string::String>", %"core::option::Option<std::path::PathBuf>", %"core::option::Option<vcpkg::TargetTriplet>", i8, i8, i8, [5 x i8] }
%"core::option::Option<vcpkg::TargetTriplet>" = type { [48 x i8], i8, [7 x i8] }
%"unwind::libunwind::_Unwind_Exception" = type { i64, void (i32, %"unwind::libunwind::_Unwind_Exception"*)*, [6 x i64] }
%"unwind::libunwind::_Unwind_Context" = type { [0 x i8] }
%"core::fmt::Formatter" = type { { i64, i64 }, { i64, i64 }, { {}*, [3 x i64]* }, i32, i32, i8, [7 x i8] }

@vtable.0 = private unnamed_addr constant <{ i8*, [16 x i8], i8*, i8*, i8* }> <{ i8* bitcast (void (i64**)* @"_ZN4core3ptr85drop_in_place$LT$std..rt..lang_start$LT$$LP$$RP$$GT$..$u7b$$u7b$closure$u7d$$u7d$$GT$17h37fe9c25e96e23a8E" to i8*), [16 x i8] c"\08\00\00\00\00\00\00\00\08\00\00\00\00\00\00\00", i8* bitcast (i32 (i64**)* @"_ZN4core3ops8function6FnOnce40call_once$u7b$$u7b$vtable.shim$u7d$$u7d$17h5806c1b5de622317E" to i8*), i8* bitcast (i32 (i64**)* @"_ZN3std2rt10lang_start28_$u7b$$u7b$closure$u7d$$u7d$17h7fe7bab926779946E" to i8*), i8* bitcast (i32 (i64**)* @"_ZN3std2rt10lang_start28_$u7b$$u7b$closure$u7d$$u7d$17h7fe7bab926779946E" to i8*) }>, align 8, !dbg !0
@alloc69 = private unnamed_addr constant <{}> zeroinitializer, align 8
@alloc131 = private unnamed_addr constant <{ [12 x i8] }> <{ [12 x i8] c"invalid args" }>, align 1
@alloc132 = private unnamed_addr constant <{ i8*, [8 x i8] }> <{ i8* getelementptr inbounds (<{ [12 x i8] }>, <{ [12 x i8] }>* @alloc131, i32 0, i32 0, i32 0), [8 x i8] c"\0C\00\00\00\00\00\00\00" }>, align 8
@alloc212 = private unnamed_addr constant <{ [60 x i8] }> <{ [60 x i8] c"/home/dy3199/s2fuzz/scripts/rust/library/core/src/fmt/mod.rs" }>, align 1
@alloc213 = private unnamed_addr constant <{ i8*, [16 x i8] }> <{ i8* getelementptr inbounds (<{ [60 x i8] }>, <{ [60 x i8] }>* @alloc212, i32 0, i32 0, i32 0), [16 x i8] c"<\00\00\00\00\00\00\00\88\01\00\00\0D\00\00\00" }>, align 8
@vtable.1 = private unnamed_addr constant <{ i8*, [16 x i8], i8* }> <{ i8* bitcast (void (i8**)* @"_ZN4core3ptr42drop_in_place$LT$std..io..error..Error$GT$17ha3a46ae64291d79dE" to i8*), [16 x i8] c"\08\00\00\00\00\00\00\00\08\00\00\00\00\00\00\00", i8* bitcast (i1 (i8**, %"core::fmt::Formatter"*)* @"_ZN58_$LT$std..io..error..Error$u20$as$u20$core..fmt..Debug$GT$3fmt17h4ea4a5e2e0eca08bE" to i8*) }>, align 8, !dbg !24
@alloc219 = private unnamed_addr constant <{ [60 x i8] }> <{ [60 x i8] c"/home/dy3199/s2fuzz/scripts/rust/library/alloc/src/string.rs" }>, align 1
@alloc218 = private unnamed_addr constant <{ i8*, [16 x i8] }> <{ i8* getelementptr inbounds (<{ [60 x i8] }>, <{ [60 x i8] }>* @alloc219, i32 0, i32 0, i32 0), [16 x i8] c"<\00\00\00\00\00\00\00\9D\08\00\00\01\00\00\00" }>, align 8
@alloc220 = private unnamed_addr constant <{ i8*, [16 x i8] }> <{ i8* getelementptr inbounds (<{ [60 x i8] }>, <{ [60 x i8] }>* @alloc219, i32 0, i32 0, i32 0), [16 x i8] c"<\00\00\00\00\00\00\00\9E\08\00\00\01\00\00\00" }>, align 8
@alloc221 = private unnamed_addr constant <{ [17 x i8] }> <{ [17 x i8] c"CARGO_CFG_WINDOWS" }>, align 1
@alloc222 = private unnamed_addr constant <{ [20 x i8] }> <{ [20 x i8] c"CARGO_CFG_TARGET_ENV" }>, align 1
@alloc223 = private unnamed_addr constant <{ [7 x i8] }> <{ [7 x i8] c"OUT_DIR" }>, align 1
@alloc248 = private unnamed_addr constant <{ [23 x i8] }> <{ [23 x i8] c"libsqlite3-sys/build.rs" }>, align 1
@alloc225 = private unnamed_addr constant <{ i8*, [16 x i8] }> <{ i8* getelementptr inbounds (<{ [23 x i8] }>, <{ [23 x i8] }>* @alloc248, i32 0, i32 0, i32 0), [16 x i8] c"\17\00\00\00\00\00\00\00\1E\00\00\00'\00\00\00" }>, align 8
@alloc226 = private unnamed_addr constant <{ [10 x i8] }> <{ [10 x i8] c"bindgen.rs" }>, align 1
@alloc227 = private unnamed_addr constant <{ [78 x i8] }> <{ [78 x i8] c"The runtime test should not run this branch, which has not compiled any logic." }>, align 1
@alloc229 = private unnamed_addr constant <{ i8*, [16 x i8] }> <{ i8* getelementptr inbounds (<{ [23 x i8] }>, <{ [23 x i8] }>* @alloc248, i32 0, i32 0, i32 0), [16 x i8] c"\17\00\00\00\00\00\00\00C\00\00\00\09\00\00\00" }>, align 8
@alloc230 = private unnamed_addr constant <{ [7 x i8] }> <{ [7 x i8] c"SQLITE3" }>, align 1
@alloc231 = private unnamed_addr constant <{ [7 x i8] }> <{ [7 x i8] c"sqlite3" }>, align 1
@alloc33 = private unnamed_addr constant <{ [27 x i8] }> <{ [27 x i8] c"/bindgen_bundled_version.rs" }>, align 1
@alloc32 = private unnamed_addr constant <{ i8*, [8 x i8], i8*, [8 x i8] }> <{ i8* bitcast (<{}>* @alloc69 to i8*), [8 x i8] zeroinitializer, i8* getelementptr inbounds (<{ [27 x i8] }>, <{ [27 x i8] }>* @alloc33, i32 0, i32 0, i32 0), [8 x i8] c"\1B\00\00\00\00\00\00\00" }>, align 8
@alloc247 = private unnamed_addr constant <{ [43 x i8] }> <{ [43 x i8] c"Could not copy bindings to output directory" }>, align 1
@alloc234 = private unnamed_addr constant <{ i8*, [16 x i8] }> <{ i8* getelementptr inbounds (<{ [23 x i8] }>, <{ [23 x i8] }>* @alloc248, i32 0, i32 0, i32 0), [16 x i8] c"\17\00\00\00\00\00\00\00x\01\00\00\0E\00\00\00" }>, align 8
@alloc147 = private unnamed_addr constant <{ [7 x i8] }> <{ [7 x i8] c"_STATIC" }>, align 1
@alloc146 = private unnamed_addr constant <{ i8*, [8 x i8], i8*, [8 x i8] }> <{ i8* bitcast (<{}>* @alloc69 to i8*), [8 x i8] zeroinitializer, i8* getelementptr inbounds (<{ [7 x i8] }>, <{ [7 x i8] }>* @alloc147, i32 0, i32 0, i32 0), [8 x i8] c"\07\00\00\00\00\00\00\00" }>, align 8
@alloc151 = private unnamed_addr constant <{ [1 x i8] }> <{ [1 x i8] c"0" }>, align 1
@alloc152 = private unnamed_addr constant <{ i8*, [8 x i8] }> <{ i8* getelementptr inbounds (<{ [1 x i8] }>, <{ [1 x i8] }>* @alloc151, i32 0, i32 0, i32 0), [8 x i8] c"\01\00\00\00\00\00\00\00" }>, align 8
@alloc235 = private unnamed_addr constant <{ [6 x i8] }> <{ [6 x i8] c"static" }>, align 1
@alloc236 = private unnamed_addr constant <{ [5 x i8] }> <{ [5 x i8] c"dylib" }>, align 1
@alloc49 = private unnamed_addr constant <{ [27 x i8] }> <{ [27 x i8] c"cargo:rerun-if-env-changed=" }>, align 1
@alloc43 = private unnamed_addr constant <{ [13 x i8] }> <{ [13 x i8] c"_INCLUDE_DIR\0A" }>, align 1
@alloc42 = private unnamed_addr constant <{ i8*, [8 x i8], i8*, [8 x i8] }> <{ i8* getelementptr inbounds (<{ [27 x i8] }>, <{ [27 x i8] }>* @alloc49, i32 0, i32 0, i32 0), [8 x i8] c"\1B\00\00\00\00\00\00\00", i8* getelementptr inbounds (<{ [13 x i8] }>, <{ [13 x i8] }>* @alloc43, i32 0, i32 0, i32 0), [8 x i8] c"\0D\00\00\00\00\00\00\00" }>, align 8
@alloc47 = private unnamed_addr constant <{ [9 x i8] }> <{ [9 x i8] c"_LIB_DIR\0A" }>, align 1
@alloc46 = private unnamed_addr constant <{ i8*, [8 x i8], i8*, [8 x i8] }> <{ i8* getelementptr inbounds (<{ [27 x i8] }>, <{ [27 x i8] }>* @alloc49, i32 0, i32 0, i32 0), [8 x i8] c"\1B\00\00\00\00\00\00\00", i8* getelementptr inbounds (<{ [9 x i8] }>, <{ [9 x i8] }>* @alloc47, i32 0, i32 0, i32 0), [8 x i8] c"\09\00\00\00\00\00\00\00" }>, align 8
@alloc51 = private unnamed_addr constant <{ [8 x i8] }> <{ [8 x i8] c"_STATIC\0A" }>, align 1
@alloc50 = private unnamed_addr constant <{ i8*, [8 x i8], i8*, [8 x i8] }> <{ i8* getelementptr inbounds (<{ [27 x i8] }>, <{ [27 x i8] }>* @alloc49, i32 0, i32 0, i32 0), [8 x i8] c"\1B\00\00\00\00\00\00\00", i8* getelementptr inbounds (<{ [8 x i8] }>, <{ [8 x i8] }>* @alloc51, i32 0, i32 0, i32 0), [8 x i8] c"\08\00\00\00\00\00\00\00" }>, align 8
@alloc241 = private unnamed_addr constant <{ [4 x i8] }> <{ [4 x i8] c"msvc" }>, align 1
@alloc55 = private unnamed_addr constant <{ [43 x i8] }> <{ [43 x i8] c"cargo:rerun-if-env-changed=VCPKGRS_DYNAMIC\0A" }>, align 1
@alloc56 = private unnamed_addr constant <{ i8*, [8 x i8] }> <{ i8* getelementptr inbounds (<{ [43 x i8] }>, <{ [43 x i8] }>* @alloc55, i32 0, i32 0, i32 0), [8 x i8] c"+\00\00\00\00\00\00\00" }>, align 8
@alloc60 = private unnamed_addr constant <{ [18 x i8] }> <{ [18 x i8] c"cargo:link-target=" }>, align 1
@alloc82 = private unnamed_addr constant <{ [1 x i8] }> <{ [1 x i8] c"\0A" }>, align 1
@alloc61 = private unnamed_addr constant <{ i8*, [8 x i8], i8*, [8 x i8] }> <{ i8* getelementptr inbounds (<{ [18 x i8] }>, <{ [18 x i8] }>* @alloc60, i32 0, i32 0, i32 0), [8 x i8] c"\12\00\00\00\00\00\00\00", i8* getelementptr inbounds (<{ [1 x i8] }>, <{ [1 x i8] }>* @alloc82, i32 0, i32 0, i32 0), [8 x i8] c"\01\00\00\00\00\00\00\00" }>, align 8
@alloc64 = private unnamed_addr constant <{ [27 x i8] }> <{ [27 x i8] c"cargo:rustc-link-lib=dylib=" }>, align 1
@alloc65 = private unnamed_addr constant <{ i8*, [8 x i8], i8*, [8 x i8] }> <{ i8* getelementptr inbounds (<{ [27 x i8] }>, <{ [27 x i8] }>* @alloc64, i32 0, i32 0, i32 0), [8 x i8] c"\1B\00\00\00\00\00\00\00", i8* getelementptr inbounds (<{ [1 x i8] }>, <{ [1 x i8] }>* @alloc82, i32 0, i32 0, i32 0), [8 x i8] c"\01\00\00\00\00\00\00\00" }>, align 8
@alloc71 = private unnamed_addr constant <{ [8 x i8] }> <{ [8 x i8] c"_LIB_DIR" }>, align 1
@alloc70 = private unnamed_addr constant <{ i8*, [8 x i8], i8*, [8 x i8] }> <{ i8* bitcast (<{}>* @alloc69 to i8*), [8 x i8] zeroinitializer, i8* getelementptr inbounds (<{ [8 x i8] }>, <{ [8 x i8] }>* @alloc71, i32 0, i32 0, i32 0), [8 x i8] c"\08\00\00\00\00\00\00\00" }>, align 8
@alloc75 = private unnamed_addr constant <{ [21 x i8] }> <{ [21 x i8] c"cargo:rustc-link-lib=" }>, align 1
@alloc77 = private unnamed_addr constant <{ [1 x i8] }> <{ [1 x i8] c"=" }>, align 1
@alloc76 = private unnamed_addr constant <{ i8*, [8 x i8], i8*, [8 x i8], i8*, [8 x i8] }> <{ i8* getelementptr inbounds (<{ [21 x i8] }>, <{ [21 x i8] }>* @alloc75, i32 0, i32 0, i32 0), [8 x i8] c"\15\00\00\00\00\00\00\00", i8* getelementptr inbounds (<{ [1 x i8] }>, <{ [1 x i8] }>* @alloc77, i32 0, i32 0, i32 0), [8 x i8] c"\01\00\00\00\00\00\00\00", i8* getelementptr inbounds (<{ [1 x i8] }>, <{ [1 x i8] }>* @alloc82, i32 0, i32 0, i32 0), [8 x i8] c"\01\00\00\00\00\00\00\00" }>, align 8
@alloc242 = private unnamed_addr constant <{ [9 x i8] }> <{ [9 x i8] c"sqlite3.h" }>, align 1
@alloc239 = private unnamed_addr constant <{ [9 x i8] }> <{ [9 x i8] c"pkgconfig" }>, align 1
@alloc240 = private unnamed_addr constant <{ [15 x i8] }> <{ [15 x i8] c"PKG_CONFIG_PATH" }>, align 1
@alloc80 = private unnamed_addr constant <{ [24 x i8] }> <{ [24 x i8] c"cargo:rustc-link-search=" }>, align 1
@alloc81 = private unnamed_addr constant <{ i8*, [8 x i8], i8*, [8 x i8] }> <{ i8* getelementptr inbounds (<{ [24 x i8] }>, <{ [24 x i8] }>* @alloc80, i32 0, i32 0, i32 0), [8 x i8] c"\18\00\00\00\00\00\00\00", i8* getelementptr inbounds (<{ [1 x i8] }>, <{ [1 x i8] }>* @alloc82, i32 0, i32 0, i32 0), [8 x i8] c"\01\00\00\00\00\00\00\00" }>, align 8
@alloc4 = private unnamed_addr constant <{ [33 x i8] }> <{ [33 x i8] c"bindgen-bindings/bindgen_3.6.8.rs" }>, align 1
@alloc5 = private unnamed_addr constant <{ i8*, [8 x i8] }> <{ i8* getelementptr inbounds (<{ [33 x i8] }>, <{ [33 x i8] }>* @alloc4, i32 0, i32 0, i32 0), [8 x i8] c"!\00\00\00\00\00\00\00" }>, align 8
@_ZN18build_script_build8bindings22PREBUILT_BINDGEN_PATHS17hbe2ccef64dd911b8E = internal constant <{ i8*, [8 x i8] }> <{ i8* bitcast (<{ i8*, [8 x i8] }>* @alloc5 to i8*), [8 x i8] c"\01\00\00\00\00\00\00\00" }>, align 8, !dbg !147
@alloc244 = private unnamed_addr constant <{ i8*, [16 x i8] }> <{ i8* getelementptr inbounds (<{ [23 x i8] }>, <{ [23 x i8] }>* @alloc248, i32 0, i32 0, i32 0), [16 x i8] c"\17\00\00\00\00\00\00\00\E8\01\00\00.\00\00\00" }>, align 8
@str.2 = internal constant [33 x i8] c"attempt to subtract with overflow"
@alloc246 = private unnamed_addr constant <{ i8*, [16 x i8] }> <{ i8* getelementptr inbounds (<{ [23 x i8] }>, <{ [23 x i8] }>* @alloc248, i32 0, i32 0, i32 0), [16 x i8] c"\17\00\00\00\00\00\00\00\E8\01\00\00\17\00\00\00" }>, align 8
@alloc249 = private unnamed_addr constant <{ i8*, [16 x i8] }> <{ i8* getelementptr inbounds (<{ [23 x i8] }>, <{ [23 x i8] }>* @alloc248, i32 0, i32 0, i32 0), [16 x i8] c"\17\00\00\00\00\00\00\00\E9\01\00\00%\00\00\00" }>, align 8
@__rustc_debug_gdb_scripts_section__ = linkonce_odr unnamed_addr constant [34 x i8] c"\01gdb_load_rust_pretty_printers.py\00", section ".debug_gdb_scripts", align 1

; <alloc::string::String as core::ops::index::Index<core::ops::range::RangeFull>>::index
; Function Attrs: inlinehint nonlazybind uwtable
define internal { [0 x i8]*, i64 } @"_ZN100_$LT$alloc..string..String$u20$as$u20$core..ops..index..Index$LT$core..ops..range..RangeFull$GT$$GT$5index17haf2ea210fcfe77d2E"(%"alloc::string::String"* align 8 %self, %"core::panic::location::Location"* align 8 %0) unnamed_addr #0 !dbg !174 {
start:
  %1 = alloca { [0 x i8]*, i64 }, align 8
  %v.dbg.spill = alloca { [0 x i8]*, i64 }, align 8
  %metadata.dbg.spill = alloca i64, align 8
  %data_address.dbg.spill = alloca {}*, align 8
  %self.dbg.spill4 = alloca i8*, align 8
  %len.dbg.spill3 = alloca i64, align 8
  %data.dbg.spill2 = alloca i8*, align 8
  %len.dbg.spill = alloca i64, align 8
  %data.dbg.spill = alloca i8*, align 8
  %self.dbg.spill1 = alloca %"alloc::vec::Vec<u8>"*, align 8
  %_index.dbg.spill = alloca %"core::ops::range::RangeFull", align 1
  %self.dbg.spill = alloca %"alloc::string::String"*, align 8
  %_19 = alloca { i8*, i64 }, align 8
  %_18 = alloca %"core::ptr::metadata::PtrRepr<[u8]>", align 8
  store %"alloc::string::String"* %self, %"alloc::string::String"** %self.dbg.spill, align 8
  call void @llvm.dbg.declare(metadata %"alloc::string::String"** %self.dbg.spill, metadata !225, metadata !DIExpression()), !dbg !227
  call void @llvm.dbg.declare(metadata %"core::ops::range::RangeFull"* %_index.dbg.spill, metadata !226, metadata !DIExpression()), !dbg !228
  %_6 = bitcast %"alloc::string::String"* %self to %"alloc::vec::Vec<u8>"*, !dbg !229, !rawptr !230
  store %"alloc::vec::Vec<u8>"* %_6, %"alloc::vec::Vec<u8>"** %self.dbg.spill1, align 8, !dbg !229
  call void @llvm.dbg.declare(metadata %"alloc::vec::Vec<u8>"** %self.dbg.spill1, metadata !231, metadata !DIExpression()), !dbg !244
; call alloc::vec::Vec<T,A>::as_ptr
  %data = call i8* @"_ZN5alloc3vec16Vec$LT$T$C$A$GT$6as_ptr17h0b1676a68a684ff9E"(%"alloc::vec::Vec<u8>"* align 8 %_6), !dbg !244, !rawptr !230
  store i8* %data, i8** %data.dbg.spill, align 8, !dbg !244
  call void @llvm.dbg.declare(metadata i8** %data.dbg.spill, metadata !245, metadata !DIExpression()), !dbg !266
  br label %bb1, !dbg !244

bb1:                                              ; preds = %start
  %2 = getelementptr inbounds %"alloc::vec::Vec<u8>", %"alloc::vec::Vec<u8>"* %_6, i32 0, i32 1, !dbg !244
  %len = load i64, i64* %2, align 8, !dbg !244
  store i64 %len, i64* %len.dbg.spill, align 8, !dbg !244
  call void @llvm.dbg.declare(metadata i64* %len.dbg.spill, metadata !254, metadata !DIExpression()), !dbg !266
  store i8* %data, i8** %data.dbg.spill2, align 8, !dbg !266
  call void @llvm.dbg.declare(metadata i8** %data.dbg.spill2, metadata !268, metadata !DIExpression()), !dbg !280
  store i64 %len, i64* %len.dbg.spill3, align 8, !dbg !266
  call void @llvm.dbg.declare(metadata i64* %len.dbg.spill3, metadata !279, metadata !DIExpression()), !dbg !280
  store i8* %data, i8** %self.dbg.spill4, align 8, !dbg !280
  call void @llvm.dbg.declare(metadata i8** %self.dbg.spill4, metadata !282, metadata !DIExpression()), !dbg !293
  %data_address = bitcast i8* %data to {}*, !dbg !293, !rawptr !230
  store {}* %data_address, {}** %data_address.dbg.spill, align 8, !dbg !293
  call void @llvm.dbg.declare(metadata {}** %data_address.dbg.spill, metadata !295, metadata !DIExpression()), !dbg !304
  store i64 %len, i64* %metadata.dbg.spill, align 8, !dbg !280
  call void @llvm.dbg.declare(metadata i64* %metadata.dbg.spill, metadata !303, metadata !DIExpression()), !dbg !304
  %3 = bitcast { i8*, i64 }* %_19 to {}**, !dbg !304, !rawptr !230
  store {}* %data_address, {}** %3, align 8, !dbg !304
  %4 = getelementptr inbounds { i8*, i64 }, { i8*, i64 }* %_19, i32 0, i32 1, !dbg !304
  store i64 %len, i64* %4, align 8, !dbg !304
  %5 = bitcast %"core::ptr::metadata::PtrRepr<[u8]>"* %_18 to { i8*, i64 }*, !dbg !304
  %6 = getelementptr inbounds { i8*, i64 }, { i8*, i64 }* %_19, i32 0, i32 0, !dbg !304
  %7 = load i8*, i8** %6, align 8, !dbg !304
  %8 = getelementptr inbounds { i8*, i64 }, { i8*, i64 }* %_19, i32 0, i32 1, !dbg !304
  %9 = load i64, i64* %8, align 8, !dbg !304
  %10 = getelementptr inbounds { i8*, i64 }, { i8*, i64 }* %5, i32 0, i32 0, !dbg !304
  store i8* %7, i8** %10, align 8, !dbg !304
  %11 = getelementptr inbounds { i8*, i64 }, { i8*, i64 }* %5, i32 0, i32 1, !dbg !304
  store i64 %9, i64* %11, align 8, !dbg !304
  %12 = bitcast %"core::ptr::metadata::PtrRepr<[u8]>"* %_18 to { [0 x i8]*, i64 }*, !dbg !304
  %13 = getelementptr inbounds { [0 x i8]*, i64 }, { [0 x i8]*, i64 }* %12, i32 0, i32 0, !dbg !304
  %_11.0 = load [0 x i8]*, [0 x i8]** %13, align 8, !dbg !304, !rawptr !230
  %14 = getelementptr inbounds { [0 x i8]*, i64 }, { [0 x i8]*, i64 }* %12, i32 0, i32 1, !dbg !304
  %_11.1 = load i64, i64* %14, align 8, !dbg !304, !rawptr !230
  %15 = getelementptr inbounds { [0 x i8]*, i64 }, { [0 x i8]*, i64 }* %v.dbg.spill, i32 0, i32 0, !dbg !229
  store [0 x i8]* %_11.0, [0 x i8]** %15, align 8, !dbg !229
  %16 = getelementptr inbounds { [0 x i8]*, i64 }, { [0 x i8]*, i64 }* %v.dbg.spill, i32 0, i32 1, !dbg !229
  store i64 %_11.1, i64* %16, align 8, !dbg !229
  call void @llvm.dbg.declare(metadata { [0 x i8]*, i64 }* %v.dbg.spill, metadata !306, metadata !DIExpression()), !dbg !315
  %17 = getelementptr inbounds { [0 x i8]*, i64 }, { [0 x i8]*, i64 }* %1, i32 0, i32 0, !dbg !315
  store [0 x i8]* %_11.0, [0 x i8]** %17, align 8, !dbg !315
  %18 = getelementptr inbounds { [0 x i8]*, i64 }, { [0 x i8]*, i64 }* %1, i32 0, i32 1, !dbg !315
  store i64 %_11.1, i64* %18, align 8, !dbg !315
  %19 = getelementptr inbounds { [0 x i8]*, i64 }, { [0 x i8]*, i64 }* %1, i32 0, i32 0, !dbg !315
  %20 = load [0 x i8]*, [0 x i8]** %19, align 8, !dbg !315, !nonnull !23, !align !317, !noundef !23
  %21 = getelementptr inbounds { [0 x i8]*, i64 }, { [0 x i8]*, i64 }* %1, i32 0, i32 1, !dbg !315
  %22 = load i64, i64* %21, align 8, !dbg !315
  br label %bb2, !dbg !315

bb2:                                              ; preds = %bb1
  %23 = insertvalue { [0 x i8]*, i64 } undef, [0 x i8]* %20, 0, !dbg !318
  %24 = insertvalue { [0 x i8]*, i64 } %23, i64 %22, 1, !dbg !318
  ret { [0 x i8]*, i64 } %24, !dbg !318
}

; std::sys_common::backtrace::__rust_begin_short_backtrace
; Function Attrs: noinline nonlazybind uwtable
define internal void @_ZN3std10sys_common9backtrace28__rust_begin_short_backtrace17h0e1f87e79842954fE(void ()* %f) unnamed_addr #1 personality i32 (i32, i32, i64, %"unwind::libunwind::_Unwind_Exception"*, %"unwind::libunwind::_Unwind_Context"*)* @rust_eh_personality !dbg !319 {
start:
  %0 = alloca { i8*, i32 }, align 8
  %dummy.dbg.spill = alloca {}, align 1
  %f.dbg.spill = alloca void ()*, align 8
  %result.dbg.spill = alloca {}, align 1
  call void @llvm.dbg.declare(metadata {}* %result.dbg.spill, metadata !327, metadata !DIExpression()), !dbg !331
  store void ()* %f, void ()** %f.dbg.spill, align 8
  call void @llvm.dbg.declare(metadata void ()** %f.dbg.spill, metadata !326, metadata !DIExpression()), !dbg !332
  call void @llvm.dbg.declare(metadata {}* %dummy.dbg.spill, metadata !333, metadata !DIExpression()), !dbg !341
; call core::ops::function::FnOnce::call_once
  call void @_ZN4core3ops8function6FnOnce9call_once17h67df27c57ae0f902E(void ()* %f), !dbg !343
  br label %bb1, !dbg !343

bb1:                                              ; preds = %start
  call void asm sideeffect "", "r,~{memory}"({}* undef), !dbg !341, !srcloc !344
  br label %bb4, !dbg !341

bb4:                                              ; preds = %bb1
  ret void, !dbg !345

bb2:                                              ; No predecessors!
  br label %bb3, !dbg !346

bb3:                                              ; preds = %bb2
  %1 = bitcast { i8*, i32 }* %0 to i8**, !dbg !347
  %2 = load i8*, i8** %1, align 8, !dbg !347
  %3 = getelementptr inbounds { i8*, i32 }, { i8*, i32 }* %0, i32 0, i32 1, !dbg !347
  %4 = load i32, i32* %3, align 8, !dbg !347
  %5 = insertvalue { i8*, i32 } undef, i8* %2, 0, !dbg !347
  %6 = insertvalue { i8*, i32 } %5, i32 %4, 1, !dbg !347
  resume { i8*, i32 } %6, !dbg !347
}

; std::fs::copy
; Function Attrs: nonlazybind uwtable
define internal void @_ZN3std2fs4copy17h38538c17e2bace40E(%"core::result::Result<u64, std::io::error::Error>"* sret(%"core::result::Result<u64, std::io::error::Error>") %0, %"alloc::string::String"* %from, %"std::path::Path"* align 1 %1, i64 %2) unnamed_addr #2 personality i32 (i32, i32, i64, %"unwind::libunwind::_Unwind_Exception"*, %"unwind::libunwind::_Unwind_Context"*)* @rust_eh_personality !dbg !348 {
start:
  %3 = alloca { i8*, i32 }, align 8
  %to = alloca { %"std::path::Path"*, i64 }, align 8
  %4 = getelementptr inbounds { %"std::path::Path"*, i64 }, { %"std::path::Path"*, i64 }* %to, i32 0, i32 0
  store %"std::path::Path"* %1, %"std::path::Path"** %4, align 8
  %5 = getelementptr inbounds { %"std::path::Path"*, i64 }, { %"std::path::Path"*, i64 }* %to, i32 0, i32 1
  store i64 %2, i64* %5, align 8
  call void @llvm.dbg.declare(metadata %"alloc::string::String"* %from, metadata !392, metadata !DIExpression()), !dbg !397
  call void @llvm.dbg.declare(metadata { %"std::path::Path"*, i64 }* %to, metadata !393, metadata !DIExpression()), !dbg !398
; invoke std::path::<impl core::convert::AsRef<std::path::Path> for alloc::string::String>::as_ref
  %6 = invoke { %"std::path::Path"*, i64 } @"_ZN3std4path95_$LT$impl$u20$core..convert..AsRef$LT$std..path..Path$GT$$u20$for$u20$alloc..string..String$GT$6as_ref17h7c78c2d009e41fe0E"(%"alloc::string::String"* align 8 %from)
          to label %bb1 unwind label %cleanup, !dbg !399

bb6:                                              ; preds = %cleanup
  br label %bb7, !dbg !400

cleanup:                                          ; preds = %bb2, %bb1, %start
  %7 = landingpad { i8*, i32 }
          cleanup
  %8 = extractvalue { i8*, i32 } %7, 0
  %9 = extractvalue { i8*, i32 } %7, 1
  %10 = getelementptr inbounds { i8*, i32 }, { i8*, i32 }* %3, i32 0, i32 0
  store i8* %8, i8** %10, align 8
  %11 = getelementptr inbounds { i8*, i32 }, { i8*, i32 }* %3, i32 0, i32 1
  store i32 %9, i32* %11, align 8
  br label %bb6

bb1:                                              ; preds = %start
  %_4.0 = extractvalue { %"std::path::Path"*, i64 } %6, 0, !dbg !399
  %_4.1 = extractvalue { %"std::path::Path"*, i64 } %6, 1, !dbg !399
; invoke <&T as core::convert::AsRef<U>>::as_ref
  %12 = invoke { %"std::path::Path"*, i64 } @"_ZN55_$LT$$RF$T$u20$as$u20$core..convert..AsRef$LT$U$GT$$GT$6as_ref17h345cf5e84bd7e7dcE"({ %"std::path::Path"*, i64 }* align 8 %to)
          to label %bb2 unwind label %cleanup, !dbg !401

bb2:                                              ; preds = %bb1
  %_7.0 = extractvalue { %"std::path::Path"*, i64 } %12, 0, !dbg !401
  %_7.1 = extractvalue { %"std::path::Path"*, i64 } %12, 1, !dbg !401
; invoke std::sys::unix::fs::copy
  invoke void @_ZN3std3sys4unix2fs4copy17hcbbfaea0784c9ef8E(%"core::result::Result<u64, std::io::error::Error>"* sret(%"core::result::Result<u64, std::io::error::Error>") %0, %"std::path::Path"* align 1 %_4.0, i64 %_4.1, %"std::path::Path"* align 1 %_7.0, i64 %_7.1)
          to label %bb3 unwind label %cleanup, !dbg !402

bb3:                                              ; preds = %bb2
  br label %bb4, !dbg !400

bb7:                                              ; preds = %bb6
; invoke core::ptr::drop_in_place<alloc::string::String>
  invoke void @"_ZN4core3ptr42drop_in_place$LT$alloc..string..String$GT$17ha0248625f7cefe65E"(%"alloc::string::String"* %from) #9
          to label %bb8 unwind label %abort, !dbg !400

bb4:                                              ; preds = %bb3
; call core::ptr::drop_in_place<alloc::string::String>
  call void @"_ZN4core3ptr42drop_in_place$LT$alloc..string..String$GT$17ha0248625f7cefe65E"(%"alloc::string::String"* %from), !dbg !400
  br label %bb5, !dbg !400

abort:                                            ; preds = %bb7
  %13 = landingpad { i8*, i32 }
          cleanup, !dbg !403
; call core::panicking::panic_no_unwind
  call void @_ZN4core9panicking15panic_no_unwind17h57180e694165966aE() #10, !dbg !403
  unreachable, !dbg !403

bb8:                                              ; preds = %bb7
  %14 = bitcast { i8*, i32 }* %3 to i8**, !dbg !403
  %15 = load i8*, i8** %14, align 8, !dbg !403
  %16 = getelementptr inbounds { i8*, i32 }, { i8*, i32 }* %3, i32 0, i32 1, !dbg !403
  %17 = load i32, i32* %16, align 8, !dbg !403
  %18 = insertvalue { i8*, i32 } undef, i8* %15, 0, !dbg !403
  %19 = insertvalue { i8*, i32 } %18, i32 %17, 1, !dbg !403
  resume { i8*, i32 } %19, !dbg !403

bb5:                                              ; preds = %bb4
  ret void, !dbg !404
}

; std::fs::copy
; Function Attrs: nonlazybind uwtable
define internal void @_ZN3std2fs4copy17h7abe85fee71bcff1E(%"core::result::Result<u64, std::io::error::Error>"* sret(%"core::result::Result<u64, std::io::error::Error>") %0, [0 x i8]* align 1 %1, i64 %2, %"std::path::Path"* align 1 %3, i64 %4) unnamed_addr #2 personality i32 (i32, i32, i64, %"unwind::libunwind::_Unwind_Exception"*, %"unwind::libunwind::_Unwind_Context"*)* @rust_eh_personality !dbg !405 {
start:
  %5 = alloca { i8*, i32 }, align 8
  %to = alloca { %"std::path::Path"*, i64 }, align 8
  %from = alloca { [0 x i8]*, i64 }, align 8
  %6 = getelementptr inbounds { [0 x i8]*, i64 }, { [0 x i8]*, i64 }* %from, i32 0, i32 0
  store [0 x i8]* %1, [0 x i8]** %6, align 8
  %7 = getelementptr inbounds { [0 x i8]*, i64 }, { [0 x i8]*, i64 }* %from, i32 0, i32 1
  store i64 %2, i64* %7, align 8
  %8 = getelementptr inbounds { %"std::path::Path"*, i64 }, { %"std::path::Path"*, i64 }* %to, i32 0, i32 0
  store %"std::path::Path"* %3, %"std::path::Path"** %8, align 8
  %9 = getelementptr inbounds { %"std::path::Path"*, i64 }, { %"std::path::Path"*, i64 }* %to, i32 0, i32 1
  store i64 %4, i64* %9, align 8
  call void @llvm.dbg.declare(metadata { [0 x i8]*, i64 }* %from, metadata !409, metadata !DIExpression()), !dbg !413
  call void @llvm.dbg.declare(metadata { %"std::path::Path"*, i64 }* %to, metadata !410, metadata !DIExpression()), !dbg !414
; invoke <&T as core::convert::AsRef<U>>::as_ref
  %10 = invoke { %"std::path::Path"*, i64 } @"_ZN55_$LT$$RF$T$u20$as$u20$core..convert..AsRef$LT$U$GT$$GT$6as_ref17h030026483561c7caE"({ [0 x i8]*, i64 }* align 8 %from)
          to label %bb1 unwind label %cleanup, !dbg !415

bb6:                                              ; preds = %cleanup
  br label %bb7, !dbg !416

cleanup:                                          ; preds = %bb2, %bb1, %start
  %11 = landingpad { i8*, i32 }
          cleanup
  %12 = extractvalue { i8*, i32 } %11, 0
  %13 = extractvalue { i8*, i32 } %11, 1
  %14 = getelementptr inbounds { i8*, i32 }, { i8*, i32 }* %5, i32 0, i32 0
  store i8* %12, i8** %14, align 8
  %15 = getelementptr inbounds { i8*, i32 }, { i8*, i32 }* %5, i32 0, i32 1
  store i32 %13, i32* %15, align 8
  br label %bb6

bb1:                                              ; preds = %start
  %_4.0 = extractvalue { %"std::path::Path"*, i64 } %10, 0, !dbg !415
  %_4.1 = extractvalue { %"std::path::Path"*, i64 } %10, 1, !dbg !415
; invoke <&T as core::convert::AsRef<U>>::as_ref
  %16 = invoke { %"std::path::Path"*, i64 } @"_ZN55_$LT$$RF$T$u20$as$u20$core..convert..AsRef$LT$U$GT$$GT$6as_ref17h345cf5e84bd7e7dcE"({ %"std::path::Path"*, i64 }* align 8 %to)
          to label %bb2 unwind label %cleanup, !dbg !417

bb2:                                              ; preds = %bb1
  %_7.0 = extractvalue { %"std::path::Path"*, i64 } %16, 0, !dbg !417
  %_7.1 = extractvalue { %"std::path::Path"*, i64 } %16, 1, !dbg !417
; invoke std::sys::unix::fs::copy
  invoke void @_ZN3std3sys4unix2fs4copy17hcbbfaea0784c9ef8E(%"core::result::Result<u64, std::io::error::Error>"* sret(%"core::result::Result<u64, std::io::error::Error>") %0, %"std::path::Path"* align 1 %_4.0, i64 %_4.1, %"std::path::Path"* align 1 %_7.0, i64 %_7.1)
          to label %bb3 unwind label %cleanup, !dbg !418

bb3:                                              ; preds = %bb2
  br label %bb4, !dbg !416

bb7:                                              ; preds = %bb6
  br label %bb8, !dbg !416

bb4:                                              ; preds = %bb3
  br label %bb5, !dbg !416

bb8:                                              ; preds = %bb7
  %17 = bitcast { i8*, i32 }* %5 to i8**, !dbg !419
  %18 = load i8*, i8** %17, align 8, !dbg !419
  %19 = getelementptr inbounds { i8*, i32 }, { i8*, i32 }* %5, i32 0, i32 1, !dbg !419
  %20 = load i32, i32* %19, align 8, !dbg !419
  %21 = insertvalue { i8*, i32 } undef, i8* %18, 0, !dbg !419
  %22 = insertvalue { i8*, i32 } %21, i32 %20, 1, !dbg !419
  resume { i8*, i32 } %22, !dbg !419

bb5:                                              ; preds = %bb4
  ret void, !dbg !420
}

; std::rt::lang_start
; Function Attrs: nonlazybind uwtable
define hidden i64 @_ZN3std2rt10lang_start17h0c1973654d55ead5E(void ()* %main, i64 %argc, i8** %argv) unnamed_addr #2 !dbg !421 {
start:
  %v.dbg.spill = alloca i64, align 8
  %argv.dbg.spill = alloca i8**, align 8
  %argc.dbg.spill = alloca i64, align 8
  %main.dbg.spill = alloca void ()*, align 8
  %_8 = alloca i64*, align 8
  %_4 = alloca i64, align 8
  store void ()* %main, void ()** %main.dbg.spill, align 8
  call void @llvm.dbg.declare(metadata void ()** %main.dbg.spill, metadata !428, metadata !DIExpression()), !dbg !433
  store i64 %argc, i64* %argc.dbg.spill, align 8
  call void @llvm.dbg.declare(metadata i64* %argc.dbg.spill, metadata !429, metadata !DIExpression()), !dbg !434
  store i8** %argv, i8*** %argv.dbg.spill, align 8
  call void @llvm.dbg.declare(metadata i8*** %argv.dbg.spill, metadata !430, metadata !DIExpression()), !dbg !435
  %0 = bitcast i64** %_8 to void ()**, !dbg !436
  store void ()* %main, void ()** %0, align 8, !dbg !436
  %_5.0 = bitcast i64** %_8 to {}*, !dbg !437
; call std::rt::lang_start_internal
  %1 = call i64 @_ZN3std2rt19lang_start_internal17h4a61547abbd425a7E({}* align 1 %_5.0, [3 x i64]* align 8 bitcast (<{ i8*, [16 x i8], i8*, i8*, i8* }>* @vtable.0 to [3 x i64]*), i64 %argc, i8** %argv), !dbg !438
  store i64 %1, i64* %_4, align 8, !dbg !438
  br label %bb1, !dbg !438

bb1:                                              ; preds = %start
  %v = load i64, i64* %_4, align 8, !dbg !439
  store i64 %v, i64* %v.dbg.spill, align 8, !dbg !439
  call void @llvm.dbg.declare(metadata i64* %v.dbg.spill, metadata !431, metadata !DIExpression()), !dbg !440
  ret i64 %v, !dbg !441
}

; std::rt::lang_start::{{closure}}
; Function Attrs: inlinehint nonlazybind uwtable
define internal i32 @"_ZN3std2rt10lang_start28_$u7b$$u7b$closure$u7d$$u7d$17h7fe7bab926779946E"(i64** align 8 %_1) unnamed_addr #0 !dbg !442 {
start:
  %self.dbg.spill = alloca i8*, align 8
  %_1.dbg.spill = alloca i64**, align 8
  %self = alloca i8, align 1
  store i64** %_1, i64*** %_1.dbg.spill, align 8
  %0 = load i64**, i64*** %_1.dbg.spill, align 8, !nonnull !23, !align !448, !noundef !23
  %1 = bitcast i64** %0 to void ()**
  call void @llvm.dbg.declare(metadata i64*** %_1.dbg.spill, metadata !447, metadata !DIExpression(DW_OP_deref)), !dbg !449
  call void @llvm.dbg.declare(metadata i8* %self, metadata !450, metadata !DIExpression()), !dbg !466
  %2 = bitcast i64** %_1 to void ()**, !dbg !468
  %_4 = load void ()*, void ()** %2, align 8, !dbg !468, !nonnull !23, !noundef !23
; call std::sys_common::backtrace::__rust_begin_short_backtrace
  call void @_ZN3std10sys_common9backtrace28__rust_begin_short_backtrace17h0e1f87e79842954fE(void ()* %_4), !dbg !467
  br label %bb1, !dbg !467

bb1:                                              ; preds = %start
; call <() as std::process::Termination>::report
  %3 = call i8 @"_ZN54_$LT$$LP$$RP$$u20$as$u20$std..process..Termination$GT$6report17ha1c9df651a7539f5E"(), !dbg !467
  store i8 %3, i8* %self, align 1, !dbg !467
  br label %bb2, !dbg !467

bb2:                                              ; preds = %bb1
  store i8* %self, i8** %self.dbg.spill, align 8, !dbg !466
  call void @llvm.dbg.declare(metadata i8** %self.dbg.spill, metadata !469, metadata !DIExpression()), !dbg !477
  %_6 = load i8, i8* %self, align 1, !dbg !477
  %4 = zext i8 %_6 to i32, !dbg !477
  ret i32 %4, !dbg !479
}

; std::env::var
; Function Attrs: nonlazybind uwtable
define internal void @_ZN3std3env3var17hc28e7badfe305402E(%"core::result::Result<alloc::string::String, std::env::VarError>"* sret(%"core::result::Result<alloc::string::String, std::env::VarError>") %0, %"alloc::string::String"* %key) unnamed_addr #2 personality i32 (i32, i32, i64, %"unwind::libunwind::_Unwind_Exception"*, %"unwind::libunwind::_Unwind_Context"*)* @rust_eh_personality !dbg !480 {
start:
  %1 = alloca { i8*, i32 }, align 8, !dbg !522
  call void @llvm.dbg.declare(metadata %"alloc::string::String"* %key, metadata !519, metadata !DIExpression()), !dbg !522
; invoke std::ffi::os_str::<impl core::convert::AsRef<std::ffi::os_str::OsStr> for alloc::string::String>::as_ref
  %2 = invoke { %"std::ffi::os_str::OsStr"*, i64 } @"_ZN3std3ffi6os_str103_$LT$impl$u20$core..convert..AsRef$LT$std..ffi..os_str..OsStr$GT$$u20$for$u20$alloc..string..String$GT$6as_ref17h5f1352336594927eE"(%"alloc::string::String"* align 8 %key)
          to label %bb1 unwind label %cleanup, !dbg !523

bb4:                                              ; preds = %cleanup
; invoke core::ptr::drop_in_place<alloc::string::String>
  invoke void @"_ZN4core3ptr42drop_in_place$LT$alloc..string..String$GT$17ha0248625f7cefe65E"(%"alloc::string::String"* %key) #9
          to label %bb5 unwind label %abort, !dbg !524

cleanup:                                          ; preds = %bb1, %start
  %3 = landingpad { i8*, i32 }
          cleanup
  %4 = extractvalue { i8*, i32 } %3, 0
  %5 = extractvalue { i8*, i32 } %3, 1
  %6 = getelementptr inbounds { i8*, i32 }, { i8*, i32 }* %1, i32 0, i32 0
  store i8* %4, i8** %6, align 8
  %7 = getelementptr inbounds { i8*, i32 }, { i8*, i32 }* %1, i32 0, i32 1
  store i32 %5, i32* %7, align 8
  br label %bb4

bb1:                                              ; preds = %start
  %_3.0 = extractvalue { %"std::ffi::os_str::OsStr"*, i64 } %2, 0, !dbg !523
  %_3.1 = extractvalue { %"std::ffi::os_str::OsStr"*, i64 } %2, 1, !dbg !523
; invoke std::env::_var
  invoke void @_ZN3std3env4_var17hf887649bba216849E(%"core::result::Result<alloc::string::String, std::env::VarError>"* sret(%"core::result::Result<alloc::string::String, std::env::VarError>") %0, %"std::ffi::os_str::OsStr"* align 1 %_3.0, i64 %_3.1)
          to label %bb2 unwind label %cleanup, !dbg !525

bb2:                                              ; preds = %bb1
; call core::ptr::drop_in_place<alloc::string::String>
  call void @"_ZN4core3ptr42drop_in_place$LT$alloc..string..String$GT$17ha0248625f7cefe65E"(%"alloc::string::String"* %key), !dbg !524
  br label %bb3, !dbg !524

abort:                                            ; preds = %bb4
  %8 = landingpad { i8*, i32 }
          cleanup, !dbg !526
; call core::panicking::panic_no_unwind
  call void @_ZN4core9panicking15panic_no_unwind17h57180e694165966aE() #10, !dbg !526
  unreachable, !dbg !526

bb5:                                              ; preds = %bb4
  %9 = bitcast { i8*, i32 }* %1 to i8**, !dbg !526
  %10 = load i8*, i8** %9, align 8, !dbg !526
  %11 = getelementptr inbounds { i8*, i32 }, { i8*, i32 }* %1, i32 0, i32 1, !dbg !526
  %12 = load i32, i32* %11, align 8, !dbg !526
  %13 = insertvalue { i8*, i32 } undef, i8* %10, 0, !dbg !526
  %14 = insertvalue { i8*, i32 } %13, i32 %12, 1, !dbg !526
  resume { i8*, i32 } %14, !dbg !526

bb3:                                              ; preds = %bb2
  ret void, !dbg !527
}

; std::env::set_var
; Function Attrs: nonlazybind uwtable
define internal void @_ZN3std3env7set_var17h5bf5fa45aa95334bE([0 x i8]* align 1 %0, i64 %1, %"std::path::PathBuf"* %value) unnamed_addr #2 personality i32 (i32, i32, i64, %"unwind::libunwind::_Unwind_Exception"*, %"unwind::libunwind::_Unwind_Context"*)* @rust_eh_personality !dbg !528 {
start:
  %2 = alloca { i8*, i32 }, align 8
  %key = alloca { [0 x i8]*, i64 }, align 8
  %3 = getelementptr inbounds { [0 x i8]*, i64 }, { [0 x i8]*, i64 }* %key, i32 0, i32 0
  store [0 x i8]* %0, [0 x i8]** %3, align 8
  %4 = getelementptr inbounds { [0 x i8]*, i64 }, { [0 x i8]*, i64 }* %key, i32 0, i32 1
  store i64 %1, i64* %4, align 8
  call void @llvm.dbg.declare(metadata { [0 x i8]*, i64 }* %key, metadata !535, metadata !DIExpression()), !dbg !540
  call void @llvm.dbg.declare(metadata %"std::path::PathBuf"* %value, metadata !536, metadata !DIExpression()), !dbg !541
; invoke <&T as core::convert::AsRef<U>>::as_ref
  %5 = invoke { %"std::ffi::os_str::OsStr"*, i64 } @"_ZN55_$LT$$RF$T$u20$as$u20$core..convert..AsRef$LT$U$GT$$GT$6as_ref17h29da0b36620d6d1cE"({ [0 x i8]*, i64 }* align 8 %key)
          to label %bb1 unwind label %cleanup, !dbg !542

bb6:                                              ; preds = %cleanup
; invoke core::ptr::drop_in_place<std::path::PathBuf>
  invoke void @"_ZN4core3ptr39drop_in_place$LT$std..path..PathBuf$GT$17hadfdda033a88cdb4E"(%"std::path::PathBuf"* %value) #9
          to label %bb7 unwind label %abort, !dbg !543

cleanup:                                          ; preds = %bb2, %bb1, %start
  %6 = landingpad { i8*, i32 }
          cleanup
  %7 = extractvalue { i8*, i32 } %6, 0
  %8 = extractvalue { i8*, i32 } %6, 1
  %9 = getelementptr inbounds { i8*, i32 }, { i8*, i32 }* %2, i32 0, i32 0
  store i8* %7, i8** %9, align 8
  %10 = getelementptr inbounds { i8*, i32 }, { i8*, i32 }* %2, i32 0, i32 1
  store i32 %8, i32* %10, align 8
  br label %bb6

bb1:                                              ; preds = %start
  %_4.0 = extractvalue { %"std::ffi::os_str::OsStr"*, i64 } %5, 0, !dbg !542
  %_4.1 = extractvalue { %"std::ffi::os_str::OsStr"*, i64 } %5, 1, !dbg !542
; invoke <std::path::PathBuf as core::convert::AsRef<std::ffi::os_str::OsStr>>::as_ref
  %11 = invoke { %"std::ffi::os_str::OsStr"*, i64 } @"_ZN90_$LT$std..path..PathBuf$u20$as$u20$core..convert..AsRef$LT$std..ffi..os_str..OsStr$GT$$GT$6as_ref17h19020149dd667009E"(%"std::path::PathBuf"* align 8 %value)
          to label %bb2 unwind label %cleanup, !dbg !544

bb2:                                              ; preds = %bb1
  %_7.0 = extractvalue { %"std::ffi::os_str::OsStr"*, i64 } %11, 0, !dbg !544
  %_7.1 = extractvalue { %"std::ffi::os_str::OsStr"*, i64 } %11, 1, !dbg !544
; invoke std::env::_set_var
  invoke void @_ZN3std3env8_set_var17h21ca9c89de386997E(%"std::ffi::os_str::OsStr"* align 1 %_4.0, i64 %_4.1, %"std::ffi::os_str::OsStr"* align 1 %_7.0, i64 %_7.1)
          to label %bb3 unwind label %cleanup, !dbg !545

bb3:                                              ; preds = %bb2
; invoke core::ptr::drop_in_place<std::path::PathBuf>
  invoke void @"_ZN4core3ptr39drop_in_place$LT$std..path..PathBuf$GT$17hadfdda033a88cdb4E"(%"std::path::PathBuf"* %value)
          to label %bb4 unwind label %cleanup1, !dbg !543

abort:                                            ; preds = %bb6
  %12 = landingpad { i8*, i32 }
          cleanup, !dbg !546
; call core::panicking::panic_no_unwind
  call void @_ZN4core9panicking15panic_no_unwind17h57180e694165966aE() #10, !dbg !546
  unreachable, !dbg !546

bb7:                                              ; preds = %cleanup1, %bb6
  br label %bb8, !dbg !543

cleanup1:                                         ; preds = %bb3
  %13 = landingpad { i8*, i32 }
          cleanup
  %14 = extractvalue { i8*, i32 } %13, 0
  %15 = extractvalue { i8*, i32 } %13, 1
  %16 = getelementptr inbounds { i8*, i32 }, { i8*, i32 }* %2, i32 0, i32 0
  store i8* %14, i8** %16, align 8
  %17 = getelementptr inbounds { i8*, i32 }, { i8*, i32 }* %2, i32 0, i32 1
  store i32 %15, i32* %17, align 8
  br label %bb7

bb4:                                              ; preds = %bb3
  br label %bb5, !dbg !543

bb8:                                              ; preds = %bb7
  %18 = bitcast { i8*, i32 }* %2 to i8**, !dbg !546
  %19 = load i8*, i8** %18, align 8, !dbg !546
  %20 = getelementptr inbounds { i8*, i32 }, { i8*, i32 }* %2, i32 0, i32 1, !dbg !546
  %21 = load i32, i32* %20, align 8, !dbg !546
  %22 = insertvalue { i8*, i32 } undef, i8* %19, 0, !dbg !546
  %23 = insertvalue { i8*, i32 } %22, i32 %21, 1, !dbg !546
  resume { i8*, i32 } %23, !dbg !546

bb5:                                              ; preds = %bb4
  ret void, !dbg !547
}

; std::ffi::os_str::<impl core::convert::AsRef<std::ffi::os_str::OsStr> for alloc::string::String>::as_ref
; Function Attrs: inlinehint nonlazybind uwtable
define internal { %"std::ffi::os_str::OsStr"*, i64 } @"_ZN3std3ffi6os_str103_$LT$impl$u20$core..convert..AsRef$LT$std..ffi..os_str..OsStr$GT$$u20$for$u20$alloc..string..String$GT$6as_ref17h5f1352336594927eE"(%"alloc::string::String"* align 8 %self) unnamed_addr #0 !dbg !548 {
start:
  %inner.dbg.spill = alloca { %"std::sys::unix::os_str::Slice"*, i64 }, align 8
  %0 = alloca { %"std::sys::unix::os_str::Slice"*, i64 }, align 8
  %s.dbg.spill3 = alloca { [0 x i8]*, i64 }, align 8
  %1 = alloca { [0 x i8]*, i64 }, align 8
  %self.dbg.spill2 = alloca { [0 x i8]*, i64 }, align 8
  %s.dbg.spill = alloca { [0 x i8]*, i64 }, align 8
  %self.dbg.spill1 = alloca { [0 x i8]*, i64 }, align 8
  %self.dbg.spill = alloca %"alloc::string::String"*, align 8
  store %"alloc::string::String"* %self, %"alloc::string::String"** %self.dbg.spill, align 8
  call void @llvm.dbg.declare(metadata %"alloc::string::String"** %self.dbg.spill, metadata !559, metadata !DIExpression()), !dbg !560
; call <alloc::string::String as core::ops::deref::Deref>::deref
  %2 = call { [0 x i8]*, i64 } @"_ZN65_$LT$alloc..string..String$u20$as$u20$core..ops..deref..Deref$GT$5deref17h9fa11a46fd8f80c7E"(%"alloc::string::String"* align 8 %self), !dbg !561
  %_4.0 = extractvalue { [0 x i8]*, i64 } %2, 0, !dbg !561
  %_4.1 = extractvalue { [0 x i8]*, i64 } %2, 1, !dbg !561
  br label %bb1, !dbg !561

bb1:                                              ; preds = %start
  %3 = getelementptr inbounds { [0 x i8]*, i64 }, { [0 x i8]*, i64 }* %self.dbg.spill1, i32 0, i32 0, !dbg !562
  store [0 x i8]* %_4.0, [0 x i8]** %3, align 8, !dbg !562
  %4 = getelementptr inbounds { [0 x i8]*, i64 }, { [0 x i8]*, i64 }* %self.dbg.spill1, i32 0, i32 1, !dbg !562
  store i64 %_4.1, i64* %4, align 8, !dbg !562
  call void @llvm.dbg.declare(metadata { [0 x i8]*, i64 }* %self.dbg.spill1, metadata !563, metadata !DIExpression()), !dbg !569
  %5 = getelementptr inbounds { [0 x i8]*, i64 }, { [0 x i8]*, i64 }* %s.dbg.spill, i32 0, i32 0, !dbg !569
  store [0 x i8]* %_4.0, [0 x i8]** %5, align 8, !dbg !569
  %6 = getelementptr inbounds { [0 x i8]*, i64 }, { [0 x i8]*, i64 }* %s.dbg.spill, i32 0, i32 1, !dbg !569
  store i64 %_4.1, i64* %6, align 8, !dbg !569
  call void @llvm.dbg.declare(metadata { [0 x i8]*, i64 }* %s.dbg.spill, metadata !570, metadata !DIExpression()), !dbg !582
  %7 = getelementptr inbounds { [0 x i8]*, i64 }, { [0 x i8]*, i64 }* %self.dbg.spill2, i32 0, i32 0, !dbg !582
  store [0 x i8]* %_4.0, [0 x i8]** %7, align 8, !dbg !582
  %8 = getelementptr inbounds { [0 x i8]*, i64 }, { [0 x i8]*, i64 }* %self.dbg.spill2, i32 0, i32 1, !dbg !582
  store i64 %_4.1, i64* %8, align 8, !dbg !582
  call void @llvm.dbg.declare(metadata { [0 x i8]*, i64 }* %self.dbg.spill2, metadata !584, metadata !DIExpression()), !dbg !592
  %9 = getelementptr inbounds { [0 x i8]*, i64 }, { [0 x i8]*, i64 }* %1, i32 0, i32 0, !dbg !592
  store [0 x i8]* %_4.0, [0 x i8]** %9, align 8, !dbg !592
  %10 = getelementptr inbounds { [0 x i8]*, i64 }, { [0 x i8]*, i64 }* %1, i32 0, i32 1, !dbg !592
  store i64 %_4.1, i64* %10, align 8, !dbg !592
  %11 = getelementptr inbounds { [0 x i8]*, i64 }, { [0 x i8]*, i64 }* %1, i32 0, i32 0, !dbg !592
  %_10.0 = load [0 x i8]*, [0 x i8]** %11, align 8, !dbg !592, !nonnull !23, !align !317, !noundef !23
  %12 = getelementptr inbounds { [0 x i8]*, i64 }, { [0 x i8]*, i64 }* %1, i32 0, i32 1, !dbg !592
  %_10.1 = load i64, i64* %12, align 8, !dbg !592
  br label %bb2, !dbg !592

bb2:                                              ; preds = %bb1
  %13 = getelementptr inbounds { [0 x i8]*, i64 }, { [0 x i8]*, i64 }* %s.dbg.spill3, i32 0, i32 0, !dbg !582
  store [0 x i8]* %_10.0, [0 x i8]** %13, align 8, !dbg !582
  %14 = getelementptr inbounds { [0 x i8]*, i64 }, { [0 x i8]*, i64 }* %s.dbg.spill3, i32 0, i32 1, !dbg !582
  store i64 %_10.1, i64* %14, align 8, !dbg !582
  call void @llvm.dbg.declare(metadata { [0 x i8]*, i64 }* %s.dbg.spill3, metadata !594, metadata !DIExpression()), !dbg !600
  %15 = bitcast { %"std::sys::unix::os_str::Slice"*, i64 }* %0 to { [0 x i8]*, i64 }*, !dbg !600
  %16 = getelementptr inbounds { [0 x i8]*, i64 }, { [0 x i8]*, i64 }* %15, i32 0, i32 0, !dbg !600
  store [0 x i8]* %_10.0, [0 x i8]** %16, align 8, !dbg !600
  %17 = getelementptr inbounds { [0 x i8]*, i64 }, { [0 x i8]*, i64 }* %15, i32 0, i32 1, !dbg !600
  store i64 %_10.1, i64* %17, align 8, !dbg !600
  %18 = getelementptr inbounds { %"std::sys::unix::os_str::Slice"*, i64 }, { %"std::sys::unix::os_str::Slice"*, i64 }* %0, i32 0, i32 0, !dbg !600
  %_7.0 = load %"std::sys::unix::os_str::Slice"*, %"std::sys::unix::os_str::Slice"** %18, align 8, !dbg !600, !nonnull !23, !align !317, !noundef !23, !rawptr !230
  %19 = getelementptr inbounds { %"std::sys::unix::os_str::Slice"*, i64 }, { %"std::sys::unix::os_str::Slice"*, i64 }* %0, i32 0, i32 1, !dbg !600
  %_7.1 = load i64, i64* %19, align 8, !dbg !600, !rawptr !230
  br label %bb3, !dbg !600

bb3:                                              ; preds = %bb2
  %20 = getelementptr inbounds { %"std::sys::unix::os_str::Slice"*, i64 }, { %"std::sys::unix::os_str::Slice"*, i64 }* %inner.dbg.spill, i32 0, i32 0, !dbg !569
  store %"std::sys::unix::os_str::Slice"* %_7.0, %"std::sys::unix::os_str::Slice"** %20, align 8, !dbg !569
  %21 = getelementptr inbounds { %"std::sys::unix::os_str::Slice"*, i64 }, { %"std::sys::unix::os_str::Slice"*, i64 }* %inner.dbg.spill, i32 0, i32 1, !dbg !569
  store i64 %_7.1, i64* %21, align 8, !dbg !569
  call void @llvm.dbg.declare(metadata { %"std::sys::unix::os_str::Slice"*, i64 }* %inner.dbg.spill, metadata !602, metadata !DIExpression()), !dbg !607
  %_14.0 = bitcast %"std::sys::unix::os_str::Slice"* %_7.0 to %"std::ffi::os_str::OsStr"*, !dbg !607, !rawptr !230
  %22 = insertvalue { %"std::ffi::os_str::OsStr"*, i64 } undef, %"std::ffi::os_str::OsStr"* %_14.0, 0, !dbg !609
  %23 = insertvalue { %"std::ffi::os_str::OsStr"*, i64 } %22, i64 %_7.1, 1, !dbg !609
  ret { %"std::ffi::os_str::OsStr"*, i64 } %23, !dbg !609
}

; std::sys::unix::os_str::Buf::as_slice
; Function Attrs: inlinehint nonlazybind uwtable
define internal { %"std::sys::unix::os_str::Slice"*, i64 } @_ZN3std3sys4unix6os_str3Buf8as_slice17h31a2af57ea27db9eE(%"std::sys::unix::os_str::Buf"* align 8 %self) unnamed_addr #0 !dbg !610 {
start:
  %0 = alloca { %"std::sys::unix::os_str::Slice"*, i64 }, align 8
  %metadata.dbg.spill = alloca i64, align 8
  %data_address.dbg.spill = alloca {}*, align 8
  %self.dbg.spill5 = alloca i8*, align 8
  %len.dbg.spill4 = alloca i64, align 8
  %data.dbg.spill3 = alloca i8*, align 8
  %len.dbg.spill = alloca i64, align 8
  %data.dbg.spill = alloca i8*, align 8
  %self.dbg.spill2 = alloca %"alloc::vec::Vec<u8>"*, align 8
  %self.dbg.spill = alloca %"std::sys::unix::os_str::Buf"*, align 8
  %_17 = alloca { i8*, i64 }, align 8
  %_16 = alloca %"core::ptr::metadata::PtrRepr<[u8]>", align 8
  store %"std::sys::unix::os_str::Buf"* %self, %"std::sys::unix::os_str::Buf"** %self.dbg.spill, align 8
  call void @llvm.dbg.declare(metadata %"std::sys::unix::os_str::Buf"** %self.dbg.spill, metadata !615, metadata !DIExpression()), !dbg !616
  %self1 = bitcast %"std::sys::unix::os_str::Buf"* %self to %"alloc::vec::Vec<u8>"*, !dbg !617, !rawptr !230
  store %"alloc::vec::Vec<u8>"* %self1, %"alloc::vec::Vec<u8>"** %self.dbg.spill2, align 8, !dbg !617
  call void @llvm.dbg.declare(metadata %"alloc::vec::Vec<u8>"** %self.dbg.spill2, metadata !618, metadata !DIExpression()), !dbg !622
; call alloc::vec::Vec<T,A>::as_ptr
  %data = call i8* @"_ZN5alloc3vec16Vec$LT$T$C$A$GT$6as_ptr17h0b1676a68a684ff9E"(%"alloc::vec::Vec<u8>"* align 8 %self1), !dbg !622, !rawptr !230
  store i8* %data, i8** %data.dbg.spill, align 8, !dbg !622
  call void @llvm.dbg.declare(metadata i8** %data.dbg.spill, metadata !624, metadata !DIExpression()), !dbg !632
  br label %bb2, !dbg !622

bb2:                                              ; preds = %start
  %1 = getelementptr inbounds %"alloc::vec::Vec<u8>", %"alloc::vec::Vec<u8>"* %self1, i32 0, i32 1, !dbg !622
  %len = load i64, i64* %1, align 8, !dbg !622
  store i64 %len, i64* %len.dbg.spill, align 8, !dbg !622
  call void @llvm.dbg.declare(metadata i64* %len.dbg.spill, metadata !628, metadata !DIExpression()), !dbg !632
  store i8* %data, i8** %data.dbg.spill3, align 8, !dbg !632
  call void @llvm.dbg.declare(metadata i8** %data.dbg.spill3, metadata !634, metadata !DIExpression()), !dbg !639
  store i64 %len, i64* %len.dbg.spill4, align 8, !dbg !632
  call void @llvm.dbg.declare(metadata i64* %len.dbg.spill4, metadata !638, metadata !DIExpression()), !dbg !639
  store i8* %data, i8** %self.dbg.spill5, align 8, !dbg !639
  call void @llvm.dbg.declare(metadata i8** %self.dbg.spill5, metadata !641, metadata !DIExpression()), !dbg !645
  %data_address = bitcast i8* %data to {}*, !dbg !645, !rawptr !230
  store {}* %data_address, {}** %data_address.dbg.spill, align 8, !dbg !645
  call void @llvm.dbg.declare(metadata {}** %data_address.dbg.spill, metadata !647, metadata !DIExpression()), !dbg !652
  store i64 %len, i64* %metadata.dbg.spill, align 8, !dbg !639
  call void @llvm.dbg.declare(metadata i64* %metadata.dbg.spill, metadata !651, metadata !DIExpression()), !dbg !652
  %2 = bitcast { i8*, i64 }* %_17 to {}**, !dbg !652, !rawptr !230
  store {}* %data_address, {}** %2, align 8, !dbg !652
  %3 = getelementptr inbounds { i8*, i64 }, { i8*, i64 }* %_17, i32 0, i32 1, !dbg !652
  store i64 %len, i64* %3, align 8, !dbg !652
  %4 = bitcast %"core::ptr::metadata::PtrRepr<[u8]>"* %_16 to { i8*, i64 }*, !dbg !652
  %5 = getelementptr inbounds { i8*, i64 }, { i8*, i64 }* %_17, i32 0, i32 0, !dbg !652
  %6 = load i8*, i8** %5, align 8, !dbg !652
  %7 = getelementptr inbounds { i8*, i64 }, { i8*, i64 }* %_17, i32 0, i32 1, !dbg !652
  %8 = load i64, i64* %7, align 8, !dbg !652
  %9 = getelementptr inbounds { i8*, i64 }, { i8*, i64 }* %4, i32 0, i32 0, !dbg !652
  store i8* %6, i8** %9, align 8, !dbg !652
  %10 = getelementptr inbounds { i8*, i64 }, { i8*, i64 }* %4, i32 0, i32 1, !dbg !652
  store i64 %8, i64* %10, align 8, !dbg !652
  %11 = bitcast %"core::ptr::metadata::PtrRepr<[u8]>"* %_16 to { [0 x i8]*, i64 }*, !dbg !652
  %12 = getelementptr inbounds { [0 x i8]*, i64 }, { [0 x i8]*, i64 }* %11, i32 0, i32 0, !dbg !652
  %_9.0 = load [0 x i8]*, [0 x i8]** %12, align 8, !dbg !652, !rawptr !230
  %13 = getelementptr inbounds { [0 x i8]*, i64 }, { [0 x i8]*, i64 }* %11, i32 0, i32 1, !dbg !652
  %_9.1 = load i64, i64* %13, align 8, !dbg !652, !rawptr !230
  %14 = bitcast { %"std::sys::unix::os_str::Slice"*, i64 }* %0 to { [0 x i8]*, i64 }*, !dbg !654
  %15 = getelementptr inbounds { [0 x i8]*, i64 }, { [0 x i8]*, i64 }* %14, i32 0, i32 0, !dbg !654
  store [0 x i8]* %_9.0, [0 x i8]** %15, align 8, !dbg !654
  %16 = getelementptr inbounds { [0 x i8]*, i64 }, { [0 x i8]*, i64 }* %14, i32 0, i32 1, !dbg !654
  store i64 %_9.1, i64* %16, align 8, !dbg !654
  %17 = getelementptr inbounds { %"std::sys::unix::os_str::Slice"*, i64 }, { %"std::sys::unix::os_str::Slice"*, i64 }* %0, i32 0, i32 0, !dbg !654
  %18 = load %"std::sys::unix::os_str::Slice"*, %"std::sys::unix::os_str::Slice"** %17, align 8, !dbg !654, !nonnull !23, !align !317, !noundef !23
  %19 = getelementptr inbounds { %"std::sys::unix::os_str::Slice"*, i64 }, { %"std::sys::unix::os_str::Slice"*, i64 }* %0, i32 0, i32 1, !dbg !654
  %20 = load i64, i64* %19, align 8, !dbg !654
  br label %bb1, !dbg !654

bb1:                                              ; preds = %bb2
  %21 = insertvalue { %"std::sys::unix::os_str::Slice"*, i64 } undef, %"std::sys::unix::os_str::Slice"* %18, 0, !dbg !655
  %22 = insertvalue { %"std::sys::unix::os_str::Slice"*, i64 } %21, i64 %20, 1, !dbg !655
  ret { %"std::sys::unix::os_str::Slice"*, i64 } %22, !dbg !655
}

; std::path::Path::to_string_lossy
; Function Attrs: inlinehint nonlazybind uwtable
define internal void @_ZN3std4path4Path15to_string_lossy17h6dcfe681c09eac21E(%"alloc::borrow::Cow<str>"* sret(%"alloc::borrow::Cow<str>") %0, %"std::path::Path"* align 1 %self.0, i64 %self.1) unnamed_addr #0 !dbg !656 {
start:
  %self.dbg.spill2 = alloca { %"std::ffi::os_str::OsStr"*, i64 }, align 8
  %self.dbg.spill = alloca { %"std::path::Path"*, i64 }, align 8
  %1 = getelementptr inbounds { %"std::path::Path"*, i64 }, { %"std::path::Path"*, i64 }* %self.dbg.spill, i32 0, i32 0
  store %"std::path::Path"* %self.0, %"std::path::Path"** %1, align 8
  %2 = getelementptr inbounds { %"std::path::Path"*, i64 }, { %"std::path::Path"*, i64 }* %self.dbg.spill, i32 0, i32 1
  store i64 %self.1, i64* %2, align 8
  call void @llvm.dbg.declare(metadata { %"std::path::Path"*, i64 }* %self.dbg.spill, metadata !677, metadata !DIExpression()), !dbg !678
  %3 = mul nsw i64 %self.1, 1, !dbg !679
  %4 = add i64 0, %3, !dbg !679
  %5 = add i64 %4, 0, !dbg !679
  %6 = and i64 %5, -1, !dbg !679
  %7 = add i64 0, %6, !dbg !679
  %8 = add i64 %7, 0, !dbg !679
  %9 = and i64 %8, -1, !dbg !679
  %10 = bitcast %"std::path::Path"* %self.0 to i8*, !dbg !679
  %11 = getelementptr i8, i8* %10, i64 0, !dbg !679
  %self.01 = bitcast i8* %11 to %"std::ffi::os_str::OsStr"*, !dbg !679
  %12 = getelementptr inbounds { %"std::ffi::os_str::OsStr"*, i64 }, { %"std::ffi::os_str::OsStr"*, i64 }* %self.dbg.spill2, i32 0, i32 0, !dbg !679
  store %"std::ffi::os_str::OsStr"* %self.01, %"std::ffi::os_str::OsStr"** %12, align 8, !dbg !679
  %13 = getelementptr inbounds { %"std::ffi::os_str::OsStr"*, i64 }, { %"std::ffi::os_str::OsStr"*, i64 }* %self.dbg.spill2, i32 0, i32 1, !dbg !679
  store i64 %self.1, i64* %13, align 8, !dbg !679
  call void @llvm.dbg.declare(metadata { %"std::ffi::os_str::OsStr"*, i64 }* %self.dbg.spill2, metadata !680, metadata !DIExpression()), !dbg !686
  %14 = mul nsw i64 %self.1, 1, !dbg !686
  %15 = add i64 0, %14, !dbg !686
  %16 = add i64 %15, 0, !dbg !686
  %17 = and i64 %16, -1, !dbg !686
  %18 = bitcast %"std::ffi::os_str::OsStr"* %self.01 to i8*, !dbg !686
  %19 = getelementptr i8, i8* %18, i64 0, !dbg !686
  %_3.0 = bitcast i8* %19 to %"std::sys::unix::os_str::Slice"*, !dbg !686
; call std::sys::unix::os_str::Slice::to_string_lossy
  call void @_ZN3std3sys4unix6os_str5Slice15to_string_lossy17h79109b39c9633d53E(%"alloc::borrow::Cow<str>"* sret(%"alloc::borrow::Cow<str>") %0, %"std::sys::unix::os_str::Slice"* align 1 %_3.0, i64 %self.1), !dbg !686
  br label %bb1, !dbg !686

bb1:                                              ; preds = %start
  ret void, !dbg !687
}

; std::path::<impl core::convert::AsRef<std::path::Path> for alloc::string::String>::as_ref
; Function Attrs: inlinehint nonlazybind uwtable
define internal { %"std::path::Path"*, i64 } @"_ZN3std4path95_$LT$impl$u20$core..convert..AsRef$LT$std..path..Path$GT$$u20$for$u20$alloc..string..String$GT$6as_ref17h7c78c2d009e41fe0E"(%"alloc::string::String"* align 8 %self) unnamed_addr #0 !dbg !688 {
start:
  %self.dbg.spill = alloca %"alloc::string::String"*, align 8
  store %"alloc::string::String"* %self, %"alloc::string::String"** %self.dbg.spill, align 8
  call void @llvm.dbg.declare(metadata %"alloc::string::String"** %self.dbg.spill, metadata !693, metadata !DIExpression()), !dbg !694
; call std::path::Path::new
  %0 = call { %"std::path::Path"*, i64 } @_ZN3std4path4Path3new17h5aa41ecd2f6ab4feE(%"alloc::string::String"* align 8 %self), !dbg !695
  %1 = extractvalue { %"std::path::Path"*, i64 } %0, 0, !dbg !695
  %2 = extractvalue { %"std::path::Path"*, i64 } %0, 1, !dbg !695
  br label %bb1, !dbg !695

bb1:                                              ; preds = %start
  %3 = insertvalue { %"std::path::Path"*, i64 } undef, %"std::path::Path"* %1, 0, !dbg !696
  %4 = insertvalue { %"std::path::Path"*, i64 } %3, i64 %2, 1, !dbg !696
  ret { %"std::path::Path"*, i64 } %4, !dbg !696
}

; core::cmp::impls::<impl core::cmp::PartialEq<&B> for &A>::ne
; Function Attrs: inlinehint nonlazybind uwtable
define internal zeroext i1 @"_ZN4core3cmp5impls69_$LT$impl$u20$core..cmp..PartialEq$LT$$RF$B$GT$$u20$for$u20$$RF$A$GT$2ne17hf1431e3b64a23e49E"(%"alloc::string::String"** align 8 %self, { [0 x i8]*, i64 }* align 8 %other) unnamed_addr #0 !dbg !697 {
start:
  %other.dbg.spill = alloca { [0 x i8]*, i64 }*, align 8
  %self.dbg.spill = alloca %"alloc::string::String"**, align 8
  store %"alloc::string::String"** %self, %"alloc::string::String"*** %self.dbg.spill, align 8
  call void @llvm.dbg.declare(metadata %"alloc::string::String"*** %self.dbg.spill, metadata !708, metadata !DIExpression()), !dbg !712
  store { [0 x i8]*, i64 }* %other, { [0 x i8]*, i64 }** %other.dbg.spill, align 8
  call void @llvm.dbg.declare(metadata { [0 x i8]*, i64 }** %other.dbg.spill, metadata !709, metadata !DIExpression()), !dbg !713
  %_5 = load %"alloc::string::String"*, %"alloc::string::String"** %self, align 8, !dbg !714, !nonnull !23, !align !448, !noundef !23
  %0 = getelementptr inbounds { [0 x i8]*, i64 }, { [0 x i8]*, i64 }* %other, i32 0, i32 0, !dbg !715
  %_6.0 = load [0 x i8]*, [0 x i8]** %0, align 8, !dbg !715, !nonnull !23, !align !317, !noundef !23
  %1 = getelementptr inbounds { [0 x i8]*, i64 }, { [0 x i8]*, i64 }* %other, i32 0, i32 1, !dbg !715
  %_6.1 = load i64, i64* %1, align 8, !dbg !715
; call <alloc::string::String as core::cmp::PartialEq<str>>::ne
  %2 = call zeroext i1 @"_ZN73_$LT$alloc..string..String$u20$as$u20$core..cmp..PartialEq$LT$str$GT$$GT$2ne17hb8f409e2ddaf8de8E"(%"alloc::string::String"* align 8 %_5, [0 x i8]* align 1 %_6.0, i64 %_6.1), !dbg !716
  br label %bb1, !dbg !716

bb1:                                              ; preds = %start
  ret i1 %2, !dbg !717
}

; core::fmt::Arguments::as_str
; Function Attrs: inlinehint nonlazybind uwtable
define internal { i8*, i64 } @_ZN4core3fmt9Arguments6as_str17h86765fb2d3e53c0bE(%"core::fmt::Arguments"* align 8 %self) unnamed_addr #0 !dbg !718 {
start:
  %s.dbg.spill = alloca { [0 x i8]*, i64 }*, align 8
  %self.dbg.spill = alloca %"core::fmt::Arguments"*, align 8
  %_2 = alloca { { [0 x { [0 x i8]*, i64 }]*, i64 }, { [0 x { i8*, i64* }]*, i64 } }, align 8
  %0 = alloca { i8*, i64 }, align 8
  store %"core::fmt::Arguments"* %self, %"core::fmt::Arguments"** %self.dbg.spill, align 8
  call void @llvm.dbg.declare(metadata %"core::fmt::Arguments"** %self.dbg.spill, metadata !847, metadata !DIExpression()), !dbg !850
  %1 = bitcast %"core::fmt::Arguments"* %self to { [0 x { [0 x i8]*, i64 }]*, i64 }*, !dbg !851
  %2 = getelementptr inbounds { [0 x { [0 x i8]*, i64 }]*, i64 }, { [0 x { [0 x i8]*, i64 }]*, i64 }* %1, i32 0, i32 0, !dbg !851
  %_3.0 = load [0 x { [0 x i8]*, i64 }]*, [0 x { [0 x i8]*, i64 }]** %2, align 8, !dbg !851, !nonnull !23, !align !448, !noundef !23
  %3 = getelementptr inbounds { [0 x { [0 x i8]*, i64 }]*, i64 }, { [0 x { [0 x i8]*, i64 }]*, i64 }* %1, i32 0, i32 1, !dbg !851
  %_3.1 = load i64, i64* %3, align 8, !dbg !851
  %4 = getelementptr inbounds %"core::fmt::Arguments", %"core::fmt::Arguments"* %self, i32 0, i32 2, !dbg !852
  %5 = getelementptr inbounds { [0 x { i8*, i64* }]*, i64 }, { [0 x { i8*, i64* }]*, i64 }* %4, i32 0, i32 0, !dbg !852
  %_4.0 = load [0 x { i8*, i64* }]*, [0 x { i8*, i64* }]** %5, align 8, !dbg !852, !nonnull !23, !align !448, !noundef !23
  %6 = getelementptr inbounds { [0 x { i8*, i64* }]*, i64 }, { [0 x { i8*, i64* }]*, i64 }* %4, i32 0, i32 1, !dbg !852
  %_4.1 = load i64, i64* %6, align 8, !dbg !852
  %7 = bitcast { { [0 x { [0 x i8]*, i64 }]*, i64 }, { [0 x { i8*, i64* }]*, i64 } }* %_2 to { [0 x { [0 x i8]*, i64 }]*, i64 }*, !dbg !853
  %8 = getelementptr inbounds { [0 x { [0 x i8]*, i64 }]*, i64 }, { [0 x { [0 x i8]*, i64 }]*, i64 }* %7, i32 0, i32 0, !dbg !853
  store [0 x { [0 x i8]*, i64 }]* %_3.0, [0 x { [0 x i8]*, i64 }]** %8, align 8, !dbg !853
  %9 = getelementptr inbounds { [0 x { [0 x i8]*, i64 }]*, i64 }, { [0 x { [0 x i8]*, i64 }]*, i64 }* %7, i32 0, i32 1, !dbg !853
  store i64 %_3.1, i64* %9, align 8, !dbg !853
  %10 = getelementptr inbounds { { [0 x { [0 x i8]*, i64 }]*, i64 }, { [0 x { i8*, i64* }]*, i64 } }, { { [0 x { [0 x i8]*, i64 }]*, i64 }, { [0 x { i8*, i64* }]*, i64 } }* %_2, i32 0, i32 1, !dbg !853
  %11 = getelementptr inbounds { [0 x { i8*, i64* }]*, i64 }, { [0 x { i8*, i64* }]*, i64 }* %10, i32 0, i32 0, !dbg !853
  store [0 x { i8*, i64* }]* %_4.0, [0 x { i8*, i64* }]** %11, align 8, !dbg !853
  %12 = getelementptr inbounds { [0 x { i8*, i64* }]*, i64 }, { [0 x { i8*, i64* }]*, i64 }* %10, i32 0, i32 1, !dbg !853
  store i64 %_4.1, i64* %12, align 8, !dbg !853
  %13 = bitcast { { [0 x { [0 x i8]*, i64 }]*, i64 }, { [0 x { i8*, i64* }]*, i64 } }* %_2 to { [0 x { [0 x i8]*, i64 }]*, i64 }*, !dbg !854
  %14 = getelementptr inbounds { [0 x { [0 x i8]*, i64 }]*, i64 }, { [0 x { [0 x i8]*, i64 }]*, i64 }* %13, i32 0, i32 0, !dbg !854
  %_21.0 = load [0 x { [0 x i8]*, i64 }]*, [0 x { [0 x i8]*, i64 }]** %14, align 8, !dbg !854, !nonnull !23, !align !448, !noundef !23
  %15 = getelementptr inbounds { [0 x { [0 x i8]*, i64 }]*, i64 }, { [0 x { [0 x i8]*, i64 }]*, i64 }* %13, i32 0, i32 1, !dbg !854
  %_21.1 = load i64, i64* %15, align 8, !dbg !854
  %_16 = icmp eq i64 %_21.1, 0, !dbg !854
  br i1 %_16, label %bb1, label %bb3, !dbg !854

bb3:                                              ; preds = %start
  %16 = bitcast { { [0 x { [0 x i8]*, i64 }]*, i64 }, { [0 x { i8*, i64* }]*, i64 } }* %_2 to { [0 x { [0 x i8]*, i64 }]*, i64 }*, !dbg !855
  %17 = getelementptr inbounds { [0 x { [0 x i8]*, i64 }]*, i64 }, { [0 x { [0 x i8]*, i64 }]*, i64 }* %16, i32 0, i32 0, !dbg !855
  %_23.0 = load [0 x { [0 x i8]*, i64 }]*, [0 x { [0 x i8]*, i64 }]** %17, align 8, !dbg !855, !nonnull !23, !align !448, !noundef !23
  %18 = getelementptr inbounds { [0 x { [0 x i8]*, i64 }]*, i64 }, { [0 x { [0 x i8]*, i64 }]*, i64 }* %16, i32 0, i32 1, !dbg !855
  %_23.1 = load i64, i64* %18, align 8, !dbg !855
  %_13 = icmp eq i64 %_23.1, 1, !dbg !855
  br i1 %_13, label %bb4, label %bb2, !dbg !855

bb1:                                              ; preds = %start
  %19 = getelementptr inbounds { { [0 x { [0 x i8]*, i64 }]*, i64 }, { [0 x { i8*, i64* }]*, i64 } }, { { [0 x { [0 x i8]*, i64 }]*, i64 }, { [0 x { i8*, i64* }]*, i64 } }* %_2, i32 0, i32 1, !dbg !856
  %20 = getelementptr inbounds { [0 x { i8*, i64* }]*, i64 }, { [0 x { i8*, i64* }]*, i64 }* %19, i32 0, i32 0, !dbg !856
  %_22.0 = load [0 x { i8*, i64* }]*, [0 x { i8*, i64* }]** %20, align 8, !dbg !856, !nonnull !23, !align !448, !noundef !23
  %21 = getelementptr inbounds { [0 x { i8*, i64* }]*, i64 }, { [0 x { i8*, i64* }]*, i64 }* %19, i32 0, i32 1, !dbg !856
  %_22.1 = load i64, i64* %21, align 8, !dbg !856
  %_7 = icmp eq i64 %_22.1, 0, !dbg !856
  br i1 %_7, label %bb5, label %bb2, !dbg !856

bb2:                                              ; preds = %bb4, %bb3, %bb1
  %22 = bitcast { i8*, i64 }* %0 to {}**, !dbg !857
  store {}* null, {}** %22, align 8, !dbg !857
  br label %bb7, !dbg !857

bb5:                                              ; preds = %bb1
  %23 = bitcast { i8*, i64 }* %0 to { [0 x i8]*, i64 }*, !dbg !858
  %24 = getelementptr inbounds { [0 x i8]*, i64 }, { [0 x i8]*, i64 }* %23, i32 0, i32 0, !dbg !858
  store [0 x i8]* bitcast (<{}>* @alloc69 to [0 x i8]*), [0 x i8]** %24, align 8, !dbg !858
  %25 = getelementptr inbounds { [0 x i8]*, i64 }, { [0 x i8]*, i64 }* %23, i32 0, i32 1, !dbg !858
  store i64 0, i64* %25, align 8, !dbg !858
  br label %bb7, !dbg !859

bb7:                                              ; preds = %bb2, %bb6, %bb5
  %26 = getelementptr inbounds { i8*, i64 }, { i8*, i64 }* %0, i32 0, i32 0, !dbg !860
  %27 = load i8*, i8** %26, align 8, !dbg !860, !align !317
  %28 = getelementptr inbounds { i8*, i64 }, { i8*, i64 }* %0, i32 0, i32 1, !dbg !860
  %29 = load i64, i64* %28, align 8, !dbg !860
  %30 = insertvalue { i8*, i64 } undef, i8* %27, 0, !dbg !860
  %31 = insertvalue { i8*, i64 } %30, i64 %29, 1, !dbg !860
  ret { i8*, i64 } %31, !dbg !860

bb4:                                              ; preds = %bb3
  %32 = getelementptr inbounds { { [0 x { [0 x i8]*, i64 }]*, i64 }, { [0 x { i8*, i64* }]*, i64 } }, { { [0 x { [0 x i8]*, i64 }]*, i64 }, { [0 x { i8*, i64* }]*, i64 } }* %_2, i32 0, i32 1, !dbg !861
  %33 = getelementptr inbounds { [0 x { i8*, i64* }]*, i64 }, { [0 x { i8*, i64* }]*, i64 }* %32, i32 0, i32 0, !dbg !861
  %_24.0 = load [0 x { i8*, i64* }]*, [0 x { i8*, i64* }]** %33, align 8, !dbg !861, !nonnull !23, !align !448, !noundef !23
  %34 = getelementptr inbounds { [0 x { i8*, i64* }]*, i64 }, { [0 x { i8*, i64* }]*, i64 }* %32, i32 0, i32 1, !dbg !861
  %_24.1 = load i64, i64* %34, align 8, !dbg !861
  %_10 = icmp eq i64 %_24.1, 0, !dbg !861
  br i1 %_10, label %bb6, label %bb2, !dbg !861

bb6:                                              ; preds = %bb4
  %35 = bitcast { { [0 x { [0 x i8]*, i64 }]*, i64 }, { [0 x { i8*, i64* }]*, i64 } }* %_2 to { [0 x { [0 x i8]*, i64 }]*, i64 }*, !dbg !862
  %36 = getelementptr inbounds { [0 x { [0 x i8]*, i64 }]*, i64 }, { [0 x { [0 x i8]*, i64 }]*, i64 }* %35, i32 0, i32 0, !dbg !862
  %_25.0 = load [0 x { [0 x i8]*, i64 }]*, [0 x { [0 x i8]*, i64 }]** %36, align 8, !dbg !862, !nonnull !23, !align !448, !noundef !23
  %37 = getelementptr inbounds { [0 x { [0 x i8]*, i64 }]*, i64 }, { [0 x { [0 x i8]*, i64 }]*, i64 }* %35, i32 0, i32 1, !dbg !862
  %_25.1 = load i64, i64* %37, align 8, !dbg !862
  %s = getelementptr inbounds [0 x { [0 x i8]*, i64 }], [0 x { [0 x i8]*, i64 }]* %_25.0, i64 0, i64 0, !dbg !862
  store { [0 x i8]*, i64 }* %s, { [0 x i8]*, i64 }** %s.dbg.spill, align 8, !dbg !862
  call void @llvm.dbg.declare(metadata { [0 x i8]*, i64 }** %s.dbg.spill, metadata !848, metadata !DIExpression()), !dbg !863
  %38 = getelementptr inbounds { [0 x i8]*, i64 }, { [0 x i8]*, i64 }* %s, i32 0, i32 0, !dbg !864
  %_26.0 = load [0 x i8]*, [0 x i8]** %38, align 8, !dbg !864, !nonnull !23, !align !317, !noundef !23
  %39 = getelementptr inbounds { [0 x i8]*, i64 }, { [0 x i8]*, i64 }* %s, i32 0, i32 1, !dbg !864
  %_26.1 = load i64, i64* %39, align 8, !dbg !864
  %40 = bitcast { i8*, i64 }* %0 to { [0 x i8]*, i64 }*, !dbg !865
  %41 = getelementptr inbounds { [0 x i8]*, i64 }, { [0 x i8]*, i64 }* %40, i32 0, i32 0, !dbg !865
  store [0 x i8]* %_26.0, [0 x i8]** %41, align 8, !dbg !865
  %42 = getelementptr inbounds { [0 x i8]*, i64 }, { [0 x i8]*, i64 }* %40, i32 0, i32 1, !dbg !865
  store i64 %_26.1, i64* %42, align 8, !dbg !865
  br label %bb7, !dbg !866
}

; core::fmt::Arguments::new_v1
; Function Attrs: inlinehint nonlazybind uwtable
define internal void @_ZN4core3fmt9Arguments6new_v117h7ec2561a46cebd19E(%"core::fmt::Arguments"* sret(%"core::fmt::Arguments") %0, [0 x { [0 x i8]*, i64 }]* align 8 %pieces.0, i64 %pieces.1, [0 x { i8*, i64* }]* align 8 %args.0, i64 %args.1) unnamed_addr #0 !dbg !867 {
start:
  %args.dbg.spill = alloca { [0 x { i8*, i64* }]*, i64 }, align 8
  %pieces.dbg.spill = alloca { [0 x { [0 x i8]*, i64 }]*, i64 }, align 8
  %_24 = alloca { i64*, i64 }, align 8
  %_16 = alloca %"core::fmt::Arguments", align 8
  %_3 = alloca i8, align 1
  %1 = getelementptr inbounds { [0 x { [0 x i8]*, i64 }]*, i64 }, { [0 x { [0 x i8]*, i64 }]*, i64 }* %pieces.dbg.spill, i32 0, i32 0
  store [0 x { [0 x i8]*, i64 }]* %pieces.0, [0 x { [0 x i8]*, i64 }]** %1, align 8
  %2 = getelementptr inbounds { [0 x { [0 x i8]*, i64 }]*, i64 }, { [0 x { [0 x i8]*, i64 }]*, i64 }* %pieces.dbg.spill, i32 0, i32 1
  store i64 %pieces.1, i64* %2, align 8
  call void @llvm.dbg.declare(metadata { [0 x { [0 x i8]*, i64 }]*, i64 }* %pieces.dbg.spill, metadata !871, metadata !DIExpression()), !dbg !873
  %3 = getelementptr inbounds { [0 x { i8*, i64* }]*, i64 }, { [0 x { i8*, i64* }]*, i64 }* %args.dbg.spill, i32 0, i32 0
  store [0 x { i8*, i64* }]* %args.0, [0 x { i8*, i64* }]** %3, align 8
  %4 = getelementptr inbounds { [0 x { i8*, i64* }]*, i64 }, { [0 x { i8*, i64* }]*, i64 }* %args.dbg.spill, i32 0, i32 1
  store i64 %args.1, i64* %4, align 8
  call void @llvm.dbg.declare(metadata { [0 x { i8*, i64* }]*, i64 }* %args.dbg.spill, metadata !872, metadata !DIExpression()), !dbg !874
  %_4 = icmp ult i64 %pieces.1, %args.1, !dbg !875
  br i1 %_4, label %bb1, label %bb2, !dbg !875

bb2:                                              ; preds = %start
  %_12 = add i64 %args.1, 1, !dbg !876
  %_9 = icmp ugt i64 %pieces.1, %_12, !dbg !877
  %5 = zext i1 %_9 to i8, !dbg !875
  store i8 %5, i8* %_3, align 1, !dbg !875
  br label %bb3, !dbg !875

bb1:                                              ; preds = %start
  store i8 1, i8* %_3, align 1, !dbg !875
  br label %bb3, !dbg !875

bb3:                                              ; preds = %bb2, %bb1
  %6 = load i8, i8* %_3, align 1, !dbg !875, !range !878, !noundef !23
  %7 = trunc i8 %6 to i1, !dbg !875
  br i1 %7, label %bb4, label %bb6, !dbg !875

bb6:                                              ; preds = %bb3
  %8 = bitcast { i64*, i64 }* %_24 to {}**, !dbg !879
  store {}* null, {}** %8, align 8, !dbg !879
  %9 = bitcast %"core::fmt::Arguments"* %0 to { [0 x { [0 x i8]*, i64 }]*, i64 }*, !dbg !880
  %10 = getelementptr inbounds { [0 x { [0 x i8]*, i64 }]*, i64 }, { [0 x { [0 x i8]*, i64 }]*, i64 }* %9, i32 0, i32 0, !dbg !880
  store [0 x { [0 x i8]*, i64 }]* %pieces.0, [0 x { [0 x i8]*, i64 }]** %10, align 8, !dbg !880
  %11 = getelementptr inbounds { [0 x { [0 x i8]*, i64 }]*, i64 }, { [0 x { [0 x i8]*, i64 }]*, i64 }* %9, i32 0, i32 1, !dbg !880
  store i64 %pieces.1, i64* %11, align 8, !dbg !880
  %12 = getelementptr inbounds %"core::fmt::Arguments", %"core::fmt::Arguments"* %0, i32 0, i32 1, !dbg !880
  %13 = getelementptr inbounds { i64*, i64 }, { i64*, i64 }* %_24, i32 0, i32 0, !dbg !880
  %14 = load i64*, i64** %13, align 8, !dbg !880, !align !448
  %15 = getelementptr inbounds { i64*, i64 }, { i64*, i64 }* %_24, i32 0, i32 1, !dbg !880
  %16 = load i64, i64* %15, align 8, !dbg !880
  %17 = getelementptr inbounds { i64*, i64 }, { i64*, i64 }* %12, i32 0, i32 0, !dbg !880
  store i64* %14, i64** %17, align 8, !dbg !880
  %18 = getelementptr inbounds { i64*, i64 }, { i64*, i64 }* %12, i32 0, i32 1, !dbg !880
  store i64 %16, i64* %18, align 8, !dbg !880
  %19 = getelementptr inbounds %"core::fmt::Arguments", %"core::fmt::Arguments"* %0, i32 0, i32 2, !dbg !880
  %20 = getelementptr inbounds { [0 x { i8*, i64* }]*, i64 }, { [0 x { i8*, i64* }]*, i64 }* %19, i32 0, i32 0, !dbg !880
  store [0 x { i8*, i64* }]* %args.0, [0 x { i8*, i64* }]** %20, align 8, !dbg !880
  %21 = getelementptr inbounds { [0 x { i8*, i64* }]*, i64 }, { [0 x { i8*, i64* }]*, i64 }* %19, i32 0, i32 1, !dbg !880
  store i64 %args.1, i64* %21, align 8, !dbg !880
  ret void, !dbg !881

bb4:                                              ; preds = %bb3
; call core::fmt::Arguments::new_v1
  call void @_ZN4core3fmt9Arguments6new_v117h7ec2561a46cebd19E(%"core::fmt::Arguments"* sret(%"core::fmt::Arguments") %_16, [0 x { [0 x i8]*, i64 }]* align 8 bitcast (<{ i8*, [8 x i8] }>* @alloc132 to [0 x { [0 x i8]*, i64 }]*), i64 1, [0 x { i8*, i64* }]* align 8 bitcast (<{}>* @alloc69 to [0 x { i8*, i64* }]*), i64 0), !dbg !882
  br label %bb5, !dbg !882

bb5:                                              ; preds = %bb4
; call core::panicking::panic_fmt
  call void @_ZN4core9panicking9panic_fmt17h8b6ce72891ae5e4fE(%"core::fmt::Arguments"* %_16, %"core::panic::location::Location"* align 8 bitcast (<{ i8*, [16 x i8] }>* @alloc213 to %"core::panic::location::Location"*)) #11, !dbg !882
  unreachable, !dbg !882
}

; core::ops::function::FnOnce::call_once{{vtable.shim}}
; Function Attrs: inlinehint nonlazybind uwtable
define internal i32 @"_ZN4core3ops8function6FnOnce40call_once$u7b$$u7b$vtable.shim$u7d$$u7d$17h5806c1b5de622317E"(i64** %_1) unnamed_addr #0 !dbg !883 {
start:
  %_1.dbg.spill = alloca i64**, align 8
  %_2 = alloca {}, align 1
  store i64** %_1, i64*** %_1.dbg.spill, align 8
  call void @llvm.dbg.declare(metadata i64*** %_1.dbg.spill, metadata !891, metadata !DIExpression()), !dbg !896
  call void @llvm.dbg.declare(metadata {}* %_2, metadata !892, metadata !DIExpression()), !dbg !896
  %0 = load i64*, i64** %_1, align 8, !dbg !896, !nonnull !23, !noundef !23
; call core::ops::function::FnOnce::call_once
  %1 = call i32 @_ZN4core3ops8function6FnOnce9call_once17h5cc1888c684b8fcaE(i64* %0), !dbg !896
  br label %bb1, !dbg !896

bb1:                                              ; preds = %start
  ret i32 %1, !dbg !896
}

; core::ops::function::FnOnce::call_once
; Function Attrs: inlinehint nonlazybind uwtable
define internal i32 @_ZN4core3ops8function6FnOnce9call_once17h5cc1888c684b8fcaE(i64* %0) unnamed_addr #0 personality i32 (i32, i32, i64, %"unwind::libunwind::_Unwind_Exception"*, %"unwind::libunwind::_Unwind_Context"*)* @rust_eh_personality !dbg !897 {
start:
  %1 = alloca { i8*, i32 }, align 8
  %_2 = alloca {}, align 1
  %_1 = alloca i64*, align 8
  store i64* %0, i64** %_1, align 8
  call void @llvm.dbg.declare(metadata i64** %_1, metadata !901, metadata !DIExpression()), !dbg !903
  call void @llvm.dbg.declare(metadata {}* %_2, metadata !902, metadata !DIExpression()), !dbg !903
; invoke std::rt::lang_start::{{closure}}
  %2 = invoke i32 @"_ZN3std2rt10lang_start28_$u7b$$u7b$closure$u7d$$u7d$17h7fe7bab926779946E"(i64** align 8 %_1)
          to label %bb1 unwind label %cleanup, !dbg !903

bb3:                                              ; preds = %cleanup
  br label %bb4, !dbg !903

cleanup:                                          ; preds = %start
  %3 = landingpad { i8*, i32 }
          cleanup
  %4 = extractvalue { i8*, i32 } %3, 0
  %5 = extractvalue { i8*, i32 } %3, 1
  %6 = getelementptr inbounds { i8*, i32 }, { i8*, i32 }* %1, i32 0, i32 0
  store i8* %4, i8** %6, align 8
  %7 = getelementptr inbounds { i8*, i32 }, { i8*, i32 }* %1, i32 0, i32 1
  store i32 %5, i32* %7, align 8
  br label %bb3

bb1:                                              ; preds = %start
  br label %bb2, !dbg !903

bb4:                                              ; preds = %bb3
  %8 = bitcast { i8*, i32 }* %1 to i8**, !dbg !903
  %9 = load i8*, i8** %8, align 8, !dbg !903
  %10 = getelementptr inbounds { i8*, i32 }, { i8*, i32 }* %1, i32 0, i32 1, !dbg !903
  %11 = load i32, i32* %10, align 8, !dbg !903
  %12 = insertvalue { i8*, i32 } undef, i8* %9, 0, !dbg !903
  %13 = insertvalue { i8*, i32 } %12, i32 %11, 1, !dbg !903
  resume { i8*, i32 } %13, !dbg !903

bb2:                                              ; preds = %bb1
  ret i32 %2, !dbg !903
}

; core::ops::function::FnOnce::call_once
; Function Attrs: inlinehint nonlazybind uwtable
define internal void @_ZN4core3ops8function6FnOnce9call_once17h67df27c57ae0f902E(void ()* %_1) unnamed_addr #0 !dbg !904 {
start:
  %_1.dbg.spill = alloca void ()*, align 8
  %_2 = alloca {}, align 1
  store void ()* %_1, void ()** %_1.dbg.spill, align 8
  call void @llvm.dbg.declare(metadata void ()** %_1.dbg.spill, metadata !906, metadata !DIExpression()), !dbg !910
  call void @llvm.dbg.declare(metadata {}* %_2, metadata !907, metadata !DIExpression()), !dbg !910
  call void %_1(), !dbg !910
  br label %bb1, !dbg !910

bb1:                                              ; preds = %start
  ret void, !dbg !910
}

; core::ptr::drop_in_place<build_script_build::HeaderLocation>
; Function Attrs: nonlazybind uwtable
define internal void @"_ZN4core3ptr55drop_in_place$LT$build_script_build..HeaderLocation$GT$17hf6ab47ddca57b34cE"(%HeaderLocation* %_1) unnamed_addr #2 !dbg !911 {
start:
  %_1.dbg.spill = alloca %HeaderLocation*, align 8
  store %HeaderLocation* %_1, %HeaderLocation** %_1.dbg.spill, align 8
  call void @llvm.dbg.declare(metadata %HeaderLocation** %_1.dbg.spill, metadata !929, metadata !DIExpression()), !dbg !932
  %0 = bitcast %HeaderLocation* %_1 to i64*, !dbg !932
  %_2 = load i64, i64* %0, align 8, !dbg !932, !range !933, !noundef !23
  switch i64 %_2, label %bb2 [
    i64 0, label %bb1
    i64 1, label %bb1
  ], !dbg !932

bb2:                                              ; preds = %start
  %1 = bitcast %HeaderLocation* %_1 to %"HeaderLocation::FromPath"*, !dbg !932
  %2 = getelementptr inbounds %"HeaderLocation::FromPath", %"HeaderLocation::FromPath"* %1, i32 0, i32 1, !dbg !932
; call core::ptr::drop_in_place<alloc::string::String>
  call void @"_ZN4core3ptr42drop_in_place$LT$alloc..string..String$GT$17ha0248625f7cefe65E"(%"alloc::string::String"* %2), !dbg !932
  br label %bb1, !dbg !932

bb1:                                              ; preds = %bb2, %start, %start
  ret void, !dbg !932
}

; core::ptr::drop_in_place<core::result::Result<vcpkg::Library,vcpkg::Error>>
; Function Attrs: nonlazybind uwtable
define internal void @"_ZN4core3ptr78drop_in_place$LT$core..result..Result$LT$vcpkg..Library$C$vcpkg..Error$GT$$GT$17hcdda3552f1e12edcE"(%"core::result::Result<vcpkg::Library, vcpkg::Error>"* %_1) unnamed_addr #2 !dbg !934 {
start:
  %_1.dbg.spill = alloca %"core::result::Result<vcpkg::Library, vcpkg::Error>"*, align 8
  store %"core::result::Result<vcpkg::Library, vcpkg::Error>"* %_1, %"core::result::Result<vcpkg::Library, vcpkg::Error>"** %_1.dbg.spill, align 8
  call void @llvm.dbg.declare(metadata %"core::result::Result<vcpkg::Library, vcpkg::Error>"** %_1.dbg.spill, metadata !1038, metadata !DIExpression()), !dbg !1041
  %0 = bitcast %"core::result::Result<vcpkg::Library, vcpkg::Error>"* %_1 to i64*, !dbg !1041
  %_2 = load i64, i64* %0, align 8, !dbg !1041, !range !1042, !noundef !23
  %1 = icmp eq i64 %_2, 0, !dbg !1041
  br i1 %1, label %bb2, label %bb3, !dbg !1041

bb2:                                              ; preds = %start
  %2 = bitcast %"core::result::Result<vcpkg::Library, vcpkg::Error>"* %_1 to %"core::result::Result<vcpkg::Library, vcpkg::Error>::Ok"*, !dbg !1041
  %3 = getelementptr inbounds %"core::result::Result<vcpkg::Library, vcpkg::Error>::Ok", %"core::result::Result<vcpkg::Library, vcpkg::Error>::Ok"* %2, i32 0, i32 1, !dbg !1041
; call core::ptr::drop_in_place<vcpkg::Library>
  call void @"_ZN4core3ptr35drop_in_place$LT$vcpkg..Library$GT$17h9cff952e7b84046eE"(%"vcpkg::Library"* %3), !dbg !1041
  br label %bb1, !dbg !1041

bb3:                                              ; preds = %start
  %4 = bitcast %"core::result::Result<vcpkg::Library, vcpkg::Error>"* %_1 to %"core::result::Result<vcpkg::Library, vcpkg::Error>::Err"*, !dbg !1041
  %5 = getelementptr inbounds %"core::result::Result<vcpkg::Library, vcpkg::Error>::Err", %"core::result::Result<vcpkg::Library, vcpkg::Error>::Err"* %4, i32 0, i32 1, !dbg !1041
; call core::ptr::drop_in_place<vcpkg::Error>
  call void @"_ZN4core3ptr33drop_in_place$LT$vcpkg..Error$GT$17hfd780a642f862da1E"(%"vcpkg::Error"* %5), !dbg !1041
  br label %bb1, !dbg !1041

bb1:                                              ; preds = %bb2, %bb3
  ret void, !dbg !1041
}

; core::ptr::drop_in_place<core::option::Option<build_script_build::HeaderLocation>>
; Function Attrs: nonlazybind uwtable
define internal void @"_ZN4core3ptr83drop_in_place$LT$core..option..Option$LT$build_script_build..HeaderLocation$GT$$GT$17h7d5736b4ea7101f5E"(%"core::option::Option<HeaderLocation>"* %_1) unnamed_addr #2 !dbg !1043 {
start:
  %_1.dbg.spill = alloca %"core::option::Option<HeaderLocation>"*, align 8
  store %"core::option::Option<HeaderLocation>"* %_1, %"core::option::Option<HeaderLocation>"** %_1.dbg.spill, align 8
  call void @llvm.dbg.declare(metadata %"core::option::Option<HeaderLocation>"** %_1.dbg.spill, metadata !1059, metadata !DIExpression()), !dbg !1062
  %0 = bitcast %"core::option::Option<HeaderLocation>"* %_1 to i64*, !dbg !1062
  %1 = load i64, i64* %0, align 8, !dbg !1062, !range !1063, !noundef !23
  %2 = sub i64 %1, 3, !dbg !1062
  %3 = icmp eq i64 %2, 0, !dbg !1062
  %_2 = select i1 %3, i64 0, i64 1, !dbg !1062
  %4 = icmp eq i64 %_2, 0, !dbg !1062
  br i1 %4, label %bb1, label %bb2, !dbg !1062

bb1:                                              ; preds = %bb2, %start
  ret void, !dbg !1062

bb2:                                              ; preds = %start
  %5 = bitcast %"core::option::Option<HeaderLocation>"* %_1 to %"core::option::Option<HeaderLocation>::Some"*, !dbg !1062
  %6 = bitcast %"core::option::Option<HeaderLocation>::Some"* %5 to %HeaderLocation*, !dbg !1062
; call core::ptr::drop_in_place<build_script_build::HeaderLocation>
  call void @"_ZN4core3ptr55drop_in_place$LT$build_script_build..HeaderLocation$GT$17hf6ab47ddca57b34cE"(%HeaderLocation* %6), !dbg !1062
  br label %bb1, !dbg !1062
}

; core::ptr::drop_in_place<std::rt::lang_start<()>::{{closure}}>
; Function Attrs: inlinehint nonlazybind uwtable
define internal void @"_ZN4core3ptr85drop_in_place$LT$std..rt..lang_start$LT$$LP$$RP$$GT$..$u7b$$u7b$closure$u7d$$u7d$$GT$17h37fe9c25e96e23a8E"(i64** %_1) unnamed_addr #0 !dbg !1064 {
start:
  %_1.dbg.spill = alloca i64**, align 8
  store i64** %_1, i64*** %_1.dbg.spill, align 8
  call void @llvm.dbg.declare(metadata i64*** %_1.dbg.spill, metadata !1068, metadata !DIExpression()), !dbg !1071
  ret void, !dbg !1071
}

; core::ptr::drop_in_place<core::result::Result<pkg_config::Library,pkg_config::Error>>
; Function Attrs: nonlazybind uwtable
define internal void @"_ZN4core3ptr88drop_in_place$LT$core..result..Result$LT$pkg_config..Library$C$pkg_config..Error$GT$$GT$17hd2ec87a67d229e31E"(%"core::result::Result<pkg_config::Library, pkg_config::Error>"* %_1) unnamed_addr #2 !dbg !1072 {
start:
  %_1.dbg.spill = alloca %"core::result::Result<pkg_config::Library, pkg_config::Error>"*, align 8
  store %"core::result::Result<pkg_config::Library, pkg_config::Error>"* %_1, %"core::result::Result<pkg_config::Library, pkg_config::Error>"** %_1.dbg.spill, align 8
  call void @llvm.dbg.declare(metadata %"core::result::Result<pkg_config::Library, pkg_config::Error>"** %_1.dbg.spill, metadata !1220, metadata !DIExpression()), !dbg !1223
  %0 = bitcast %"core::result::Result<pkg_config::Library, pkg_config::Error>"* %_1 to i64*, !dbg !1223
  %_2 = load i64, i64* %0, align 8, !dbg !1223, !range !1042, !noundef !23
  %1 = icmp eq i64 %_2, 0, !dbg !1223
  br i1 %1, label %bb2, label %bb3, !dbg !1223

bb2:                                              ; preds = %start
  %2 = bitcast %"core::result::Result<pkg_config::Library, pkg_config::Error>"* %_1 to %"core::result::Result<pkg_config::Library, pkg_config::Error>::Ok"*, !dbg !1223
  %3 = getelementptr inbounds %"core::result::Result<pkg_config::Library, pkg_config::Error>::Ok", %"core::result::Result<pkg_config::Library, pkg_config::Error>::Ok"* %2, i32 0, i32 1, !dbg !1223
; call core::ptr::drop_in_place<pkg_config::Library>
  call void @"_ZN4core3ptr40drop_in_place$LT$pkg_config..Library$GT$17h706776d7925ad5b1E"(%"pkg_config::Library"* %3), !dbg !1223
  br label %bb1, !dbg !1223

bb3:                                              ; preds = %start
  %4 = bitcast %"core::result::Result<pkg_config::Library, pkg_config::Error>"* %_1 to %"core::result::Result<pkg_config::Library, pkg_config::Error>::Err"*, !dbg !1223
  %5 = getelementptr inbounds %"core::result::Result<pkg_config::Library, pkg_config::Error>::Err", %"core::result::Result<pkg_config::Library, pkg_config::Error>::Err"* %4, i32 0, i32 1, !dbg !1223
; call core::ptr::drop_in_place<pkg_config::Error>
  call void @"_ZN4core3ptr38drop_in_place$LT$pkg_config..Error$GT$17h9e86dbb802249a25E"(%"pkg_config::Error"* %5), !dbg !1223
  br label %bb1, !dbg !1223

bb1:                                              ; preds = %bb2, %bb3
  ret void, !dbg !1223
}

; core::str::traits::<impl core::cmp::PartialEq for str>::eq
; Function Attrs: inlinehint nonlazybind uwtable
define internal zeroext i1 @"_ZN4core3str6traits54_$LT$impl$u20$core..cmp..PartialEq$u20$for$u20$str$GT$2eq17h4a1da18e5c498f00E"([0 x i8]* align 1 %self.0, i64 %self.1, [0 x i8]* align 1 %other.0, i64 %other.1) unnamed_addr #0 !dbg !1224 {
start:
  %other.dbg.spill4 = alloca { [0 x i8]*, i64 }*, align 8
  %self.dbg.spill3 = alloca { [0 x i8]*, i64 }, align 8
  %self.dbg.spill2 = alloca { [0 x i8]*, i64 }*, align 8
  %self.dbg.spill1 = alloca { [0 x i8]*, i64 }, align 8
  %other.dbg.spill = alloca { [0 x i8]*, i64 }, align 8
  %self.dbg.spill = alloca { [0 x i8]*, i64 }, align 8
  %_7 = alloca { [0 x i8]*, i64 }, align 8
  %_4 = alloca { [0 x i8]*, i64 }, align 8
  %0 = getelementptr inbounds { [0 x i8]*, i64 }, { [0 x i8]*, i64 }* %self.dbg.spill, i32 0, i32 0
  store [0 x i8]* %self.0, [0 x i8]** %0, align 8
  %1 = getelementptr inbounds { [0 x i8]*, i64 }, { [0 x i8]*, i64 }* %self.dbg.spill, i32 0, i32 1
  store i64 %self.1, i64* %1, align 8
  call void @llvm.dbg.declare(metadata { [0 x i8]*, i64 }* %self.dbg.spill, metadata !1231, metadata !DIExpression()), !dbg !1233
  %2 = getelementptr inbounds { [0 x i8]*, i64 }, { [0 x i8]*, i64 }* %other.dbg.spill, i32 0, i32 0
  store [0 x i8]* %other.0, [0 x i8]** %2, align 8
  %3 = getelementptr inbounds { [0 x i8]*, i64 }, { [0 x i8]*, i64 }* %other.dbg.spill, i32 0, i32 1
  store i64 %other.1, i64* %3, align 8
  call void @llvm.dbg.declare(metadata { [0 x i8]*, i64 }* %other.dbg.spill, metadata !1232, metadata !DIExpression()), !dbg !1234
  %4 = getelementptr inbounds { [0 x i8]*, i64 }, { [0 x i8]*, i64 }* %self.dbg.spill1, i32 0, i32 0, !dbg !1235
  store [0 x i8]* %self.0, [0 x i8]** %4, align 8, !dbg !1235
  %5 = getelementptr inbounds { [0 x i8]*, i64 }, { [0 x i8]*, i64 }* %self.dbg.spill1, i32 0, i32 1, !dbg !1235
  store i64 %self.1, i64* %5, align 8, !dbg !1235
  call void @llvm.dbg.declare(metadata { [0 x i8]*, i64 }* %self.dbg.spill1, metadata !1236, metadata !DIExpression()), !dbg !1240
  %6 = getelementptr inbounds { [0 x i8]*, i64 }, { [0 x i8]*, i64 }* %_4, i32 0, i32 0, !dbg !1240
  store [0 x i8]* %self.0, [0 x i8]** %6, align 8, !dbg !1240
  %7 = getelementptr inbounds { [0 x i8]*, i64 }, { [0 x i8]*, i64 }* %_4, i32 0, i32 1, !dbg !1240
  store i64 %self.1, i64* %7, align 8, !dbg !1240
  br label %bb1, !dbg !1240

bb1:                                              ; preds = %start
  store { [0 x i8]*, i64 }* %_4, { [0 x i8]*, i64 }** %self.dbg.spill2, align 8, !dbg !1235
  call void @llvm.dbg.declare(metadata { [0 x i8]*, i64 }** %self.dbg.spill2, metadata !1241, metadata !DIExpression()), !dbg !1251
  %8 = getelementptr inbounds { [0 x i8]*, i64 }, { [0 x i8]*, i64 }* %self.dbg.spill3, i32 0, i32 0, !dbg !1252
  store [0 x i8]* %other.0, [0 x i8]** %8, align 8, !dbg !1252
  %9 = getelementptr inbounds { [0 x i8]*, i64 }, { [0 x i8]*, i64 }* %self.dbg.spill3, i32 0, i32 1, !dbg !1252
  store i64 %other.1, i64* %9, align 8, !dbg !1252
  call void @llvm.dbg.declare(metadata { [0 x i8]*, i64 }* %self.dbg.spill3, metadata !1253, metadata !DIExpression()), !dbg !1257
  %10 = getelementptr inbounds { [0 x i8]*, i64 }, { [0 x i8]*, i64 }* %_7, i32 0, i32 0, !dbg !1257
  store [0 x i8]* %other.0, [0 x i8]** %10, align 8, !dbg !1257
  %11 = getelementptr inbounds { [0 x i8]*, i64 }, { [0 x i8]*, i64 }* %_7, i32 0, i32 1, !dbg !1257
  store i64 %other.1, i64* %11, align 8, !dbg !1257
  br label %bb2, !dbg !1257

bb2:                                              ; preds = %bb1
  store { [0 x i8]*, i64 }* %_7, { [0 x i8]*, i64 }** %other.dbg.spill4, align 8, !dbg !1252
  call void @llvm.dbg.declare(metadata { [0 x i8]*, i64 }** %other.dbg.spill4, metadata !1248, metadata !DIExpression()), !dbg !1251
  %12 = getelementptr inbounds { [0 x i8]*, i64 }, { [0 x i8]*, i64 }* %_4, i32 0, i32 0, !dbg !1251
  %_13.0 = load [0 x i8]*, [0 x i8]** %12, align 8, !dbg !1251, !nonnull !23, !align !317, !noundef !23
  %13 = getelementptr inbounds { [0 x i8]*, i64 }, { [0 x i8]*, i64 }* %_4, i32 0, i32 1, !dbg !1251
  %_13.1 = load i64, i64* %13, align 8, !dbg !1251
  %14 = getelementptr inbounds { [0 x i8]*, i64 }, { [0 x i8]*, i64 }* %_7, i32 0, i32 0, !dbg !1251
  %_14.0 = load [0 x i8]*, [0 x i8]** %14, align 8, !dbg !1251, !nonnull !23, !align !317, !noundef !23
  %15 = getelementptr inbounds { [0 x i8]*, i64 }, { [0 x i8]*, i64 }* %_7, i32 0, i32 1, !dbg !1251
  %_14.1 = load i64, i64* %15, align 8, !dbg !1251
; call core::slice::cmp::<impl core::cmp::PartialEq<[B]> for [A]>::eq
  %16 = call zeroext i1 @"_ZN4core5slice3cmp81_$LT$impl$u20$core..cmp..PartialEq$LT$$u5b$B$u5d$$GT$$u20$for$u20$$u5b$A$u5d$$GT$2eq17h21eeb8f65acaea2dE"([0 x i8]* align 1 %_13.0, i64 %_13.1, [0 x i8]* align 1 %_14.0, i64 %_14.1), !dbg !1251
  br label %bb3, !dbg !1251

bb3:                                              ; preds = %bb2
  ret i1 %16, !dbg !1258
}

; core::slice::<impl [T]>::len
; Function Attrs: inlinehint nonlazybind uwtable
define internal i64 @"_ZN4core5slice29_$LT$impl$u20$$u5b$T$u5d$$GT$3len17hdfb4463878774316E"([0 x { [0 x i8]*, i64 }]* align 8 %self.0, i64 %self.1) unnamed_addr #0 !dbg !1259 {
start:
  %self.dbg.spill = alloca { [0 x { [0 x i8]*, i64 }]*, i64 }, align 8
  %_2 = alloca %"core::ptr::metadata::PtrRepr<[&str]>", align 8
  %0 = getelementptr inbounds { [0 x { [0 x i8]*, i64 }]*, i64 }, { [0 x { [0 x i8]*, i64 }]*, i64 }* %self.dbg.spill, i32 0, i32 0
  store [0 x { [0 x i8]*, i64 }]* %self.0, [0 x { [0 x i8]*, i64 }]** %0, align 8
  %1 = getelementptr inbounds { [0 x { [0 x i8]*, i64 }]*, i64 }, { [0 x { [0 x i8]*, i64 }]*, i64 }* %self.dbg.spill, i32 0, i32 1
  store i64 %self.1, i64* %1, align 8
  call void @llvm.dbg.declare(metadata { [0 x { [0 x i8]*, i64 }]*, i64 }* %self.dbg.spill, metadata !1265, metadata !DIExpression()), !dbg !1266
  %2 = bitcast %"core::ptr::metadata::PtrRepr<[&str]>"* %_2 to { [0 x { [0 x i8]*, i64 }]*, i64 }*, !dbg !1267, !rawptr !230
  %3 = getelementptr inbounds { [0 x { [0 x i8]*, i64 }]*, i64 }, { [0 x { [0 x i8]*, i64 }]*, i64 }* %2, i32 0, i32 0, !dbg !1267
  store [0 x { [0 x i8]*, i64 }]* %self.0, [0 x { [0 x i8]*, i64 }]** %3, align 8, !dbg !1267
  %4 = getelementptr inbounds { [0 x { [0 x i8]*, i64 }]*, i64 }, { [0 x { [0 x i8]*, i64 }]*, i64 }* %2, i32 0, i32 1, !dbg !1267
  store i64 %self.1, i64* %4, align 8, !dbg !1267
  %5 = bitcast %"core::ptr::metadata::PtrRepr<[&str]>"* %_2 to { i8*, i64 }*, !dbg !1267
  %6 = getelementptr inbounds { i8*, i64 }, { i8*, i64 }* %5, i32 0, i32 1, !dbg !1267
  %7 = load i64, i64* %6, align 8, !dbg !1267
  ret i64 %7, !dbg !1268
}

; core::result::Result<T,E>::expect
; Function Attrs: inlinehint nonlazybind uwtable
define internal i64 @"_ZN4core6result19Result$LT$T$C$E$GT$6expect17h8be06b189feadf38E"(%"core::result::Result<u64, std::io::error::Error>"* %self, [0 x i8]* align 1 %msg.0, i64 %msg.1, %"core::panic::location::Location"* align 8 %0) unnamed_addr #0 personality i32 (i32, i32, i64, %"unwind::libunwind::_Unwind_Exception"*, %"unwind::libunwind::_Unwind_Context"*)* @rust_eh_personality !dbg !1269 {
start:
  %t.dbg.spill = alloca i64, align 8
  %1 = alloca { i8*, i32 }, align 8
  %msg.dbg.spill = alloca { [0 x i8]*, i64 }, align 8
  %e = alloca i8*, align 8
  call void @llvm.dbg.declare(metadata %"core::result::Result<u64, std::io::error::Error>"* %self, metadata !1274, metadata !DIExpression()), !dbg !1280
  %2 = getelementptr inbounds { [0 x i8]*, i64 }, { [0 x i8]*, i64 }* %msg.dbg.spill, i32 0, i32 0
  store [0 x i8]* %msg.0, [0 x i8]** %2, align 8
  %3 = getelementptr inbounds { [0 x i8]*, i64 }, { [0 x i8]*, i64 }* %msg.dbg.spill, i32 0, i32 1
  store i64 %msg.1, i64* %3, align 8
  call void @llvm.dbg.declare(metadata { [0 x i8]*, i64 }* %msg.dbg.spill, metadata !1275, metadata !DIExpression()), !dbg !1281
  call void @llvm.dbg.declare(metadata i8** %e, metadata !1278, metadata !DIExpression()), !dbg !1282
  %4 = bitcast %"core::result::Result<u64, std::io::error::Error>"* %self to i64*, !dbg !1283
  %_3 = load i64, i64* %4, align 8, !dbg !1283, !range !1042, !noundef !23
  switch i64 %_3, label %bb2 [
    i64 0, label %bb3
    i64 1, label %bb1
  ], !dbg !1284

bb2:                                              ; preds = %start
  unreachable, !dbg !1283

bb3:                                              ; preds = %start
  %5 = bitcast %"core::result::Result<u64, std::io::error::Error>"* %self to %"core::result::Result<u64, std::io::error::Error>::Ok"*, !dbg !1285
  %6 = getelementptr inbounds %"core::result::Result<u64, std::io::error::Error>::Ok", %"core::result::Result<u64, std::io::error::Error>::Ok"* %5, i32 0, i32 1, !dbg !1285
  %t = load i64, i64* %6, align 8, !dbg !1285
  store i64 %t, i64* %t.dbg.spill, align 8, !dbg !1285
  call void @llvm.dbg.declare(metadata i64* %t.dbg.spill, metadata !1276, metadata !DIExpression()), !dbg !1286
  ret i64 %t, !dbg !1287

bb1:                                              ; preds = %start
  %7 = bitcast %"core::result::Result<u64, std::io::error::Error>"* %self to %"core::result::Result<u64, std::io::error::Error>::Err"*, !dbg !1288
  %8 = getelementptr inbounds %"core::result::Result<u64, std::io::error::Error>::Err", %"core::result::Result<u64, std::io::error::Error>::Err"* %7, i32 0, i32 1, !dbg !1288
  %9 = load i8*, i8** %8, align 8, !dbg !1288, !nonnull !23, !noundef !23
  store i8* %9, i8** %e, align 8, !dbg !1288
  %_7.0 = bitcast i8** %e to {}*, !dbg !1289
; invoke core::result::unwrap_failed
  invoke void @_ZN4core6result13unwrap_failed17hbc1b0f0ed789a094E([0 x i8]* align 1 %msg.0, i64 %msg.1, {}* align 1 %_7.0, [3 x i64]* align 8 bitcast (<{ i8*, [16 x i8], i8* }>* @vtable.1 to [3 x i64]*), %"core::panic::location::Location"* align 8 %0) #11
          to label %unreachable unwind label %cleanup, !dbg !1290

bb4:                                              ; preds = %cleanup
; invoke core::ptr::drop_in_place<std::io::error::Error>
  invoke void @"_ZN4core3ptr42drop_in_place$LT$std..io..error..Error$GT$17ha3a46ae64291d79dE"(i8** %e) #9
          to label %bb5 unwind label %abort, !dbg !1291

cleanup:                                          ; preds = %bb1
  %10 = landingpad { i8*, i32 }
          cleanup
  %11 = extractvalue { i8*, i32 } %10, 0
  %12 = extractvalue { i8*, i32 } %10, 1
  %13 = getelementptr inbounds { i8*, i32 }, { i8*, i32 }* %1, i32 0, i32 0
  store i8* %11, i8** %13, align 8
  %14 = getelementptr inbounds { i8*, i32 }, { i8*, i32 }* %1, i32 0, i32 1
  store i32 %12, i32* %14, align 8
  br label %bb4

unreachable:                                      ; preds = %bb1
  unreachable

abort:                                            ; preds = %bb4
  %15 = landingpad { i8*, i32 }
          cleanup, !dbg !1292
; call core::panicking::panic_no_unwind
  call void @_ZN4core9panicking15panic_no_unwind17h57180e694165966aE() #10, !dbg !1292
  unreachable, !dbg !1292

bb5:                                              ; preds = %bb4
  %16 = bitcast { i8*, i32 }* %1 to i8**, !dbg !1292
  %17 = load i8*, i8** %16, align 8, !dbg !1292
  %18 = getelementptr inbounds { i8*, i32 }, { i8*, i32 }* %1, i32 0, i32 1, !dbg !1292
  %19 = load i32, i32* %18, align 8, !dbg !1292
  %20 = insertvalue { i8*, i32 } undef, i8* %17, 0, !dbg !1292
  %21 = insertvalue { i8*, i32 } %20, i32 %19, 1, !dbg !1292
  resume { i8*, i32 } %21, !dbg !1292
}

; core::result::Result<T,E>::is_err
; Function Attrs: inlinehint nonlazybind uwtable
define internal zeroext i1 @"_ZN4core6result19Result$LT$T$C$E$GT$6is_err17h4480861a67271e91E"(%"core::result::Result<pkg_config::Library, pkg_config::Error>"* align 8 %self) unnamed_addr #0 !dbg !1293 {
start:
  %self.dbg.spill1 = alloca %"core::result::Result<pkg_config::Library, pkg_config::Error>"*, align 8
  %self.dbg.spill = alloca %"core::result::Result<pkg_config::Library, pkg_config::Error>"*, align 8
  %_2 = alloca i8, align 1
  store %"core::result::Result<pkg_config::Library, pkg_config::Error>"* %self, %"core::result::Result<pkg_config::Library, pkg_config::Error>"** %self.dbg.spill, align 8
  call void @llvm.dbg.declare(metadata %"core::result::Result<pkg_config::Library, pkg_config::Error>"** %self.dbg.spill, metadata !1298, metadata !DIExpression()), !dbg !1299
  store %"core::result::Result<pkg_config::Library, pkg_config::Error>"* %self, %"core::result::Result<pkg_config::Library, pkg_config::Error>"** %self.dbg.spill1, align 8, !dbg !1300
  call void @llvm.dbg.declare(metadata %"core::result::Result<pkg_config::Library, pkg_config::Error>"** %self.dbg.spill1, metadata !1301, metadata !DIExpression()), !dbg !1304
  %0 = bitcast %"core::result::Result<pkg_config::Library, pkg_config::Error>"* %self to i64*, !dbg !1304
  %_4 = load i64, i64* %0, align 8, !dbg !1304, !range !1042, !noundef !23
  %1 = icmp eq i64 %_4, 0, !dbg !1304
  br i1 %1, label %bb3, label %bb2, !dbg !1304

bb3:                                              ; preds = %start
  store i8 1, i8* %_2, align 1, !dbg !1304
  br label %bb1, !dbg !1304

bb2:                                              ; preds = %start
  store i8 0, i8* %_2, align 1, !dbg !1304
  br label %bb1, !dbg !1304

bb1:                                              ; preds = %bb3, %bb2
  %2 = load i8, i8* %_2, align 1, !dbg !1305, !range !878, !noundef !23
  %3 = trunc i8 %2 to i1, !dbg !1305
  %4 = xor i1 %3, true, !dbg !1305
  ret i1 %4, !dbg !1306
}

; core::result::Result<T,E>::map_or
; Function Attrs: inlinehint nonlazybind uwtable
define internal zeroext i1 @"_ZN4core6result19Result$LT$T$C$E$GT$6map_or17h1e7fd28bb5439895E"(%"core::result::Result<alloc::string::String, std::env::VarError>"* %self, i1 zeroext %default, i64* align 8 %f) unnamed_addr #0 personality i32 (i32, i32, i64, %"unwind::libunwind::_Unwind_Exception"*, %"unwind::libunwind::_Unwind_Context"*)* @rust_eh_personality !dbg !1307 {
start:
  %0 = alloca { i8*, i32 }, align 8
  %f.dbg.spill = alloca i64*, align 8
  %default.dbg.spill = alloca i8, align 1
  %_10 = alloca i8, align 1
  %_9 = alloca i8, align 1
  %_8 = alloca %"alloc::string::String", align 8
  %_7 = alloca { %"alloc::string::String" }, align 8
  %t = alloca %"alloc::string::String", align 8
  %1 = alloca i8, align 1
  call void @llvm.dbg.declare(metadata %"core::result::Result<alloc::string::String, std::env::VarError>"* %self, metadata !1315, metadata !DIExpression()), !dbg !1323
  %2 = zext i1 %default to i8
  store i8 %2, i8* %default.dbg.spill, align 1
  call void @llvm.dbg.declare(metadata i8* %default.dbg.spill, metadata !1316, metadata !DIExpression()), !dbg !1324
  store i64* %f, i64** %f.dbg.spill, align 8
  call void @llvm.dbg.declare(metadata i64** %f.dbg.spill, metadata !1317, metadata !DIExpression()), !dbg !1325
  call void @llvm.dbg.declare(metadata %"alloc::string::String"* %t, metadata !1318, metadata !DIExpression()), !dbg !1326
  store i8 1, i8* %_10, align 1, !dbg !1327
  store i8 1, i8* %_9, align 1, !dbg !1327
  %3 = bitcast %"core::result::Result<alloc::string::String, std::env::VarError>"* %self to i64*, !dbg !1327
  %_4 = load i64, i64* %3, align 8, !dbg !1327, !range !1042, !noundef !23
  switch i64 %_4, label %bb2 [
    i64 0, label %bb3
    i64 1, label %bb1
  ], !dbg !1328

bb2:                                              ; preds = %start
  unreachable, !dbg !1327

bb3:                                              ; preds = %start
  %4 = bitcast %"core::result::Result<alloc::string::String, std::env::VarError>"* %self to %"core::result::Result<alloc::string::String, std::env::VarError>::Ok"*, !dbg !1329
  %5 = getelementptr inbounds %"core::result::Result<alloc::string::String, std::env::VarError>::Ok", %"core::result::Result<alloc::string::String, std::env::VarError>::Ok"* %4, i32 0, i32 1, !dbg !1329
  %6 = bitcast %"alloc::string::String"* %t to i8*, !dbg !1329
  %7 = bitcast %"alloc::string::String"* %5 to i8*, !dbg !1329
  call void @llvm.memcpy.p0i8.p0i8.i64(i8* align 8 %6, i8* align 8 %7, i64 24, i1 false), !dbg !1329
  store i8 0, i8* %_9, align 1, !dbg !1330
  %8 = bitcast %"alloc::string::String"* %_8 to i8*, !dbg !1331
  %9 = bitcast %"alloc::string::String"* %t to i8*, !dbg !1331
  call void @llvm.memcpy.p0i8.p0i8.i64(i8* align 8 %8, i8* align 8 %9, i64 24, i1 false), !dbg !1331
  %10 = bitcast { %"alloc::string::String" }* %_7 to %"alloc::string::String"*, !dbg !1330
  %11 = bitcast %"alloc::string::String"* %10 to i8*, !dbg !1330
  %12 = bitcast %"alloc::string::String"* %_8 to i8*, !dbg !1330
  call void @llvm.memcpy.p0i8.p0i8.i64(i8* align 8 %11, i8* align 8 %12, i64 24, i1 false), !dbg !1330
  %13 = bitcast { %"alloc::string::String" }* %_7 to %"alloc::string::String"*, !dbg !1330
; invoke build_script_build::is_compiler::{{closure}}
  %14 = invoke zeroext i1 @"_ZN18build_script_build11is_compiler28_$u7b$$u7b$closure$u7d$$u7d$17h2f63c856a6dff87aE"(i64* align 8 %f, %"alloc::string::String"* %13)
          to label %bb4 unwind label %cleanup, !dbg !1330

bb1:                                              ; preds = %start
  store i8 0, i8* %_10, align 1, !dbg !1332
  %15 = zext i1 %default to i8, !dbg !1332
  store i8 %15, i8* %1, align 1, !dbg !1332
  br label %bb10, !dbg !1332

bb10:                                             ; preds = %bb4, %bb1
  %16 = load i8, i8* %_9, align 1, !dbg !1333, !range !878, !noundef !23
  %17 = trunc i8 %16 to i1, !dbg !1333
  br i1 %17, label %bb9, label %bb5, !dbg !1333

bb15:                                             ; preds = %cleanup
  %18 = load i8, i8* %_10, align 1, !dbg !1333, !range !878, !noundef !23
  %19 = trunc i8 %18 to i1, !dbg !1333
  br i1 %19, label %bb14, label %bb7, !dbg !1333

cleanup:                                          ; preds = %bb3
  %20 = landingpad { i8*, i32 }
          cleanup
  %21 = extractvalue { i8*, i32 } %20, 0
  %22 = extractvalue { i8*, i32 } %20, 1
  %23 = getelementptr inbounds { i8*, i32 }, { i8*, i32 }* %0, i32 0, i32 0
  store i8* %21, i8** %23, align 8
  %24 = getelementptr inbounds { i8*, i32 }, { i8*, i32 }* %0, i32 0, i32 1
  store i32 %22, i32* %24, align 8
  br label %bb15

bb4:                                              ; preds = %bb3
  %25 = zext i1 %14 to i8, !dbg !1330
  store i8 %25, i8* %1, align 1, !dbg !1330
  br label %bb10, !dbg !1334

bb5:                                              ; preds = %bb9, %bb10
  %26 = load i8, i8* %_10, align 1, !dbg !1333, !range !878, !noundef !23
  %27 = trunc i8 %26 to i1, !dbg !1333
  br i1 %27, label %bb11, label %bb6, !dbg !1333

bb9:                                              ; preds = %bb10
  br label %bb5, !dbg !1333

bb7:                                              ; preds = %bb14, %bb15
  %28 = bitcast %"core::result::Result<alloc::string::String, std::env::VarError>"* %self to i64*, !dbg !1333
  %_12 = load i64, i64* %28, align 8, !dbg !1333, !range !1042, !noundef !23
  %29 = icmp eq i64 %_12, 0, !dbg !1333
  br i1 %29, label %bb8, label %bb16, !dbg !1333

bb14:                                             ; preds = %bb15
  br label %bb7, !dbg !1333

bb6:                                              ; preds = %bb11, %bb5
  %30 = bitcast %"core::result::Result<alloc::string::String, std::env::VarError>"* %self to i64*, !dbg !1333
  %_11 = load i64, i64* %30, align 8, !dbg !1333, !range !1042, !noundef !23
  %31 = icmp eq i64 %_11, 0, !dbg !1333
  br i1 %31, label %bb12, label %bb13, !dbg !1333

bb11:                                             ; preds = %bb5
  br label %bb6, !dbg !1333

bb8:                                              ; preds = %bb16, %bb7
  %32 = bitcast { i8*, i32 }* %0 to i8**, !dbg !1335
  %33 = load i8*, i8** %32, align 8, !dbg !1335
  %34 = getelementptr inbounds { i8*, i32 }, { i8*, i32 }* %0, i32 0, i32 1, !dbg !1335
  %35 = load i32, i32* %34, align 8, !dbg !1335
  %36 = insertvalue { i8*, i32 } undef, i8* %33, 0, !dbg !1335
  %37 = insertvalue { i8*, i32 } %36, i32 %35, 1, !dbg !1335
  resume { i8*, i32 } %37, !dbg !1335

bb16:                                             ; preds = %bb7
; invoke core::ptr::drop_in_place<core::result::Result<alloc::string::String,std::env::VarError>>
  invoke void @"_ZN4core3ptr91drop_in_place$LT$core..result..Result$LT$alloc..string..String$C$std..env..VarError$GT$$GT$17h480226cd1955d9bcE"(%"core::result::Result<alloc::string::String, std::env::VarError>"* %self) #9
          to label %bb8 unwind label %abort, !dbg !1333

abort:                                            ; preds = %bb16
  %38 = landingpad { i8*, i32 }
          cleanup, !dbg !1335
; call core::panicking::panic_no_unwind
  call void @_ZN4core9panicking15panic_no_unwind17h57180e694165966aE() #10, !dbg !1335
  unreachable, !dbg !1335

bb12:                                             ; preds = %bb13, %bb6
  %39 = load i8, i8* %1, align 1, !dbg !1336, !range !878, !noundef !23
  %40 = trunc i8 %39 to i1, !dbg !1336
  ret i1 %40, !dbg !1336

bb13:                                             ; preds = %bb6
; call core::ptr::drop_in_place<core::result::Result<alloc::string::String,std::env::VarError>>
  call void @"_ZN4core3ptr91drop_in_place$LT$core..result..Result$LT$alloc..string..String$C$std..env..VarError$GT$$GT$17h480226cd1955d9bcE"(%"core::result::Result<alloc::string::String, std::env::VarError>"* %self), !dbg !1333
  br label %bb12, !dbg !1333
}

; <T as core::convert::Into<U>>::into
; Function Attrs: nonlazybind uwtable
define internal void @"_ZN50_$LT$T$u20$as$u20$core..convert..Into$LT$U$GT$$GT$4into17hede75ea6862c3e84E"(%"alloc::string::String"* sret(%"alloc::string::String") %0, %"alloc::borrow::Cow<str>"* %self) unnamed_addr #2 !dbg !1337 {
start:
  %_2 = alloca %"alloc::borrow::Cow<str>", align 8
  call void @llvm.dbg.declare(metadata %"alloc::borrow::Cow<str>"* %self, metadata !1344, metadata !DIExpression()), !dbg !1348
  %1 = bitcast %"alloc::borrow::Cow<str>"* %_2 to i8*, !dbg !1349
  %2 = bitcast %"alloc::borrow::Cow<str>"* %self to i8*, !dbg !1349
  call void @llvm.memcpy.p0i8.p0i8.i64(i8* align 8 %1, i8* align 8 %2, i64 32, i1 false), !dbg !1349
; call <alloc::string::String as core::convert::From<alloc::borrow::Cow<str>>>::from
  call void @"_ZN98_$LT$alloc..string..String$u20$as$u20$core..convert..From$LT$alloc..borrow..Cow$LT$str$GT$$GT$$GT$4from17h18c3a4addf5ac0b3E"(%"alloc::string::String"* sret(%"alloc::string::String") %0, %"alloc::borrow::Cow<str>"* %_2), !dbg !1350
  br label %bb1, !dbg !1350

bb1:                                              ; preds = %start
  ret void, !dbg !1351
}

; <() as std::process::Termination>::report
; Function Attrs: inlinehint nonlazybind uwtable
define internal i8 @"_ZN54_$LT$$LP$$RP$$u20$as$u20$std..process..Termination$GT$6report17ha1c9df651a7539f5E"() unnamed_addr #0 !dbg !1352 {
start:
  %self.dbg.spill = alloca {}, align 1
  call void @llvm.dbg.declare(metadata {}* %self.dbg.spill, metadata !1357, metadata !DIExpression()), !dbg !1358
  ret i8 0, !dbg !1359
}

; alloc::fmt::format
; Function Attrs: inlinehint nonlazybind uwtable
define internal void @_ZN5alloc3fmt6format17h58aea2751f418eeaE(%"alloc::string::String"* sret(%"alloc::string::String") %0, %"core::fmt::Arguments"* %args) unnamed_addr #0 !dbg !1360 {
start:
  %_4 = alloca i64*, align 8
  call void @llvm.dbg.declare(metadata %"core::fmt::Arguments"* %args, metadata !1366, metadata !DIExpression()), !dbg !1367
; call core::fmt::Arguments::as_str
  %1 = call { i8*, i64 } @_ZN4core3fmt9Arguments6as_str17h86765fb2d3e53c0bE(%"core::fmt::Arguments"* align 8 %args), !dbg !1368
  %_2.0 = extractvalue { i8*, i64 } %1, 0, !dbg !1368
  %_2.1 = extractvalue { i8*, i64 } %1, 1, !dbg !1368
  br label %bb1, !dbg !1368

bb1:                                              ; preds = %start
  %2 = bitcast i64** %_4 to %"core::fmt::Arguments"**, !dbg !1369
  store %"core::fmt::Arguments"* %args, %"core::fmt::Arguments"** %2, align 8, !dbg !1369
  %3 = load i64*, i64** %_4, align 8, !dbg !1368, !nonnull !23, !align !448, !noundef !23
; call core::option::Option<T>::map_or_else
  call void @"_ZN4core6option15Option$LT$T$GT$11map_or_else17hbd62fa010b88c1c2E"(%"alloc::string::String"* sret(%"alloc::string::String") %0, i8* align 1 %_2.0, i64 %_2.1, i64* align 8 %3), !dbg !1368
  br label %bb2, !dbg !1368

bb2:                                              ; preds = %bb1
  ret void, !dbg !1370
}

; alloc::vec::Vec<T,A>::pop
; Function Attrs: inlinehint nonlazybind uwtable
define internal void @"_ZN5alloc3vec16Vec$LT$T$C$A$GT$3pop17h1697dfea2eb8994eE"(%"core::option::Option<std::path::PathBuf>"* sret(%"core::option::Option<std::path::PathBuf>") %0, %"alloc::vec::Vec<std::path::PathBuf>"* align 8 %self) unnamed_addr #0 !dbg !1371 {
start:
  %self.dbg.spill7 = alloca %"core::mem::maybe_uninit::MaybeUninit<std::path::PathBuf>"*, align 8
  %src.dbg.spill = alloca %"std::path::PathBuf"*, align 8
  %1 = alloca %"std::path::PathBuf"*, align 8
  %count.dbg.spill6 = alloca i64, align 8
  %self.dbg.spill5 = alloca %"std::path::PathBuf"*, align 8
  %count.dbg.spill = alloca i64, align 8
  %self.dbg.spill4 = alloca %"alloc::vec::Vec<std::path::PathBuf>"*, align 8
  %self.dbg.spill3 = alloca %"std::path::PathBuf"*, align 8
  %self.dbg.spill = alloca %"alloc::vec::Vec<std::path::PathBuf>"*, align 8
  %slot = alloca %"core::mem::manually_drop::ManuallyDrop<std::path::PathBuf>", align 8
  %self1 = alloca %"core::mem::maybe_uninit::MaybeUninit<std::path::PathBuf>", align 8
  %tmp = alloca %"core::mem::maybe_uninit::MaybeUninit<std::path::PathBuf>", align 8, !rawptr !230
  %_3 = alloca %"std::path::PathBuf", align 8
  store %"alloc::vec::Vec<std::path::PathBuf>"* %self, %"alloc::vec::Vec<std::path::PathBuf>"** %self.dbg.spill, align 8
  call void @llvm.dbg.declare(metadata %"alloc::vec::Vec<std::path::PathBuf>"** %self.dbg.spill, metadata !1387, metadata !DIExpression()), !dbg !1388
  call void @llvm.dbg.declare(metadata %"core::mem::maybe_uninit::MaybeUninit<std::path::PathBuf>"* %tmp, metadata !1389, metadata !DIExpression()), !dbg !1408
  call void @llvm.dbg.declare(metadata %"core::mem::maybe_uninit::MaybeUninit<std::path::PathBuf>"* %self1, metadata !1410, metadata !DIExpression()), !dbg !1417
  call void @llvm.dbg.declare(metadata %"core::mem::manually_drop::ManuallyDrop<std::path::PathBuf>"* %slot, metadata !1419, metadata !DIExpression()), !dbg !1426
  %2 = getelementptr inbounds %"alloc::vec::Vec<std::path::PathBuf>", %"alloc::vec::Vec<std::path::PathBuf>"* %self, i32 0, i32 1, !dbg !1428
  %_2 = load i64, i64* %2, align 8, !dbg !1428
  %3 = icmp eq i64 %_2, 0, !dbg !1428
  br i1 %3, label %bb1, label %bb2, !dbg !1428

bb1:                                              ; preds = %start
  %4 = bitcast %"core::option::Option<std::path::PathBuf>"* %0 to {}**, !dbg !1429
  store {}* null, {}** %4, align 8, !dbg !1429
  br label %bb4, !dbg !1430

bb2:                                              ; preds = %start
  %5 = getelementptr inbounds %"alloc::vec::Vec<std::path::PathBuf>", %"alloc::vec::Vec<std::path::PathBuf>"* %self, i32 0, i32 1, !dbg !1431
  %6 = getelementptr inbounds %"alloc::vec::Vec<std::path::PathBuf>", %"alloc::vec::Vec<std::path::PathBuf>"* %self, i32 0, i32 1, !dbg !1431
  %7 = load i64, i64* %6, align 8, !dbg !1431
  %8 = sub i64 %7, 1, !dbg !1431
  store i64 %8, i64* %5, align 8, !dbg !1431
; call alloc::vec::Vec<T,A>::as_ptr
  %self2 = call %"std::path::PathBuf"* @"_ZN5alloc3vec16Vec$LT$T$C$A$GT$6as_ptr17h0316062084c45416E"(%"alloc::vec::Vec<std::path::PathBuf>"* align 8 %self), !dbg !1432, !rawptr !230
  store %"std::path::PathBuf"* %self2, %"std::path::PathBuf"** %self.dbg.spill3, align 8, !dbg !1432
  call void @llvm.dbg.declare(metadata %"std::path::PathBuf"** %self.dbg.spill3, metadata !1433, metadata !DIExpression()), !dbg !1440
  br label %bb3, !dbg !1432

bb3:                                              ; preds = %bb2
  store %"alloc::vec::Vec<std::path::PathBuf>"* %self, %"alloc::vec::Vec<std::path::PathBuf>"** %self.dbg.spill4, align 8, !dbg !1441
  call void @llvm.dbg.declare(metadata %"alloc::vec::Vec<std::path::PathBuf>"** %self.dbg.spill4, metadata !1442, metadata !DIExpression()), !dbg !1448
  %9 = getelementptr inbounds %"alloc::vec::Vec<std::path::PathBuf>", %"alloc::vec::Vec<std::path::PathBuf>"* %self, i32 0, i32 1, !dbg !1448
  %count = load i64, i64* %9, align 8, !dbg !1448, !rawptr !230
  store i64 %count, i64* %count.dbg.spill, align 8, !dbg !1448
  call void @llvm.dbg.declare(metadata i64* %count.dbg.spill, metadata !1439, metadata !DIExpression()), !dbg !1440
  store %"std::path::PathBuf"* %self2, %"std::path::PathBuf"** %self.dbg.spill5, align 8, !dbg !1440
  call void @llvm.dbg.declare(metadata %"std::path::PathBuf"** %self.dbg.spill5, metadata !1449, metadata !DIExpression()), !dbg !1456
  store i64 %count, i64* %count.dbg.spill6, align 8, !dbg !1440
  call void @llvm.dbg.declare(metadata i64* %count.dbg.spill6, metadata !1455, metadata !DIExpression()), !dbg !1456
  %10 = getelementptr inbounds %"std::path::PathBuf", %"std::path::PathBuf"* %self2, i64 %count, !dbg !1456
  store %"std::path::PathBuf"* %10, %"std::path::PathBuf"** %1, align 8, !dbg !1456
  %src = load %"std::path::PathBuf"*, %"std::path::PathBuf"** %1, align 8, !dbg !1456, !rawptr !230
  store %"std::path::PathBuf"* %src, %"std::path::PathBuf"** %src.dbg.spill, align 8, !dbg !1456
  call void @llvm.dbg.declare(metadata %"std::path::PathBuf"** %src.dbg.spill, metadata !1396, metadata !DIExpression()), !dbg !1458
  br label %bb5, !dbg !1456

bb5:                                              ; preds = %bb3
  %11 = bitcast %"core::mem::maybe_uninit::MaybeUninit<std::path::PathBuf>"* %tmp to {}*, !dbg !1459
  store %"core::mem::maybe_uninit::MaybeUninit<std::path::PathBuf>"* %tmp, %"core::mem::maybe_uninit::MaybeUninit<std::path::PathBuf>"** %self.dbg.spill7, align 8, !dbg !1408
  call void @llvm.dbg.declare(metadata %"core::mem::maybe_uninit::MaybeUninit<std::path::PathBuf>"** %self.dbg.spill7, metadata !1465, metadata !DIExpression()), !dbg !1473
  %_16 = bitcast %"core::mem::maybe_uninit::MaybeUninit<std::path::PathBuf>"* %tmp to %"std::path::PathBuf"*, !dbg !1473, !rawptr !230
  %12 = bitcast %"std::path::PathBuf"* %_16 to i8*, !dbg !1408
  %13 = bitcast %"std::path::PathBuf"* %src to i8*, !dbg !1408
  call void @llvm.memcpy.p0i8.p0i8.i64(i8* align 8 %12, i8* align 8 %13, i64 24, i1 false), !dbg !1408
  %14 = bitcast %"core::mem::maybe_uninit::MaybeUninit<std::path::PathBuf>"* %self1 to i8*, !dbg !1408
  %15 = bitcast %"core::mem::maybe_uninit::MaybeUninit<std::path::PathBuf>"* %tmp to i8*, !dbg !1408
  call void @llvm.memcpy.p0i8.p0i8.i64(i8* align 8 %14, i8* align 8 %15, i64 24, i1 false), !dbg !1408
  br label %bb6, !dbg !1417

bb6:                                              ; preds = %bb5
  %16 = bitcast %"core::mem::maybe_uninit::MaybeUninit<std::path::PathBuf>"* %self1 to %"core::mem::manually_drop::ManuallyDrop<std::path::PathBuf>"*, !dbg !1417
  %17 = bitcast %"core::mem::manually_drop::ManuallyDrop<std::path::PathBuf>"* %slot to i8*, !dbg !1417
  %18 = bitcast %"core::mem::manually_drop::ManuallyDrop<std::path::PathBuf>"* %16 to i8*, !dbg !1417
  call void @llvm.memcpy.p0i8.p0i8.i64(i8* align 8 %17, i8* align 8 %18, i64 24, i1 false), !dbg !1417
  %19 = bitcast %"core::mem::manually_drop::ManuallyDrop<std::path::PathBuf>"* %slot to %"std::path::PathBuf"*, !dbg !1426
  %20 = bitcast %"std::path::PathBuf"* %_3 to i8*, !dbg !1426
  %21 = bitcast %"std::path::PathBuf"* %19 to i8*, !dbg !1426
  call void @llvm.memcpy.p0i8.p0i8.i64(i8* align 8 %20, i8* align 8 %21, i64 24, i1 false), !dbg !1426
  %22 = bitcast %"core::option::Option<std::path::PathBuf>"* %0 to %"core::option::Option<std::path::PathBuf>::Some"*, !dbg !1475
  %23 = bitcast %"core::option::Option<std::path::PathBuf>::Some"* %22 to %"std::path::PathBuf"*, !dbg !1475
  %24 = bitcast %"std::path::PathBuf"* %23 to i8*, !dbg !1475
  %25 = bitcast %"std::path::PathBuf"* %_3 to i8*, !dbg !1475
  call void @llvm.memcpy.p0i8.p0i8.i64(i8* align 8 %24, i8* align 8 %25, i64 24, i1 false), !dbg !1475
  br label %bb4, !dbg !1430

bb4:                                              ; preds = %bb1, %bb6
  ret void, !dbg !1476
}

; <std::path::PathBuf as core::ops::deref::Deref>::deref
; Function Attrs: inlinehint nonlazybind uwtable
define internal { %"std::path::Path"*, i64 } @"_ZN62_$LT$std..path..PathBuf$u20$as$u20$core..ops..deref..Deref$GT$5deref17h9ea0691e8b1c04f0E"(%"std::path::PathBuf"* align 8 %self) unnamed_addr #0 !dbg !1477 {
start:
  %self.dbg.spill = alloca %"std::path::PathBuf"*, align 8
  store %"std::path::PathBuf"* %self, %"std::path::PathBuf"** %self.dbg.spill, align 8
  call void @llvm.dbg.declare(metadata %"std::path::PathBuf"** %self.dbg.spill, metadata !1483, metadata !DIExpression()), !dbg !1484
  %_3 = bitcast %"std::path::PathBuf"* %self to %"std::ffi::os_str::OsString"*, !dbg !1485
; call std::path::Path::new
  %0 = call { %"std::path::Path"*, i64 } @_ZN3std4path4Path3new17h995caf35cedab157E(%"std::ffi::os_str::OsString"* align 8 %_3), !dbg !1486
  %1 = extractvalue { %"std::path::Path"*, i64 } %0, 0, !dbg !1486
  %2 = extractvalue { %"std::path::Path"*, i64 } %0, 1, !dbg !1486
  br label %bb1, !dbg !1486

bb1:                                              ; preds = %start
  %3 = insertvalue { %"std::path::Path"*, i64 } undef, %"std::path::Path"* %1, 0, !dbg !1487
  %4 = insertvalue { %"std::path::Path"*, i64 } %3, i64 %2, 1, !dbg !1487
  ret { %"std::path::Path"*, i64 } %4, !dbg !1487
}

; <alloc::string::String as core::ops::deref::Deref>::deref
; Function Attrs: inlinehint nonlazybind uwtable
define internal { [0 x i8]*, i64 } @"_ZN65_$LT$alloc..string..String$u20$as$u20$core..ops..deref..Deref$GT$5deref17h9fa11a46fd8f80c7E"(%"alloc::string::String"* align 8 %self) unnamed_addr #0 !dbg !1488 {
start:
  %0 = alloca { [0 x i8]*, i64 }, align 8
  %v.dbg.spill = alloca { [0 x i8]*, i64 }, align 8
  %metadata.dbg.spill = alloca i64, align 8
  %data_address.dbg.spill = alloca {}*, align 8
  %self.dbg.spill4 = alloca i8*, align 8
  %len.dbg.spill3 = alloca i64, align 8
  %data.dbg.spill2 = alloca i8*, align 8
  %len.dbg.spill = alloca i64, align 8
  %data.dbg.spill = alloca i8*, align 8
  %self.dbg.spill1 = alloca %"alloc::vec::Vec<u8>"*, align 8
  %self.dbg.spill = alloca %"alloc::string::String"*, align 8
  %_18 = alloca { i8*, i64 }, align 8
  %_17 = alloca %"core::ptr::metadata::PtrRepr<[u8]>", align 8
  store %"alloc::string::String"* %self, %"alloc::string::String"** %self.dbg.spill, align 8
  call void @llvm.dbg.declare(metadata %"alloc::string::String"** %self.dbg.spill, metadata !1493, metadata !DIExpression()), !dbg !1494
  %_5 = bitcast %"alloc::string::String"* %self to %"alloc::vec::Vec<u8>"*, !dbg !1495, !rawptr !230
  store %"alloc::vec::Vec<u8>"* %_5, %"alloc::vec::Vec<u8>"** %self.dbg.spill1, align 8, !dbg !1495
  call void @llvm.dbg.declare(metadata %"alloc::vec::Vec<u8>"** %self.dbg.spill1, metadata !1496, metadata !DIExpression()), !dbg !1500
; call alloc::vec::Vec<T,A>::as_ptr
  %data = call i8* @"_ZN5alloc3vec16Vec$LT$T$C$A$GT$6as_ptr17h0b1676a68a684ff9E"(%"alloc::vec::Vec<u8>"* align 8 %_5), !dbg !1500, !rawptr !230
  store i8* %data, i8** %data.dbg.spill, align 8, !dbg !1500
  call void @llvm.dbg.declare(metadata i8** %data.dbg.spill, metadata !1501, metadata !DIExpression()), !dbg !1509
  br label %bb1, !dbg !1500

bb1:                                              ; preds = %start
  %1 = getelementptr inbounds %"alloc::vec::Vec<u8>", %"alloc::vec::Vec<u8>"* %_5, i32 0, i32 1, !dbg !1500
  %len = load i64, i64* %1, align 8, !dbg !1500
  store i64 %len, i64* %len.dbg.spill, align 8, !dbg !1500
  call void @llvm.dbg.declare(metadata i64* %len.dbg.spill, metadata !1505, metadata !DIExpression()), !dbg !1509
  store i8* %data, i8** %data.dbg.spill2, align 8, !dbg !1509
  call void @llvm.dbg.declare(metadata i8** %data.dbg.spill2, metadata !1511, metadata !DIExpression()), !dbg !1516
  store i64 %len, i64* %len.dbg.spill3, align 8, !dbg !1509
  call void @llvm.dbg.declare(metadata i64* %len.dbg.spill3, metadata !1515, metadata !DIExpression()), !dbg !1516
  store i8* %data, i8** %self.dbg.spill4, align 8, !dbg !1516
  call void @llvm.dbg.declare(metadata i8** %self.dbg.spill4, metadata !1518, metadata !DIExpression()), !dbg !1522
  %data_address = bitcast i8* %data to {}*, !dbg !1522, !rawptr !230
  store {}* %data_address, {}** %data_address.dbg.spill, align 8, !dbg !1522
  call void @llvm.dbg.declare(metadata {}** %data_address.dbg.spill, metadata !1524, metadata !DIExpression()), !dbg !1529
  store i64 %len, i64* %metadata.dbg.spill, align 8, !dbg !1516
  call void @llvm.dbg.declare(metadata i64* %metadata.dbg.spill, metadata !1528, metadata !DIExpression()), !dbg !1529
  %2 = bitcast { i8*, i64 }* %_18 to {}**, !dbg !1529, !rawptr !230
  store {}* %data_address, {}** %2, align 8, !dbg !1529
  %3 = getelementptr inbounds { i8*, i64 }, { i8*, i64 }* %_18, i32 0, i32 1, !dbg !1529
  store i64 %len, i64* %3, align 8, !dbg !1529
  %4 = bitcast %"core::ptr::metadata::PtrRepr<[u8]>"* %_17 to { i8*, i64 }*, !dbg !1529
  %5 = getelementptr inbounds { i8*, i64 }, { i8*, i64 }* %_18, i32 0, i32 0, !dbg !1529
  %6 = load i8*, i8** %5, align 8, !dbg !1529
  %7 = getelementptr inbounds { i8*, i64 }, { i8*, i64 }* %_18, i32 0, i32 1, !dbg !1529
  %8 = load i64, i64* %7, align 8, !dbg !1529
  %9 = getelementptr inbounds { i8*, i64 }, { i8*, i64 }* %4, i32 0, i32 0, !dbg !1529
  store i8* %6, i8** %9, align 8, !dbg !1529
  %10 = getelementptr inbounds { i8*, i64 }, { i8*, i64 }* %4, i32 0, i32 1, !dbg !1529
  store i64 %8, i64* %10, align 8, !dbg !1529
  %11 = bitcast %"core::ptr::metadata::PtrRepr<[u8]>"* %_17 to { [0 x i8]*, i64 }*, !dbg !1529
  %12 = getelementptr inbounds { [0 x i8]*, i64 }, { [0 x i8]*, i64 }* %11, i32 0, i32 0, !dbg !1529
  %_10.0 = load [0 x i8]*, [0 x i8]** %12, align 8, !dbg !1529, !rawptr !230
  %13 = getelementptr inbounds { [0 x i8]*, i64 }, { [0 x i8]*, i64 }* %11, i32 0, i32 1, !dbg !1529
  %_10.1 = load i64, i64* %13, align 8, !dbg !1529, !rawptr !230
  %14 = getelementptr inbounds { [0 x i8]*, i64 }, { [0 x i8]*, i64 }* %v.dbg.spill, i32 0, i32 0, !dbg !1495
  store [0 x i8]* %_10.0, [0 x i8]** %14, align 8, !dbg !1495
  %15 = getelementptr inbounds { [0 x i8]*, i64 }, { [0 x i8]*, i64 }* %v.dbg.spill, i32 0, i32 1, !dbg !1495
  store i64 %_10.1, i64* %15, align 8, !dbg !1495
  call void @llvm.dbg.declare(metadata { [0 x i8]*, i64 }* %v.dbg.spill, metadata !1531, metadata !DIExpression()), !dbg !1535
  %16 = getelementptr inbounds { [0 x i8]*, i64 }, { [0 x i8]*, i64 }* %0, i32 0, i32 0, !dbg !1535
  store [0 x i8]* %_10.0, [0 x i8]** %16, align 8, !dbg !1535
  %17 = getelementptr inbounds { [0 x i8]*, i64 }, { [0 x i8]*, i64 }* %0, i32 0, i32 1, !dbg !1535
  store i64 %_10.1, i64* %17, align 8, !dbg !1535
  %18 = getelementptr inbounds { [0 x i8]*, i64 }, { [0 x i8]*, i64 }* %0, i32 0, i32 0, !dbg !1535
  %19 = load [0 x i8]*, [0 x i8]** %18, align 8, !dbg !1535, !nonnull !23, !align !317, !noundef !23
  %20 = getelementptr inbounds { [0 x i8]*, i64 }, { [0 x i8]*, i64 }* %0, i32 0, i32 1, !dbg !1535
  %21 = load i64, i64* %20, align 8, !dbg !1535
  br label %bb2, !dbg !1535

bb2:                                              ; preds = %bb1
  %22 = insertvalue { [0 x i8]*, i64 } undef, [0 x i8]* %19, 0, !dbg !1537
  %23 = insertvalue { [0 x i8]*, i64 } %22, i64 %21, 1, !dbg !1537
  ret { [0 x i8]*, i64 } %23, !dbg !1537
}

; <alloc::string::String as core::cmp::PartialEq<str>>::ne
; Function Attrs: inlinehint nonlazybind uwtable
define internal zeroext i1 @"_ZN73_$LT$alloc..string..String$u20$as$u20$core..cmp..PartialEq$LT$str$GT$$GT$2ne17hb8f409e2ddaf8de8E"(%"alloc::string::String"* align 8 %self, [0 x i8]* align 1 %other.0, i64 %other.1) unnamed_addr #0 !dbg !1538 {
start:
  %other.dbg.spill4 = alloca { [0 x i8]*, i64 }, align 8
  %slice.dbg.spill = alloca { [0 x i8]*, i64 }, align 8
  %self.dbg.spill3 = alloca { [0 x i8]*, i64 }, align 8
  %self.dbg.spill2 = alloca { [0 x i8]*, i64 }, align 8
  %self.dbg.spill1 = alloca %"core::ops::range::RangeFull", align 1
  %index.dbg.spill = alloca %"core::ops::range::RangeFull", align 1
  %other.dbg.spill = alloca { [0 x i8]*, i64 }, align 8
  %self.dbg.spill = alloca %"alloc::string::String"*, align 8
  store %"alloc::string::String"* %self, %"alloc::string::String"** %self.dbg.spill, align 8
  call void @llvm.dbg.declare(metadata %"alloc::string::String"** %self.dbg.spill, metadata !1543, metadata !DIExpression()), !dbg !1545
  %0 = getelementptr inbounds { [0 x i8]*, i64 }, { [0 x i8]*, i64 }* %other.dbg.spill, i32 0, i32 0
  store [0 x i8]* %other.0, [0 x i8]** %0, align 8
  %1 = getelementptr inbounds { [0 x i8]*, i64 }, { [0 x i8]*, i64 }* %other.dbg.spill, i32 0, i32 1
  store i64 %other.1, i64* %1, align 8
  call void @llvm.dbg.declare(metadata { [0 x i8]*, i64 }* %other.dbg.spill, metadata !1544, metadata !DIExpression()), !dbg !1546
  call void @llvm.dbg.declare(metadata %"core::ops::range::RangeFull"* %index.dbg.spill, metadata !1547, metadata !DIExpression()), !dbg !1557
  call void @llvm.dbg.declare(metadata %"core::ops::range::RangeFull"* %self.dbg.spill1, metadata !1559, metadata !DIExpression()), !dbg !1567
; call <alloc::string::String as core::ops::index::Index<core::ops::range::RangeFull>>::index
  %2 = call { [0 x i8]*, i64 } @"_ZN100_$LT$alloc..string..String$u20$as$u20$core..ops..index..Index$LT$core..ops..range..RangeFull$GT$$GT$5index17haf2ea210fcfe77d2E"(%"alloc::string::String"* align 8 %self, %"core::panic::location::Location"* align 8 bitcast (<{ i8*, [16 x i8] }>* @alloc218 to %"core::panic::location::Location"*)), !dbg !1569
  %_5.0 = extractvalue { [0 x i8]*, i64 } %2, 0, !dbg !1569
  %_5.1 = extractvalue { [0 x i8]*, i64 } %2, 1, !dbg !1569
  br label %bb1, !dbg !1569

bb1:                                              ; preds = %start
  %3 = getelementptr inbounds { [0 x i8]*, i64 }, { [0 x i8]*, i64 }* %self.dbg.spill2, i32 0, i32 0, !dbg !1570
  store [0 x i8]* %_5.0, [0 x i8]** %3, align 8, !dbg !1570
  %4 = getelementptr inbounds { [0 x i8]*, i64 }, { [0 x i8]*, i64 }* %self.dbg.spill2, i32 0, i32 1, !dbg !1570
  store i64 %_5.1, i64* %4, align 8, !dbg !1570
  call void @llvm.dbg.declare(metadata { [0 x i8]*, i64 }* %self.dbg.spill2, metadata !1571, metadata !DIExpression()), !dbg !1576
  %5 = getelementptr inbounds { [0 x i8]*, i64 }, { [0 x i8]*, i64 }* %self.dbg.spill3, i32 0, i32 0, !dbg !1558
  store [0 x i8]* %other.0, [0 x i8]** %5, align 8, !dbg !1558
  %6 = getelementptr inbounds { [0 x i8]*, i64 }, { [0 x i8]*, i64 }* %self.dbg.spill3, i32 0, i32 1, !dbg !1558
  store i64 %other.1, i64* %6, align 8, !dbg !1558
  call void @llvm.dbg.declare(metadata { [0 x i8]*, i64 }* %self.dbg.spill3, metadata !1554, metadata !DIExpression()), !dbg !1557
  %7 = getelementptr inbounds { [0 x i8]*, i64 }, { [0 x i8]*, i64 }* %slice.dbg.spill, i32 0, i32 0, !dbg !1557
  store [0 x i8]* %other.0, [0 x i8]** %7, align 8, !dbg !1557
  %8 = getelementptr inbounds { [0 x i8]*, i64 }, { [0 x i8]*, i64 }* %slice.dbg.spill, i32 0, i32 1, !dbg !1557
  store i64 %other.1, i64* %8, align 8, !dbg !1557
  call void @llvm.dbg.declare(metadata { [0 x i8]*, i64 }* %slice.dbg.spill, metadata !1566, metadata !DIExpression()), !dbg !1567
  %9 = getelementptr inbounds { [0 x i8]*, i64 }, { [0 x i8]*, i64 }* %other.dbg.spill4, i32 0, i32 0, !dbg !1578
  store [0 x i8]* %other.0, [0 x i8]** %9, align 8, !dbg !1578
  %10 = getelementptr inbounds { [0 x i8]*, i64 }, { [0 x i8]*, i64 }* %other.dbg.spill4, i32 0, i32 1, !dbg !1578
  store i64 %other.1, i64* %10, align 8, !dbg !1578
  call void @llvm.dbg.declare(metadata { [0 x i8]*, i64 }* %other.dbg.spill4, metadata !1575, metadata !DIExpression()), !dbg !1576
; call core::str::traits::<impl core::cmp::PartialEq for str>::eq
  %_15 = call zeroext i1 @"_ZN4core3str6traits54_$LT$impl$u20$core..cmp..PartialEq$u20$for$u20$str$GT$2eq17h4a1da18e5c498f00E"([0 x i8]* align 1 %_5.0, i64 %_5.1, [0 x i8]* align 1 %other.0, i64 %other.1), !dbg !1576
  br label %bb2, !dbg !1576

bb2:                                              ; preds = %bb1
  %11 = xor i1 %_15, true, !dbg !1576
  ret i1 %11, !dbg !1579
}

; <alloc::string::String as core::cmp::PartialEq<&str>>::eq
; Function Attrs: inlinehint nonlazybind uwtable
define internal zeroext i1 @"_ZN77_$LT$alloc..string..String$u20$as$u20$core..cmp..PartialEq$LT$$RF$str$GT$$GT$2eq17h5b9cd3cf50af599cE"(%"alloc::string::String"* align 8 %self, { [0 x i8]*, i64 }* align 8 %other) unnamed_addr #0 !dbg !1580 {
start:
  %slice.dbg.spill = alloca { [0 x i8]*, i64 }, align 8
  %self.dbg.spill2 = alloca { [0 x i8]*, i64 }, align 8
  %self.dbg.spill1 = alloca %"core::ops::range::RangeFull", align 1
  %index.dbg.spill = alloca %"core::ops::range::RangeFull", align 1
  %other.dbg.spill = alloca { [0 x i8]*, i64 }*, align 8
  %self.dbg.spill = alloca %"alloc::string::String"*, align 8
  store %"alloc::string::String"* %self, %"alloc::string::String"** %self.dbg.spill, align 8
  call void @llvm.dbg.declare(metadata %"alloc::string::String"** %self.dbg.spill, metadata !1585, metadata !DIExpression()), !dbg !1587
  store { [0 x i8]*, i64 }* %other, { [0 x i8]*, i64 }** %other.dbg.spill, align 8
  call void @llvm.dbg.declare(metadata { [0 x i8]*, i64 }** %other.dbg.spill, metadata !1586, metadata !DIExpression()), !dbg !1588
  call void @llvm.dbg.declare(metadata %"core::ops::range::RangeFull"* %index.dbg.spill, metadata !1589, metadata !DIExpression()), !dbg !1594
  call void @llvm.dbg.declare(metadata %"core::ops::range::RangeFull"* %self.dbg.spill1, metadata !1596, metadata !DIExpression()), !dbg !1601
; call <alloc::string::String as core::ops::index::Index<core::ops::range::RangeFull>>::index
  %0 = call { [0 x i8]*, i64 } @"_ZN100_$LT$alloc..string..String$u20$as$u20$core..ops..index..Index$LT$core..ops..range..RangeFull$GT$$GT$5index17haf2ea210fcfe77d2E"(%"alloc::string::String"* align 8 %self, %"core::panic::location::Location"* align 8 bitcast (<{ i8*, [16 x i8] }>* @alloc220 to %"core::panic::location::Location"*)), !dbg !1603
  %_5.0 = extractvalue { [0 x i8]*, i64 } %0, 0, !dbg !1603
  %_5.1 = extractvalue { [0 x i8]*, i64 } %0, 1, !dbg !1603
  br label %bb1, !dbg !1603

bb1:                                              ; preds = %start
  %1 = getelementptr inbounds { [0 x i8]*, i64 }, { [0 x i8]*, i64 }* %other, i32 0, i32 0, !dbg !1595
  %_13.0 = load [0 x i8]*, [0 x i8]** %1, align 8, !dbg !1595, !nonnull !23, !align !317, !noundef !23
  %2 = getelementptr inbounds { [0 x i8]*, i64 }, { [0 x i8]*, i64 }* %other, i32 0, i32 1, !dbg !1595
  %_13.1 = load i64, i64* %2, align 8, !dbg !1595
  %3 = getelementptr inbounds { [0 x i8]*, i64 }, { [0 x i8]*, i64 }* %self.dbg.spill2, i32 0, i32 0, !dbg !1595
  store [0 x i8]* %_13.0, [0 x i8]** %3, align 8, !dbg !1595
  %4 = getelementptr inbounds { [0 x i8]*, i64 }, { [0 x i8]*, i64 }* %self.dbg.spill2, i32 0, i32 1, !dbg !1595
  store i64 %_13.1, i64* %4, align 8, !dbg !1595
  call void @llvm.dbg.declare(metadata { [0 x i8]*, i64 }* %self.dbg.spill2, metadata !1593, metadata !DIExpression()), !dbg !1594
  %5 = getelementptr inbounds { [0 x i8]*, i64 }, { [0 x i8]*, i64 }* %slice.dbg.spill, i32 0, i32 0, !dbg !1594
  store [0 x i8]* %_13.0, [0 x i8]** %5, align 8, !dbg !1594
  %6 = getelementptr inbounds { [0 x i8]*, i64 }, { [0 x i8]*, i64 }* %slice.dbg.spill, i32 0, i32 1, !dbg !1594
  store i64 %_13.1, i64* %6, align 8, !dbg !1594
  call void @llvm.dbg.declare(metadata { [0 x i8]*, i64 }* %slice.dbg.spill, metadata !1600, metadata !DIExpression()), !dbg !1601
; call core::str::traits::<impl core::cmp::PartialEq for str>::eq
  %7 = call zeroext i1 @"_ZN4core3str6traits54_$LT$impl$u20$core..cmp..PartialEq$u20$for$u20$str$GT$2eq17h4a1da18e5c498f00E"([0 x i8]* align 1 %_5.0, i64 %_5.1, [0 x i8]* align 1 %_13.0, i64 %_13.1), !dbg !1604
  br label %bb2, !dbg !1604

bb2:                                              ; preds = %bb1
  ret i1 %7, !dbg !1605
}

; <std::path::PathBuf as core::convert::AsRef<std::ffi::os_str::OsStr>>::as_ref
; Function Attrs: inlinehint nonlazybind uwtable
define internal { %"std::ffi::os_str::OsStr"*, i64 } @"_ZN90_$LT$std..path..PathBuf$u20$as$u20$core..convert..AsRef$LT$std..ffi..os_str..OsStr$GT$$GT$6as_ref17h19020149dd667009E"(%"std::path::PathBuf"* align 8 %self) unnamed_addr #0 !dbg !1606 {
start:
  %inner.dbg.spill = alloca { %"std::sys::unix::os_str::Slice"*, i64 }, align 8
  %self.dbg.spill2 = alloca %"std::ffi::os_str::OsString"*, align 8
  %_index.dbg.spill = alloca %"core::ops::range::RangeFull", align 1
  %self.dbg.spill = alloca %"std::path::PathBuf"*, align 8
  store %"std::path::PathBuf"* %self, %"std::path::PathBuf"** %self.dbg.spill, align 8
  call void @llvm.dbg.declare(metadata %"std::path::PathBuf"** %self.dbg.spill, metadata !1611, metadata !DIExpression()), !dbg !1612
  call void @llvm.dbg.declare(metadata %"core::ops::range::RangeFull"* %_index.dbg.spill, metadata !1613, metadata !DIExpression()), !dbg !1622
  %self1 = bitcast %"std::path::PathBuf"* %self to %"std::ffi::os_str::OsString"*, !dbg !1623
  store %"std::ffi::os_str::OsString"* %self1, %"std::ffi::os_str::OsString"** %self.dbg.spill2, align 8, !dbg !1623
  call void @llvm.dbg.declare(metadata %"std::ffi::os_str::OsString"** %self.dbg.spill2, metadata !1621, metadata !DIExpression()), !dbg !1622
  %_7 = bitcast %"std::ffi::os_str::OsString"* %self1 to %"std::sys::unix::os_str::Buf"*, !dbg !1622
; call std::sys::unix::os_str::Buf::as_slice
  %0 = call { %"std::sys::unix::os_str::Slice"*, i64 } @_ZN3std3sys4unix6os_str3Buf8as_slice17h31a2af57ea27db9eE(%"std::sys::unix::os_str::Buf"* align 8 %_7), !dbg !1622
  %_6.0 = extractvalue { %"std::sys::unix::os_str::Slice"*, i64 } %0, 0, !dbg !1622, !rawptr !230
  %_6.1 = extractvalue { %"std::sys::unix::os_str::Slice"*, i64 } %0, 1, !dbg !1622, !rawptr !230
  br label %bb1, !dbg !1622

bb1:                                              ; preds = %start
  %1 = getelementptr inbounds { %"std::sys::unix::os_str::Slice"*, i64 }, { %"std::sys::unix::os_str::Slice"*, i64 }* %inner.dbg.spill, i32 0, i32 0, !dbg !1622
  store %"std::sys::unix::os_str::Slice"* %_6.0, %"std::sys::unix::os_str::Slice"** %1, align 8, !dbg !1622
  %2 = getelementptr inbounds { %"std::sys::unix::os_str::Slice"*, i64 }, { %"std::sys::unix::os_str::Slice"*, i64 }* %inner.dbg.spill, i32 0, i32 1, !dbg !1622
  store i64 %_6.1, i64* %2, align 8, !dbg !1622
  call void @llvm.dbg.declare(metadata { %"std::sys::unix::os_str::Slice"*, i64 }* %inner.dbg.spill, metadata !1624, metadata !DIExpression()), !dbg !1628
  %_8.0 = bitcast %"std::sys::unix::os_str::Slice"* %_6.0 to %"std::ffi::os_str::OsStr"*, !dbg !1628, !rawptr !230
  %3 = insertvalue { %"std::ffi::os_str::OsStr"*, i64 } undef, %"std::ffi::os_str::OsStr"* %_8.0, 0, !dbg !1630
  %4 = insertvalue { %"std::ffi::os_str::OsStr"*, i64 } %3, i64 %_6.1, 1, !dbg !1630
  ret { %"std::ffi::os_str::OsStr"*, i64 } %4, !dbg !1630
}

; build_script_build::win_target
; Function Attrs: nonlazybind uwtable
define internal zeroext i1 @_ZN18build_script_build10win_target17hc75d1dad670c490bE() unnamed_addr #2 personality i32 (i32, i32, i64, %"unwind::libunwind::_Unwind_Exception"*, %"unwind::libunwind::_Unwind_Context"*)* @rust_eh_personality !dbg !1631 {
start:
  %0 = alloca { i8*, i32 }, align 8
  %_2 = alloca %"core::result::Result<alloc::string::String, std::env::VarError>", align 8
; call std::env::var
  call void @_ZN3std3env3var17ha9c037ab1acc31e6E(%"core::result::Result<alloc::string::String, std::env::VarError>"* sret(%"core::result::Result<alloc::string::String, std::env::VarError>") %_2, [0 x i8]* align 1 bitcast (<{ [17 x i8] }>* @alloc221 to [0 x i8]*), i64 17), !dbg !1634
  br label %bb1, !dbg !1634

bb1:                                              ; preds = %start
; invoke core::result::Result<T,E>::is_ok
  %1 = invoke zeroext i1 @"_ZN4core6result19Result$LT$T$C$E$GT$5is_ok17hc2a3e9b2403bc914E"(%"core::result::Result<alloc::string::String, std::env::VarError>"* align 8 %_2)
          to label %bb2 unwind label %cleanup, !dbg !1634

bb4:                                              ; preds = %cleanup
; invoke core::ptr::drop_in_place<core::result::Result<alloc::string::String,std::env::VarError>>
  invoke void @"_ZN4core3ptr91drop_in_place$LT$core..result..Result$LT$alloc..string..String$C$std..env..VarError$GT$$GT$17h480226cd1955d9bcE"(%"core::result::Result<alloc::string::String, std::env::VarError>"* %_2) #9
          to label %bb5 unwind label %abort, !dbg !1635

cleanup:                                          ; preds = %bb1
  %2 = landingpad { i8*, i32 }
          cleanup
  %3 = extractvalue { i8*, i32 } %2, 0
  %4 = extractvalue { i8*, i32 } %2, 1
  %5 = getelementptr inbounds { i8*, i32 }, { i8*, i32 }* %0, i32 0, i32 0
  store i8* %3, i8** %5, align 8
  %6 = getelementptr inbounds { i8*, i32 }, { i8*, i32 }* %0, i32 0, i32 1
  store i32 %4, i32* %6, align 8
  br label %bb4

bb2:                                              ; preds = %bb1
; call core::ptr::drop_in_place<core::result::Result<alloc::string::String,std::env::VarError>>
  call void @"_ZN4core3ptr91drop_in_place$LT$core..result..Result$LT$alloc..string..String$C$std..env..VarError$GT$$GT$17h480226cd1955d9bcE"(%"core::result::Result<alloc::string::String, std::env::VarError>"* %_2), !dbg !1635
  br label %bb3, !dbg !1635

abort:                                            ; preds = %bb4
  %7 = landingpad { i8*, i32 }
          cleanup, !dbg !1636
; call core::panicking::panic_no_unwind
  call void @_ZN4core9panicking15panic_no_unwind17h57180e694165966aE() #10, !dbg !1636
  unreachable, !dbg !1636

bb5:                                              ; preds = %bb4
  %8 = bitcast { i8*, i32 }* %0 to i8**, !dbg !1636
  %9 = load i8*, i8** %8, align 8, !dbg !1636
  %10 = getelementptr inbounds { i8*, i32 }, { i8*, i32 }* %0, i32 0, i32 1, !dbg !1636
  %11 = load i32, i32* %10, align 8, !dbg !1636
  %12 = insertvalue { i8*, i32 } undef, i8* %9, 0, !dbg !1636
  %13 = insertvalue { i8*, i32 } %12, i32 %11, 1, !dbg !1636
  resume { i8*, i32 } %13, !dbg !1636

bb3:                                              ; preds = %bb2
  ret i1 %1, !dbg !1637
}

; build_script_build::is_compiler
; Function Attrs: nonlazybind uwtable
define internal zeroext i1 @_ZN18build_script_build11is_compiler17h3a79101e7083f6a2E([0 x i8]* align 1 %0, i64 %1) unnamed_addr #2 !dbg !1638 {
start:
  %_3 = alloca i64*, align 8
  %_2 = alloca %"core::result::Result<alloc::string::String, std::env::VarError>", align 8
  %compiler_name = alloca { [0 x i8]*, i64 }, align 8
  %2 = getelementptr inbounds { [0 x i8]*, i64 }, { [0 x i8]*, i64 }* %compiler_name, i32 0, i32 0
  store [0 x i8]* %0, [0 x i8]** %2, align 8
  %3 = getelementptr inbounds { [0 x i8]*, i64 }, { [0 x i8]*, i64 }* %compiler_name, i32 0, i32 1
  store i64 %1, i64* %3, align 8
  call void @llvm.dbg.declare(metadata { [0 x i8]*, i64 }* %compiler_name, metadata !1642, metadata !DIExpression()), !dbg !1643
; call std::env::var
  call void @_ZN3std3env3var17ha9c037ab1acc31e6E(%"core::result::Result<alloc::string::String, std::env::VarError>"* sret(%"core::result::Result<alloc::string::String, std::env::VarError>") %_2, [0 x i8]* align 1 bitcast (<{ [20 x i8] }>* @alloc222 to [0 x i8]*), i64 20), !dbg !1644
  br label %bb1, !dbg !1644

bb1:                                              ; preds = %start
  %4 = bitcast i64** %_3 to { [0 x i8]*, i64 }**, !dbg !1645
  store { [0 x i8]*, i64 }* %compiler_name, { [0 x i8]*, i64 }** %4, align 8, !dbg !1645
  %5 = load i64*, i64** %_3, align 8, !dbg !1644, !nonnull !23, !align !448, !noundef !23
; call core::result::Result<T,E>::map_or
  %6 = call zeroext i1 @"_ZN4core6result19Result$LT$T$C$E$GT$6map_or17h1e7fd28bb5439895E"(%"core::result::Result<alloc::string::String, std::env::VarError>"* %_2, i1 zeroext false, i64* align 8 %5), !dbg !1644
  br label %bb2, !dbg !1644

bb2:                                              ; preds = %bb1
  ret i1 %6, !dbg !1646
}

; build_script_build::is_compiler::{{closure}}
; Function Attrs: inlinehint nonlazybind uwtable
define internal zeroext i1 @"_ZN18build_script_build11is_compiler28_$u7b$$u7b$closure$u7d$$u7d$17h2f63c856a6dff87aE"(i64* align 8 %_1, %"alloc::string::String"* %v) unnamed_addr #0 personality i32 (i32, i32, i64, %"unwind::libunwind::_Unwind_Exception"*, %"unwind::libunwind::_Unwind_Context"*)* @rust_eh_personality !dbg !1647 {
start:
  %0 = alloca { i8*, i32 }, align 8
  %_1.dbg.spill = alloca i64*, align 8
  store i64* %_1, i64** %_1.dbg.spill, align 8
  %1 = bitcast i64** %_1.dbg.spill to { [0 x i8]*, i64 }**
  %2 = load { [0 x i8]*, i64 }*, { [0 x i8]*, i64 }** %1, align 8, !nonnull !23, !align !448, !noundef !23
  call void @llvm.dbg.declare(metadata i64** %_1.dbg.spill, metadata !1652, metadata !DIExpression(DW_OP_deref)), !dbg !1653
  call void @llvm.dbg.declare(metadata %"alloc::string::String"* %v, metadata !1651, metadata !DIExpression()), !dbg !1654
  %_5 = bitcast i64* %_1 to { [0 x i8]*, i64 }*, !dbg !1655
; invoke <alloc::string::String as core::cmp::PartialEq<&str>>::eq
  %3 = invoke zeroext i1 @"_ZN77_$LT$alloc..string..String$u20$as$u20$core..cmp..PartialEq$LT$$RF$str$GT$$GT$2eq17h5b9cd3cf50af599cE"(%"alloc::string::String"* align 8 %v, { [0 x i8]*, i64 }* align 8 %_5)
          to label %bb1 unwind label %cleanup, !dbg !1656

bb3:                                              ; preds = %cleanup
; invoke core::ptr::drop_in_place<alloc::string::String>
  invoke void @"_ZN4core3ptr42drop_in_place$LT$alloc..string..String$GT$17ha0248625f7cefe65E"(%"alloc::string::String"* %v) #9
          to label %bb4 unwind label %abort, !dbg !1657

cleanup:                                          ; preds = %start
  %4 = landingpad { i8*, i32 }
          cleanup
  %5 = extractvalue { i8*, i32 } %4, 0
  %6 = extractvalue { i8*, i32 } %4, 1
  %7 = getelementptr inbounds { i8*, i32 }, { i8*, i32 }* %0, i32 0, i32 0
  store i8* %5, i8** %7, align 8
  %8 = getelementptr inbounds { i8*, i32 }, { i8*, i32 }* %0, i32 0, i32 1
  store i32 %6, i32* %8, align 8
  br label %bb3

bb1:                                              ; preds = %start
; call core::ptr::drop_in_place<alloc::string::String>
  call void @"_ZN4core3ptr42drop_in_place$LT$alloc..string..String$GT$17ha0248625f7cefe65E"(%"alloc::string::String"* %v), !dbg !1657
  br label %bb2, !dbg !1657

abort:                                            ; preds = %bb3
  %9 = landingpad { i8*, i32 }
          cleanup, !dbg !1658
; call core::panicking::panic_no_unwind
  call void @_ZN4core9panicking15panic_no_unwind17h57180e694165966aE() #10, !dbg !1658
  unreachable, !dbg !1658

bb4:                                              ; preds = %bb3
  %10 = bitcast { i8*, i32 }* %0 to i8**, !dbg !1658
  %11 = load i8*, i8** %10, align 8, !dbg !1658
  %12 = getelementptr inbounds { i8*, i32 }, { i8*, i32 }* %0, i32 0, i32 1, !dbg !1658
  %13 = load i32, i32* %12, align 8, !dbg !1658
  %14 = insertvalue { i8*, i32 } undef, i8* %11, 0, !dbg !1658
  %15 = insertvalue { i8*, i32 } %14, i32 %13, 1, !dbg !1658
  resume { i8*, i32 } %15, !dbg !1658

bb2:                                              ; preds = %bb1
  ret i1 %3, !dbg !1659
}

; build_script_build::main
; Function Attrs: nonlazybind uwtable
define internal void @_ZN18build_script_build4main17hff17dbf2899cea08E() unnamed_addr #2 personality i32 (i32, i32, i64, %"unwind::libunwind::_Unwind_Exception"*, %"unwind::libunwind::_Unwind_Context"*)* @rust_eh_personality !dbg !1660 {
start:
  %0 = alloca { i8*, i32 }, align 8
  %_21 = alloca i8, align 1
  %_10 = alloca i8, align 1
  %_8 = alloca i8, align 1
  %out_path = alloca %"std::path::PathBuf", align 8
  %_2 = alloca %"core::result::Result<alloc::string::String, std::env::VarError>", align 8
  %out_dir = alloca %"alloc::string::String", align 8
  call void @llvm.dbg.declare(metadata %"alloc::string::String"* %out_dir, metadata !1662, metadata !DIExpression()), !dbg !1666
  call void @llvm.dbg.declare(metadata %"std::path::PathBuf"* %out_path, metadata !1664, metadata !DIExpression()), !dbg !1667
  store i8 0, i8* %_21, align 1, !dbg !1668
; call std::env::var
  call void @_ZN3std3env3var17ha9c037ab1acc31e6E(%"core::result::Result<alloc::string::String, std::env::VarError>"* sret(%"core::result::Result<alloc::string::String, std::env::VarError>") %_2, [0 x i8]* align 1 bitcast (<{ [7 x i8] }>* @alloc223 to [0 x i8]*), i64 7), !dbg !1669
  br label %bb1, !dbg !1669

bb1:                                              ; preds = %start
; call core::result::Result<T,E>::unwrap
  call void @"_ZN4core6result19Result$LT$T$C$E$GT$6unwrap17hbc4366a1262671c9E"(%"alloc::string::String"* sret(%"alloc::string::String") %out_dir, %"core::result::Result<alloc::string::String, std::env::VarError>"* %_2, %"core::panic::location::Location"* align 8 bitcast (<{ i8*, [16 x i8] }>* @alloc225 to %"core::panic::location::Location"*)), !dbg !1669
  br label %bb2, !dbg !1669

bb2:                                              ; preds = %bb1
; invoke std::path::Path::new
  %1 = invoke { %"std::path::Path"*, i64 } @_ZN3std4path4Path3new17h5aa41ecd2f6ab4feE(%"alloc::string::String"* align 8 %out_dir)
          to label %bb3 unwind label %cleanup, !dbg !1670

bb19:                                             ; preds = %bb21, %bb22, %cleanup
; invoke core::ptr::drop_in_place<alloc::string::String>
  invoke void @"_ZN4core3ptr42drop_in_place$LT$alloc..string..String$GT$17ha0248625f7cefe65E"(%"alloc::string::String"* %out_dir) #9
          to label %bb20 unwind label %abort, !dbg !1671

cleanup:                                          ; preds = %bb16, %bb3, %bb2
  %2 = landingpad { i8*, i32 }
          cleanup
  %3 = extractvalue { i8*, i32 } %2, 0
  %4 = extractvalue { i8*, i32 } %2, 1
  %5 = getelementptr inbounds { i8*, i32 }, { i8*, i32 }* %0, i32 0, i32 0
  store i8* %3, i8** %5, align 8
  %6 = getelementptr inbounds { i8*, i32 }, { i8*, i32 }* %0, i32 0, i32 1
  store i32 %4, i32* %6, align 8
  br label %bb19

bb3:                                              ; preds = %bb2
  %_5.0 = extractvalue { %"std::path::Path"*, i64 } %1, 0, !dbg !1670
  %_5.1 = extractvalue { %"std::path::Path"*, i64 } %1, 1, !dbg !1670
; invoke std::path::Path::join
  invoke void @_ZN3std4path4Path4join17hfe3d8a26aceed3ebE(%"std::path::PathBuf"* sret(%"std::path::PathBuf") %out_path, %"std::path::Path"* align 1 %_5.0, i64 %_5.1, [0 x i8]* align 1 bitcast (<{ [10 x i8] }>* @alloc226 to [0 x i8]*), i64 10)
          to label %bb4 unwind label %cleanup, !dbg !1670

bb4:                                              ; preds = %bb3
  store i8 1, i8* %_21, align 1, !dbg !1672
; invoke build_script_build::win_target
  %_11 = invoke zeroext i1 @_ZN18build_script_build10win_target17hc75d1dad670c490bE()
          to label %bb11 unwind label %cleanup1, !dbg !1673

bb22:                                             ; preds = %cleanup1
  %7 = load i8, i8* %_21, align 1, !dbg !1674, !range !878, !noundef !23
  %8 = trunc i8 %7 to i1, !dbg !1674
  br i1 %8, label %bb21, label %bb19, !dbg !1674

cleanup1:                                         ; preds = %bb15, %bb14, %bb13, %bb12, %bb4
  %9 = landingpad { i8*, i32 }
          cleanup
  %10 = extractvalue { i8*, i32 } %9, 0
  %11 = extractvalue { i8*, i32 } %9, 1
  %12 = getelementptr inbounds { i8*, i32 }, { i8*, i32 }* %0, i32 0, i32 0
  store i8* %10, i8** %12, align 8
  %13 = getelementptr inbounds { i8*, i32 }, { i8*, i32 }* %0, i32 0, i32 1
  store i32 %11, i32* %13, align 8
  br label %bb22

bb11:                                             ; preds = %bb4
  br i1 %_11, label %bb9, label %bb8, !dbg !1675

bb8:                                              ; preds = %bb11
  store i8 0, i8* %_10, align 1, !dbg !1675
  br label %bb10, !dbg !1675

bb9:                                              ; preds = %bb11
  store i8 0, i8* %_10, align 1, !dbg !1675
  br label %bb10, !dbg !1675

bb10:                                             ; preds = %bb8, %bb9
  %14 = load i8, i8* %_10, align 1, !dbg !1676, !range !878, !noundef !23
  %_9 = trunc i8 %14 to i1, !dbg !1676
  br i1 %_9, label %bb5, label %bb6, !dbg !1676

bb6:                                              ; preds = %bb10
  store i8 0, i8* %_8, align 1, !dbg !1676
  br label %bb7, !dbg !1676

bb5:                                              ; preds = %bb10
  store i8 1, i8* %_8, align 1, !dbg !1676
  br label %bb7, !dbg !1676

bb7:                                              ; preds = %bb6, %bb5
  %15 = load i8, i8* %_8, align 1, !dbg !1676, !range !878, !noundef !23
  %16 = trunc i8 %15 to i1, !dbg !1676
  br i1 %16, label %bb12, label %bb13, !dbg !1676

bb13:                                             ; preds = %bb7
; invoke <alloc::string::String as core::ops::deref::Deref>::deref
  %17 = invoke { [0 x i8]*, i64 } @"_ZN65_$LT$alloc..string..String$u20$as$u20$core..ops..deref..Deref$GT$5deref17h9fa11a46fd8f80c7E"(%"alloc::string::String"* align 8 %out_dir)
          to label %bb14 unwind label %cleanup1, !dbg !1677

bb12:                                             ; preds = %bb7
; invoke std::panicking::begin_panic
  invoke void @_ZN3std9panicking11begin_panic17he31d28bed1ece111E([0 x i8]* align 1 bitcast (<{ [78 x i8] }>* @alloc227 to [0 x i8]*), i64 78, %"core::panic::location::Location"* align 8 bitcast (<{ i8*, [16 x i8] }>* @alloc229 to %"core::panic::location::Location"*)) #11
          to label %unreachable unwind label %cleanup1, !dbg !1678

unreachable:                                      ; preds = %bb12
  unreachable

bb14:                                             ; preds = %bb13
  %_14.0 = extractvalue { [0 x i8]*, i64 } %17, 0, !dbg !1677
  %_14.1 = extractvalue { [0 x i8]*, i64 } %17, 1, !dbg !1677
; invoke <std::path::PathBuf as core::ops::deref::Deref>::deref
  %18 = invoke { %"std::path::Path"*, i64 } @"_ZN62_$LT$std..path..PathBuf$u20$as$u20$core..ops..deref..Deref$GT$5deref17h9ea0691e8b1c04f0E"(%"std::path::PathBuf"* align 8 %out_path)
          to label %bb15 unwind label %cleanup1, !dbg !1679

bb15:                                             ; preds = %bb14
  %_18.0 = extractvalue { %"std::path::Path"*, i64 } %18, 0, !dbg !1679
  %_18.1 = extractvalue { %"std::path::Path"*, i64 } %18, 1, !dbg !1679
; invoke build_script_build::build_linked::main
  invoke void @_ZN18build_script_build12build_linked4main17h5e8f4ed1545a3036E([0 x i8]* align 1 %_14.0, i64 %_14.1, %"std::path::Path"* align 1 %_18.0, i64 %_18.1)
          to label %bb16 unwind label %cleanup1, !dbg !1680

bb16:                                             ; preds = %bb15
; invoke core::ptr::drop_in_place<std::path::PathBuf>
  invoke void @"_ZN4core3ptr39drop_in_place$LT$std..path..PathBuf$GT$17hadfdda033a88cdb4E"(%"std::path::PathBuf"* %out_path)
          to label %bb17 unwind label %cleanup, !dbg !1674

bb21:                                             ; preds = %bb22
; invoke core::ptr::drop_in_place<std::path::PathBuf>
  invoke void @"_ZN4core3ptr39drop_in_place$LT$std..path..PathBuf$GT$17hadfdda033a88cdb4E"(%"std::path::PathBuf"* %out_path) #9
          to label %bb19 unwind label %abort, !dbg !1674

abort:                                            ; preds = %bb19, %bb21
  %19 = landingpad { i8*, i32 }
          cleanup, !dbg !1681
; call core::panicking::panic_no_unwind
  call void @_ZN4core9panicking15panic_no_unwind17h57180e694165966aE() #10, !dbg !1681
  unreachable, !dbg !1681

bb17:                                             ; preds = %bb16
  store i8 0, i8* %_21, align 1, !dbg !1674
; call core::ptr::drop_in_place<alloc::string::String>
  call void @"_ZN4core3ptr42drop_in_place$LT$alloc..string..String$GT$17ha0248625f7cefe65E"(%"alloc::string::String"* %out_dir), !dbg !1671
  br label %bb18, !dbg !1671

bb20:                                             ; preds = %bb19
  %20 = bitcast { i8*, i32 }* %0 to i8**, !dbg !1681
  %21 = load i8*, i8** %20, align 8, !dbg !1681
  %22 = getelementptr inbounds { i8*, i32 }, { i8*, i32 }* %0, i32 0, i32 1, !dbg !1681
  %23 = load i32, i32* %22, align 8, !dbg !1681
  %24 = insertvalue { i8*, i32 } undef, i8* %21, 0, !dbg !1681
  %25 = insertvalue { i8*, i32 } %24, i32 %23, 1, !dbg !1681
  resume { i8*, i32 } %25, !dbg !1681

bb18:                                             ; preds = %bb17
  ret void, !dbg !1682
}

; build_script_build::env_prefix
; Function Attrs: nonlazybind uwtable
define internal { [0 x i8]*, i64 } @_ZN18build_script_build10env_prefix17hff6a3bd0c5144998E() unnamed_addr #2 !dbg !1683 {
start:
  ret { [0 x i8]*, i64 } { [0 x i8]* bitcast (<{ [7 x i8] }>* @alloc230 to [0 x i8]*), i64 7 }, !dbg !1686
}

; build_script_build::lib_name
; Function Attrs: nonlazybind uwtable
define internal { [0 x i8]*, i64 } @_ZN18build_script_build8lib_name17hb54b302bd421323dE() unnamed_addr #2 !dbg !1687 {
start:
  ret { [0 x i8]*, i64 } { [0 x i8]* bitcast (<{ [7 x i8] }>* @alloc231 to [0 x i8]*), i64 7 }, !dbg !1688
}

; build_script_build::build_linked::main
; Function Attrs: nonlazybind uwtable
define internal void @_ZN18build_script_build12build_linked4main17h5e8f4ed1545a3036E([0 x i8]* align 1 %_out_dir.0, i64 %_out_dir.1, %"std::path::Path"* align 1 %out_path.0, i64 %out_path.1) unnamed_addr #2 personality i32 (i32, i32, i64, %"unwind::libunwind::_Unwind_Exception"*, %"unwind::libunwind::_Unwind_Context"*)* @rust_eh_personality !dbg !1689 {
start:
  %0 = alloca { i8*, i32 }, align 8
  %out_path.dbg.spill = alloca { %"std::path::Path"*, i64 }, align 8
  %_out_dir.dbg.spill = alloca { [0 x i8]*, i64 }, align 8
  %_31 = alloca i8, align 1
  %_28 = alloca %HeaderLocation, align 8
  %_23 = alloca { [0 x i8]*, i64 }, align 8
  %_19 = alloca [1 x { i8*, i64* }], align 8
  %_12 = alloca %"core::fmt::Arguments", align 8
  %res = alloca %"alloc::string::String", align 8
  %_10 = alloca %"alloc::string::String", align 8
  %_9 = alloca %"core::result::Result<u64, std::io::error::Error>", align 8
  %_6 = alloca i8, align 1
  %_4 = alloca i8, align 1
  %header = alloca %HeaderLocation, align 8
  %1 = getelementptr inbounds { [0 x i8]*, i64 }, { [0 x i8]*, i64 }* %_out_dir.dbg.spill, i32 0, i32 0
  store [0 x i8]* %_out_dir.0, [0 x i8]** %1, align 8
  %2 = getelementptr inbounds { [0 x i8]*, i64 }, { [0 x i8]*, i64 }* %_out_dir.dbg.spill, i32 0, i32 1
  store i64 %_out_dir.1, i64* %2, align 8
  call void @llvm.dbg.declare(metadata { [0 x i8]*, i64 }* %_out_dir.dbg.spill, metadata !1694, metadata !DIExpression()), !dbg !1702
  %3 = getelementptr inbounds { %"std::path::Path"*, i64 }, { %"std::path::Path"*, i64 }* %out_path.dbg.spill, i32 0, i32 0
  store %"std::path::Path"* %out_path.0, %"std::path::Path"** %3, align 8
  %4 = getelementptr inbounds { %"std::path::Path"*, i64 }, { %"std::path::Path"*, i64 }* %out_path.dbg.spill, i32 0, i32 1
  store i64 %out_path.1, i64* %4, align 8
  call void @llvm.dbg.declare(metadata { %"std::path::Path"*, i64 }* %out_path.dbg.spill, metadata !1695, metadata !DIExpression()), !dbg !1703
  call void @llvm.dbg.declare(metadata %HeaderLocation* %header, metadata !1696, metadata !DIExpression()), !dbg !1704
  call void @llvm.dbg.declare(metadata %"alloc::string::String"* %res, metadata !1698, metadata !DIExpression()), !dbg !1705
  store i8 0, i8* %_31, align 1, !dbg !1706
  store i8 1, i8* %_31, align 1, !dbg !1707
; call build_script_build::build_linked::find_sqlite
  call void @_ZN18build_script_build12build_linked11find_sqlite17h7da6ad8e34c15fbcE(%HeaderLocation* sret(%HeaderLocation) %header), !dbg !1707
  br label %bb1, !dbg !1707

bb1:                                              ; preds = %start
; invoke build_script_build::win_target
  %_7 = invoke zeroext i1 @_ZN18build_script_build10win_target17hc75d1dad670c490bE()
          to label %bb8 unwind label %cleanup, !dbg !1708

bb21:                                             ; preds = %cleanup
  %5 = load i8, i8* %_31, align 1, !dbg !1709, !range !878, !noundef !23
  %6 = trunc i8 %5 to i1, !dbg !1709
  br i1 %6, label %bb20, label %bb18, !dbg !1709

cleanup:                                          ; preds = %bb15, %bb14, %bb13, %bb12, %bb11, %bb10, %bb9, %bb1
  %7 = landingpad { i8*, i32 }
          cleanup
  %8 = extractvalue { i8*, i32 } %7, 0
  %9 = extractvalue { i8*, i32 } %7, 1
  %10 = getelementptr inbounds { i8*, i32 }, { i8*, i32 }* %0, i32 0, i32 0
  store i8* %8, i8** %10, align 8
  %11 = getelementptr inbounds { i8*, i32 }, { i8*, i32 }* %0, i32 0, i32 1
  store i32 %9, i32* %11, align 8
  br label %bb21

bb8:                                              ; preds = %bb1
  br i1 %_7, label %bb6, label %bb5, !dbg !1710

bb5:                                              ; preds = %bb8
  store i8 0, i8* %_6, align 1, !dbg !1710
  br label %bb7, !dbg !1710

bb6:                                              ; preds = %bb8
  store i8 0, i8* %_6, align 1, !dbg !1710
  br label %bb7, !dbg !1710

bb7:                                              ; preds = %bb5, %bb6
  %12 = load i8, i8* %_6, align 1, !dbg !1711, !range !878, !noundef !23
  %_5 = trunc i8 %12 to i1, !dbg !1711
  br i1 %_5, label %bb3, label %bb2, !dbg !1711

bb2:                                              ; preds = %bb7
  store i8 0, i8* %_4, align 1, !dbg !1711
  br label %bb4, !dbg !1711

bb3:                                              ; preds = %bb7
  store i8 1, i8* %_4, align 1, !dbg !1711
  br label %bb4, !dbg !1711

bb4:                                              ; preds = %bb2, %bb3
  %13 = load i8, i8* %_4, align 1, !dbg !1711, !range !878, !noundef !23
  %14 = trunc i8 %13 to i1, !dbg !1711
  br i1 %14, label %bb9, label %bb15, !dbg !1711

bb15:                                             ; preds = %bb4
  store i8 0, i8* %_31, align 1, !dbg !1712
  %15 = bitcast %HeaderLocation* %_28 to i8*, !dbg !1712
  %16 = bitcast %HeaderLocation* %header to i8*, !dbg !1712
  call void @llvm.memcpy.p0i8.p0i8.i64(i8* align 8 %15, i8* align 8 %16, i64 32, i1 false), !dbg !1712
; invoke build_script_build::bindings::write_to_out_dir
  invoke void @_ZN18build_script_build8bindings16write_to_out_dir17hd2698fe77f38b2dbE(%HeaderLocation* %_28, %"std::path::Path"* align 1 %out_path.0, i64 %out_path.1)
          to label %bb23 unwind label %cleanup, !dbg !1713

bb9:                                              ; preds = %bb4
; invoke build_script_build::lib_name
  %17 = invoke { [0 x i8]*, i64 } @_ZN18build_script_build8lib_name17hb54b302bd421323dE()
          to label %bb10 unwind label %cleanup, !dbg !1714

bb10:                                             ; preds = %bb9
  store { [0 x i8]*, i64 } %17, { [0 x i8]*, i64 }* %_23, align 8, !dbg !1714
; invoke core::fmt::ArgumentV1::new_display
  %18 = invoke { i8*, i64* } @_ZN4core3fmt10ArgumentV111new_display17ha70c58eb66a705fdE({ [0 x i8]*, i64 }* align 8 %_23)
          to label %bb11 unwind label %cleanup, !dbg !1715

bb11:                                             ; preds = %bb10
  %_20.0 = extractvalue { i8*, i64* } %18, 0, !dbg !1715
  %_20.1 = extractvalue { i8*, i64* } %18, 1, !dbg !1715
  %19 = bitcast [1 x { i8*, i64* }]* %_19 to { i8*, i64* }*, !dbg !1715
  %20 = getelementptr inbounds { i8*, i64* }, { i8*, i64* }* %19, i32 0, i32 0, !dbg !1715
  store i8* %_20.0, i8** %20, align 8, !dbg !1715
  %21 = getelementptr inbounds { i8*, i64* }, { i8*, i64* }* %19, i32 0, i32 1, !dbg !1715
  store i64* %_20.1, i64** %21, align 8, !dbg !1715
  %_16.0 = bitcast [1 x { i8*, i64* }]* %_19 to [0 x { i8*, i64* }]*, !dbg !1715
; invoke core::fmt::Arguments::new_v1
  invoke void @_ZN4core3fmt9Arguments6new_v117h7ec2561a46cebd19E(%"core::fmt::Arguments"* sret(%"core::fmt::Arguments") %_12, [0 x { [0 x i8]*, i64 }]* align 8 bitcast (<{ i8*, [8 x i8], i8*, [8 x i8] }>* @alloc32 to [0 x { [0 x i8]*, i64 }]*), i64 2, [0 x { i8*, i64* }]* align 8 %_16.0, i64 1)
          to label %bb12 unwind label %cleanup, !dbg !1715

bb12:                                             ; preds = %bb11
; invoke alloc::fmt::format
  invoke void @_ZN5alloc3fmt6format17h58aea2751f418eeaE(%"alloc::string::String"* sret(%"alloc::string::String") %res, %"core::fmt::Arguments"* %_12)
          to label %bb13 unwind label %cleanup, !dbg !1715

bb13:                                             ; preds = %bb12
  %22 = bitcast %"alloc::string::String"* %_10 to i8*, !dbg !1705
  %23 = bitcast %"alloc::string::String"* %res to i8*, !dbg !1705
  call void @llvm.memcpy.p0i8.p0i8.i64(i8* align 8 %22, i8* align 8 %23, i64 24, i1 false), !dbg !1705
; invoke std::fs::copy
  invoke void @_ZN3std2fs4copy17h38538c17e2bace40E(%"core::result::Result<u64, std::io::error::Error>"* sret(%"core::result::Result<u64, std::io::error::Error>") %_9, %"alloc::string::String"* %_10, %"std::path::Path"* align 1 %out_path.0, i64 %out_path.1)
          to label %bb14 unwind label %cleanup, !dbg !1716

bb14:                                             ; preds = %bb13
; invoke core::result::Result<T,E>::expect
  %_8 = invoke i64 @"_ZN4core6result19Result$LT$T$C$E$GT$6expect17h8be06b189feadf38E"(%"core::result::Result<u64, std::io::error::Error>"* %_9, [0 x i8]* align 1 bitcast (<{ [43 x i8] }>* @alloc247 to [0 x i8]*), i64 43, %"core::panic::location::Location"* align 8 bitcast (<{ i8*, [16 x i8] }>* @alloc234 to %"core::panic::location::Location"*))
          to label %bb22 unwind label %cleanup, !dbg !1716

bb22:                                             ; preds = %bb14
  br label %bb16, !dbg !1716

bb16:                                             ; preds = %bb23, %bb22
  %24 = load i8, i8* %_31, align 1, !dbg !1709, !range !878, !noundef !23
  %25 = trunc i8 %24 to i1, !dbg !1709
  br i1 %25, label %bb19, label %bb17, !dbg !1709

bb23:                                             ; preds = %bb15
  br label %bb16, !dbg !1713

bb18:                                             ; preds = %bb20, %bb21
  %26 = bitcast { i8*, i32 }* %0 to i8**, !dbg !1717
  %27 = load i8*, i8** %26, align 8, !dbg !1717
  %28 = getelementptr inbounds { i8*, i32 }, { i8*, i32 }* %0, i32 0, i32 1, !dbg !1717
  %29 = load i32, i32* %28, align 8, !dbg !1717
  %30 = insertvalue { i8*, i32 } undef, i8* %27, 0, !dbg !1717
  %31 = insertvalue { i8*, i32 } %30, i32 %29, 1, !dbg !1717
  resume { i8*, i32 } %31, !dbg !1717

bb20:                                             ; preds = %bb21
; invoke core::ptr::drop_in_place<build_script_build::HeaderLocation>
  invoke void @"_ZN4core3ptr55drop_in_place$LT$build_script_build..HeaderLocation$GT$17hf6ab47ddca57b34cE"(%HeaderLocation* %header) #9
          to label %bb18 unwind label %abort, !dbg !1709

abort:                                            ; preds = %bb20
  %32 = landingpad { i8*, i32 }
          cleanup, !dbg !1717
; call core::panicking::panic_no_unwind
  call void @_ZN4core9panicking15panic_no_unwind17h57180e694165966aE() #10, !dbg !1717
  unreachable, !dbg !1717

bb17:                                             ; preds = %bb19, %bb16
  store i8 0, i8* %_31, align 1, !dbg !1709
  ret void, !dbg !1718

bb19:                                             ; preds = %bb16
; call core::ptr::drop_in_place<build_script_build::HeaderLocation>
  call void @"_ZN4core3ptr55drop_in_place$LT$build_script_build..HeaderLocation$GT$17hf6ab47ddca57b34cE"(%HeaderLocation* %header), !dbg !1709
  br label %bb17, !dbg !1709
}

; build_script_build::build_linked::find_link_mode
; Function Attrs: nonlazybind uwtable
define internal { [0 x i8]*, i64 } @_ZN18build_script_build12build_linked14find_link_mode17h63600f31424ca2b1E() unnamed_addr #2 personality i32 (i32, i32, i64, %"unwind::libunwind::_Unwind_Exception"*, %"unwind::libunwind::_Unwind_Context"*)* @rust_eh_personality !dbg !1719 {
start:
  %0 = alloca { i8*, i32 }, align 8
  %v.dbg.spill = alloca %"alloc::string::String"**, align 8
  %v = alloca %"alloc::string::String"*, align 8
  %_16 = alloca { [0 x i8]*, i64 }, align 8
  %_12 = alloca [1 x { i8*, i64* }], align 8
  %_5 = alloca %"core::fmt::Arguments", align 8
  %res = alloca %"alloc::string::String", align 8
  %_3 = alloca %"alloc::string::String", align 8
  %_2 = alloca %"core::result::Result<alloc::string::String, std::env::VarError>", align 8
  %1 = alloca { [0 x i8]*, i64 }, align 8
  call void @llvm.dbg.declare(metadata %"alloc::string::String"* %res, metadata !1721, metadata !DIExpression()), !dbg !1727
  call void @llvm.dbg.declare(metadata %"alloc::string::String"** %v, metadata !1724, metadata !DIExpression()), !dbg !1728
; call build_script_build::env_prefix
  %2 = call { [0 x i8]*, i64 } @_ZN18build_script_build10env_prefix17hff6a3bd0c5144998E(), !dbg !1729
  store { [0 x i8]*, i64 } %2, { [0 x i8]*, i64 }* %_16, align 8, !dbg !1729
  br label %bb1, !dbg !1729

bb1:                                              ; preds = %start
; call core::fmt::ArgumentV1::new_display
  %3 = call { i8*, i64* } @_ZN4core3fmt10ArgumentV111new_display17ha70c58eb66a705fdE({ [0 x i8]*, i64 }* align 8 %_16), !dbg !1730
  %_13.0 = extractvalue { i8*, i64* } %3, 0, !dbg !1730
  %_13.1 = extractvalue { i8*, i64* } %3, 1, !dbg !1730
  br label %bb2, !dbg !1730

bb2:                                              ; preds = %bb1
  %4 = bitcast [1 x { i8*, i64* }]* %_12 to { i8*, i64* }*, !dbg !1730
  %5 = getelementptr inbounds { i8*, i64* }, { i8*, i64* }* %4, i32 0, i32 0, !dbg !1730
  store i8* %_13.0, i8** %5, align 8, !dbg !1730
  %6 = getelementptr inbounds { i8*, i64* }, { i8*, i64* }* %4, i32 0, i32 1, !dbg !1730
  store i64* %_13.1, i64** %6, align 8, !dbg !1730
  %_9.0 = bitcast [1 x { i8*, i64* }]* %_12 to [0 x { i8*, i64* }]*, !dbg !1730
; call core::fmt::Arguments::new_v1
  call void @_ZN4core3fmt9Arguments6new_v117h7ec2561a46cebd19E(%"core::fmt::Arguments"* sret(%"core::fmt::Arguments") %_5, [0 x { [0 x i8]*, i64 }]* align 8 bitcast (<{ i8*, [8 x i8], i8*, [8 x i8] }>* @alloc146 to [0 x { [0 x i8]*, i64 }]*), i64 2, [0 x { i8*, i64* }]* align 8 %_9.0, i64 1), !dbg !1730
  br label %bb3, !dbg !1730

bb3:                                              ; preds = %bb2
; call alloc::fmt::format
  call void @_ZN5alloc3fmt6format17h58aea2751f418eeaE(%"alloc::string::String"* sret(%"alloc::string::String") %res, %"core::fmt::Arguments"* %_5), !dbg !1730
  br label %bb4, !dbg !1730

bb4:                                              ; preds = %bb3
  %7 = bitcast %"alloc::string::String"* %_3 to i8*, !dbg !1727
  %8 = bitcast %"alloc::string::String"* %res to i8*, !dbg !1727
  call void @llvm.memcpy.p0i8.p0i8.i64(i8* align 8 %7, i8* align 8 %8, i64 24, i1 false), !dbg !1727
; call std::env::var
  call void @_ZN3std3env3var17hc28e7badfe305402E(%"core::result::Result<alloc::string::String, std::env::VarError>"* sret(%"core::result::Result<alloc::string::String, std::env::VarError>") %_2, %"alloc::string::String"* %_3), !dbg !1731
  br label %bb5, !dbg !1731

bb5:                                              ; preds = %bb4
  %9 = bitcast %"core::result::Result<alloc::string::String, std::env::VarError>"* %_2 to i64*, !dbg !1732
  %_17 = load i64, i64* %9, align 8, !dbg !1732, !range !1042, !noundef !23
  %10 = icmp eq i64 %_17, 0, !dbg !1733
  br i1 %10, label %bb7, label %bb6, !dbg !1733

bb7:                                              ; preds = %bb5
  %11 = bitcast %"core::result::Result<alloc::string::String, std::env::VarError>"* %_2 to %"core::result::Result<alloc::string::String, std::env::VarError>::Ok"*, !dbg !1734
  %12 = getelementptr inbounds %"core::result::Result<alloc::string::String, std::env::VarError>::Ok", %"core::result::Result<alloc::string::String, std::env::VarError>::Ok"* %11, i32 0, i32 1, !dbg !1734
  store %"alloc::string::String"* %12, %"alloc::string::String"** %v, align 8, !dbg !1734
  store %"alloc::string::String"** %v, %"alloc::string::String"*** %v.dbg.spill, align 8, !dbg !1734
  call void @llvm.dbg.declare(metadata %"alloc::string::String"*** %v.dbg.spill, metadata !1726, metadata !DIExpression()), !dbg !1728
; invoke core::cmp::impls::<impl core::cmp::PartialEq<&B> for &A>::ne
  %_20 = invoke zeroext i1 @"_ZN4core3cmp5impls69_$LT$impl$u20$core..cmp..PartialEq$LT$$RF$B$GT$$u20$for$u20$$RF$A$GT$2ne17hf1431e3b64a23e49E"(%"alloc::string::String"** align 8 %v, { [0 x i8]*, i64 }* align 8 bitcast (<{ i8*, [8 x i8] }>* @alloc152 to { [0 x i8]*, i64 }*))
          to label %bb8 unwind label %cleanup, !dbg !1735

bb6:                                              ; preds = %bb8, %bb5
  %13 = getelementptr inbounds { [0 x i8]*, i64 }, { [0 x i8]*, i64 }* %1, i32 0, i32 0, !dbg !1736
  store [0 x i8]* bitcast (<{ [5 x i8] }>* @alloc236 to [0 x i8]*), [0 x i8]** %13, align 8, !dbg !1736
  %14 = getelementptr inbounds { [0 x i8]*, i64 }, { [0 x i8]*, i64 }* %1, i32 0, i32 1, !dbg !1736
  store i64 5, i64* %14, align 8, !dbg !1736
  br label %bb10, !dbg !1736

bb12:                                             ; preds = %cleanup
; invoke core::ptr::drop_in_place<core::result::Result<alloc::string::String,std::env::VarError>>
  invoke void @"_ZN4core3ptr91drop_in_place$LT$core..result..Result$LT$alloc..string..String$C$std..env..VarError$GT$$GT$17h480226cd1955d9bcE"(%"core::result::Result<alloc::string::String, std::env::VarError>"* %_2) #9
          to label %bb13 unwind label %abort, !dbg !1737

cleanup:                                          ; preds = %bb7
  %15 = landingpad { i8*, i32 }
          cleanup
  %16 = extractvalue { i8*, i32 } %15, 0
  %17 = extractvalue { i8*, i32 } %15, 1
  %18 = getelementptr inbounds { i8*, i32 }, { i8*, i32 }* %0, i32 0, i32 0
  store i8* %16, i8** %18, align 8
  %19 = getelementptr inbounds { i8*, i32 }, { i8*, i32 }* %0, i32 0, i32 1
  store i32 %17, i32* %19, align 8
  br label %bb12

bb8:                                              ; preds = %bb7
  br i1 %_20, label %bb9, label %bb6, !dbg !1735

abort:                                            ; preds = %bb12
  %20 = landingpad { i8*, i32 }
          cleanup, !dbg !1738
; call core::panicking::panic_no_unwind
  call void @_ZN4core9panicking15panic_no_unwind17h57180e694165966aE() #10, !dbg !1738
  unreachable, !dbg !1738

bb13:                                             ; preds = %bb12
  %21 = bitcast { i8*, i32 }* %0 to i8**, !dbg !1738
  %22 = load i8*, i8** %21, align 8, !dbg !1738
  %23 = getelementptr inbounds { i8*, i32 }, { i8*, i32 }* %0, i32 0, i32 1, !dbg !1738
  %24 = load i32, i32* %23, align 8, !dbg !1738
  %25 = insertvalue { i8*, i32 } undef, i8* %22, 0, !dbg !1738
  %26 = insertvalue { i8*, i32 } %25, i32 %24, 1, !dbg !1738
  resume { i8*, i32 } %26, !dbg !1738

bb9:                                              ; preds = %bb8
  %27 = getelementptr inbounds { [0 x i8]*, i64 }, { [0 x i8]*, i64 }* %1, i32 0, i32 0, !dbg !1739
  store [0 x i8]* bitcast (<{ [6 x i8] }>* @alloc235 to [0 x i8]*), [0 x i8]** %27, align 8, !dbg !1739
  %28 = getelementptr inbounds { [0 x i8]*, i64 }, { [0 x i8]*, i64 }* %1, i32 0, i32 1, !dbg !1739
  store i64 6, i64* %28, align 8, !dbg !1739
  br label %bb10, !dbg !1740

bb10:                                             ; preds = %bb6, %bb9
; call core::ptr::drop_in_place<core::result::Result<alloc::string::String,std::env::VarError>>
  call void @"_ZN4core3ptr91drop_in_place$LT$core..result..Result$LT$alloc..string..String$C$std..env..VarError$GT$$GT$17h480226cd1955d9bcE"(%"core::result::Result<alloc::string::String, std::env::VarError>"* %_2), !dbg !1737
  br label %bb11, !dbg !1737

bb11:                                             ; preds = %bb10
  %29 = getelementptr inbounds { [0 x i8]*, i64 }, { [0 x i8]*, i64 }* %1, i32 0, i32 0, !dbg !1741
  %30 = load [0 x i8]*, [0 x i8]** %29, align 8, !dbg !1741, !nonnull !23, !align !317, !noundef !23
  %31 = getelementptr inbounds { [0 x i8]*, i64 }, { [0 x i8]*, i64 }* %1, i32 0, i32 1, !dbg !1741
  %32 = load i64, i64* %31, align 8, !dbg !1741
  %33 = insertvalue { [0 x i8]*, i64 } undef, [0 x i8]* %30, 0, !dbg !1741
  %34 = insertvalue { [0 x i8]*, i64 } %33, i64 %32, 1, !dbg !1741
  ret { [0 x i8]*, i64 } %34, !dbg !1741
}

; build_script_build::build_linked::find_sqlite
; Function Attrs: nonlazybind uwtable
define internal void @_ZN18build_script_build12build_linked11find_sqlite17h7da6ad8e34c15fbcE(%HeaderLocation* sret(%HeaderLocation) %0) unnamed_addr #2 personality i32 (i32, i32, i64, %"unwind::libunwind::_Unwind_Exception"*, %"unwind::libunwind::_Unwind_Context"*)* @rust_eh_personality !dbg !1742 {
start:
  %1 = alloca { i8*, i32 }, align 8
  %_186 = alloca i8, align 1
  %_171 = alloca { [0 x i8]*, i64 }, align 8
  %_167 = alloca [2 x { i8*, i64* }], align 8
  %_160 = alloca %"core::fmt::Arguments", align 8
  %_155 = alloca %"alloc::borrow::Cow<str>", align 8
  %_154 = alloca %"alloc::string::String", align 8
  %header1 = alloca %"std::path::PathBuf", align 8
  %_148 = alloca %"core::option::Option<std::path::PathBuf>", align 8
  %lib = alloca %"pkg_config::Library", align 8
  %_144 = alloca %"pkg_config::Config", align 8
  %_140 = alloca %"core::result::Result<pkg_config::Library, pkg_config::Error>", align 8
  %header = alloca %HeaderLocation, align 8
  %_137 = alloca %"core::option::Option<HeaderLocation>", align 8
  %_133 = alloca [1 x { i8*, i64* }], align 8
  %_126 = alloca %"core::fmt::Arguments", align 8
  %_121 = alloca { [0 x i8]*, i64 }, align 8
  %_117 = alloca [2 x { i8*, i64* }], align 8
  %_110 = alloca %"core::fmt::Arguments", align 8
  %_107 = alloca %"pkg_config::Config", align 8
  %_105 = alloca %"core::result::Result<pkg_config::Library, pkg_config::Error>", align 8
  %_102 = alloca %"std::path::PathBuf", align 8
  %pkgconfig_path = alloca %"std::path::PathBuf", align 8
  %dir = alloca %"alloc::string::String", align 8
  %_93 = alloca { [0 x i8]*, i64 }, align 8
  %_89 = alloca [1 x { i8*, i64* }], align 8
  %_82 = alloca %"core::fmt::Arguments", align 8
  %res = alloca %"alloc::string::String", align 8
  %_80 = alloca %"alloc::string::String", align 8
  %_79 = alloca %"core::result::Result<alloc::string::String, std::env::VarError>", align 8
  %_75 = alloca [1 x { i8*, i64* }], align 8
  %_68 = alloca %"core::fmt::Arguments", align 8
  %_65 = alloca i8, align 1
  %_61 = alloca [1 x { i8*, i64* }], align 8
  %_54 = alloca %"core::fmt::Arguments", align 8
  %_46 = alloca %"core::fmt::Arguments", align 8
  %_40 = alloca { [0 x i8]*, i64 }, align 8
  %_36 = alloca [1 x { i8*, i64* }], align 8
  %_29 = alloca %"core::fmt::Arguments", align 8
  %_27 = alloca { [0 x i8]*, i64 }, align 8
  %_23 = alloca [1 x { i8*, i64* }], align 8
  %_16 = alloca %"core::fmt::Arguments", align 8
  %_14 = alloca { [0 x i8]*, i64 }, align 8
  %_10 = alloca [1 x { i8*, i64* }], align 8
  %_3 = alloca %"core::fmt::Arguments", align 8
  %link_lib = alloca { [0 x i8]*, i64 }, align 8
  call void @llvm.dbg.declare(metadata { [0 x i8]*, i64 }* %link_lib, metadata !1746, metadata !DIExpression()), !dbg !1761
  call void @llvm.dbg.declare(metadata %"alloc::string::String"* %res, metadata !1748, metadata !DIExpression()), !dbg !1762
  call void @llvm.dbg.declare(metadata %"alloc::string::String"* %dir, metadata !1752, metadata !DIExpression()), !dbg !1763
  call void @llvm.dbg.declare(metadata %"std::path::PathBuf"* %pkgconfig_path, metadata !1753, metadata !DIExpression()), !dbg !1764
  call void @llvm.dbg.declare(metadata %HeaderLocation* %header, metadata !1755, metadata !DIExpression()), !dbg !1765
  call void @llvm.dbg.declare(metadata %"pkg_config::Library"* %lib, metadata !1757, metadata !DIExpression()), !dbg !1766
  call void @llvm.dbg.declare(metadata %"std::path::PathBuf"* %header1, metadata !1759, metadata !DIExpression()), !dbg !1767
  store i8 0, i8* %_186, align 1, !dbg !1768
; call build_script_build::lib_name
  %2 = call { [0 x i8]*, i64 } @_ZN18build_script_build8lib_name17hb54b302bd421323dE(), !dbg !1769
  store { [0 x i8]*, i64 } %2, { [0 x i8]*, i64 }* %link_lib, align 8, !dbg !1769
  br label %bb1, !dbg !1769

bb1:                                              ; preds = %start
; call build_script_build::env_prefix
  %3 = call { [0 x i8]*, i64 } @_ZN18build_script_build10env_prefix17hff6a3bd0c5144998E(), !dbg !1770
  store { [0 x i8]*, i64 } %3, { [0 x i8]*, i64 }* %_14, align 8, !dbg !1770
  br label %bb2, !dbg !1770

bb2:                                              ; preds = %bb1
; call core::fmt::ArgumentV1::new_display
  %4 = call { i8*, i64* } @_ZN4core3fmt10ArgumentV111new_display17ha70c58eb66a705fdE({ [0 x i8]*, i64 }* align 8 %_14), !dbg !1771
  %_11.0 = extractvalue { i8*, i64* } %4, 0, !dbg !1771
  %_11.1 = extractvalue { i8*, i64* } %4, 1, !dbg !1771
  br label %bb3, !dbg !1771

bb3:                                              ; preds = %bb2
  %5 = bitcast [1 x { i8*, i64* }]* %_10 to { i8*, i64* }*, !dbg !1771
  %6 = getelementptr inbounds { i8*, i64* }, { i8*, i64* }* %5, i32 0, i32 0, !dbg !1771
  store i8* %_11.0, i8** %6, align 8, !dbg !1771
  %7 = getelementptr inbounds { i8*, i64* }, { i8*, i64* }* %5, i32 0, i32 1, !dbg !1771
  store i64* %_11.1, i64** %7, align 8, !dbg !1771
  %_7.0 = bitcast [1 x { i8*, i64* }]* %_10 to [0 x { i8*, i64* }]*, !dbg !1771
; call core::fmt::Arguments::new_v1
  call void @_ZN4core3fmt9Arguments6new_v117h7ec2561a46cebd19E(%"core::fmt::Arguments"* sret(%"core::fmt::Arguments") %_3, [0 x { [0 x i8]*, i64 }]* align 8 bitcast (<{ i8*, [8 x i8], i8*, [8 x i8] }>* @alloc42 to [0 x { [0 x i8]*, i64 }]*), i64 2, [0 x { i8*, i64* }]* align 8 %_7.0, i64 1), !dbg !1771
  br label %bb4, !dbg !1771

bb4:                                              ; preds = %bb3
; call std::io::stdio::_print
  call void @_ZN3std2io5stdio6_print17h5851c977dd65b5e0E(%"core::fmt::Arguments"* %_3), !dbg !1771
  br label %bb5, !dbg !1771

bb5:                                              ; preds = %bb4
; call build_script_build::env_prefix
  %8 = call { [0 x i8]*, i64 } @_ZN18build_script_build10env_prefix17hff6a3bd0c5144998E(), !dbg !1772
  store { [0 x i8]*, i64 } %8, { [0 x i8]*, i64 }* %_27, align 8, !dbg !1772
  br label %bb6, !dbg !1772

bb6:                                              ; preds = %bb5
; call core::fmt::ArgumentV1::new_display
  %9 = call { i8*, i64* } @_ZN4core3fmt10ArgumentV111new_display17ha70c58eb66a705fdE({ [0 x i8]*, i64 }* align 8 %_27), !dbg !1773
  %_24.0 = extractvalue { i8*, i64* } %9, 0, !dbg !1773
  %_24.1 = extractvalue { i8*, i64* } %9, 1, !dbg !1773
  br label %bb7, !dbg !1773

bb7:                                              ; preds = %bb6
  %10 = bitcast [1 x { i8*, i64* }]* %_23 to { i8*, i64* }*, !dbg !1773
  %11 = getelementptr inbounds { i8*, i64* }, { i8*, i64* }* %10, i32 0, i32 0, !dbg !1773
  store i8* %_24.0, i8** %11, align 8, !dbg !1773
  %12 = getelementptr inbounds { i8*, i64* }, { i8*, i64* }* %10, i32 0, i32 1, !dbg !1773
  store i64* %_24.1, i64** %12, align 8, !dbg !1773
  %_20.0 = bitcast [1 x { i8*, i64* }]* %_23 to [0 x { i8*, i64* }]*, !dbg !1773
; call core::fmt::Arguments::new_v1
  call void @_ZN4core3fmt9Arguments6new_v117h7ec2561a46cebd19E(%"core::fmt::Arguments"* sret(%"core::fmt::Arguments") %_16, [0 x { [0 x i8]*, i64 }]* align 8 bitcast (<{ i8*, [8 x i8], i8*, [8 x i8] }>* @alloc46 to [0 x { [0 x i8]*, i64 }]*), i64 2, [0 x { i8*, i64* }]* align 8 %_20.0, i64 1), !dbg !1773
  br label %bb8, !dbg !1773

bb8:                                              ; preds = %bb7
; call std::io::stdio::_print
  call void @_ZN3std2io5stdio6_print17h5851c977dd65b5e0E(%"core::fmt::Arguments"* %_16), !dbg !1773
  br label %bb9, !dbg !1773

bb9:                                              ; preds = %bb8
; call build_script_build::env_prefix
  %13 = call { [0 x i8]*, i64 } @_ZN18build_script_build10env_prefix17hff6a3bd0c5144998E(), !dbg !1774
  store { [0 x i8]*, i64 } %13, { [0 x i8]*, i64 }* %_40, align 8, !dbg !1774
  br label %bb10, !dbg !1774

bb10:                                             ; preds = %bb9
; call core::fmt::ArgumentV1::new_display
  %14 = call { i8*, i64* } @_ZN4core3fmt10ArgumentV111new_display17ha70c58eb66a705fdE({ [0 x i8]*, i64 }* align 8 %_40), !dbg !1775
  %_37.0 = extractvalue { i8*, i64* } %14, 0, !dbg !1775
  %_37.1 = extractvalue { i8*, i64* } %14, 1, !dbg !1775
  br label %bb11, !dbg !1775

bb11:                                             ; preds = %bb10
  %15 = bitcast [1 x { i8*, i64* }]* %_36 to { i8*, i64* }*, !dbg !1775
  %16 = getelementptr inbounds { i8*, i64* }, { i8*, i64* }* %15, i32 0, i32 0, !dbg !1775
  store i8* %_37.0, i8** %16, align 8, !dbg !1775
  %17 = getelementptr inbounds { i8*, i64* }, { i8*, i64* }* %15, i32 0, i32 1, !dbg !1775
  store i64* %_37.1, i64** %17, align 8, !dbg !1775
  %_33.0 = bitcast [1 x { i8*, i64* }]* %_36 to [0 x { i8*, i64* }]*, !dbg !1775
; call core::fmt::Arguments::new_v1
  call void @_ZN4core3fmt9Arguments6new_v117h7ec2561a46cebd19E(%"core::fmt::Arguments"* sret(%"core::fmt::Arguments") %_29, [0 x { [0 x i8]*, i64 }]* align 8 bitcast (<{ i8*, [8 x i8], i8*, [8 x i8] }>* @alloc50 to [0 x { [0 x i8]*, i64 }]*), i64 2, [0 x { i8*, i64* }]* align 8 %_33.0, i64 1), !dbg !1775
  br label %bb12, !dbg !1775

bb12:                                             ; preds = %bb11
; call std::io::stdio::_print
  call void @_ZN3std2io5stdio6_print17h5851c977dd65b5e0E(%"core::fmt::Arguments"* %_29), !dbg !1775
  br label %bb13, !dbg !1775

bb13:                                             ; preds = %bb12
; call build_script_build::is_compiler
  %_42 = call zeroext i1 @_ZN18build_script_build11is_compiler17h3a79101e7083f6a2E([0 x i8]* align 1 bitcast (<{ [4 x i8] }>* @alloc241 to [0 x i8]*), i64 4), !dbg !1776
  br label %bb14, !dbg !1776

bb14:                                             ; preds = %bb13
  br i1 %_42, label %bb15, label %bb17, !dbg !1777

bb17:                                             ; preds = %bb16, %bb14
; call core::fmt::ArgumentV1::new_display
  %18 = call { i8*, i64* } @_ZN4core3fmt10ArgumentV111new_display17ha70c58eb66a705fdE({ [0 x i8]*, i64 }* align 8 %link_lib), !dbg !1778
  %_62.0 = extractvalue { i8*, i64* } %18, 0, !dbg !1778
  %_62.1 = extractvalue { i8*, i64* } %18, 1, !dbg !1778
  br label %bb18, !dbg !1778

bb15:                                             ; preds = %bb14
; call core::fmt::Arguments::new_v1
  call void @_ZN4core3fmt9Arguments6new_v117h7ec2561a46cebd19E(%"core::fmt::Arguments"* sret(%"core::fmt::Arguments") %_46, [0 x { [0 x i8]*, i64 }]* align 8 bitcast (<{ i8*, [8 x i8] }>* @alloc56 to [0 x { [0 x i8]*, i64 }]*), i64 1, [0 x { i8*, i64* }]* align 8 bitcast (<{}>* @alloc69 to [0 x { i8*, i64* }]*), i64 0), !dbg !1779
  br label %bb16, !dbg !1779

bb16:                                             ; preds = %bb15
; call std::io::stdio::_print
  call void @_ZN3std2io5stdio6_print17h5851c977dd65b5e0E(%"core::fmt::Arguments"* %_46), !dbg !1779
  br label %bb17, !dbg !1779

bb18:                                             ; preds = %bb17
  %19 = bitcast [1 x { i8*, i64* }]* %_61 to { i8*, i64* }*, !dbg !1778
  %20 = getelementptr inbounds { i8*, i64* }, { i8*, i64* }* %19, i32 0, i32 0, !dbg !1778
  store i8* %_62.0, i8** %20, align 8, !dbg !1778
  %21 = getelementptr inbounds { i8*, i64* }, { i8*, i64* }* %19, i32 0, i32 1, !dbg !1778
  store i64* %_62.1, i64** %21, align 8, !dbg !1778
  %_58.0 = bitcast [1 x { i8*, i64* }]* %_61 to [0 x { i8*, i64* }]*, !dbg !1778
; call core::fmt::Arguments::new_v1
  call void @_ZN4core3fmt9Arguments6new_v117h7ec2561a46cebd19E(%"core::fmt::Arguments"* sret(%"core::fmt::Arguments") %_54, [0 x { [0 x i8]*, i64 }]* align 8 bitcast (<{ i8*, [8 x i8], i8*, [8 x i8] }>* @alloc61 to [0 x { [0 x i8]*, i64 }]*), i64 2, [0 x { i8*, i64* }]* align 8 %_58.0, i64 1), !dbg !1778
  br label %bb19, !dbg !1778

bb19:                                             ; preds = %bb18
; call std::io::stdio::_print
  call void @_ZN3std2io5stdio6_print17h5851c977dd65b5e0E(%"core::fmt::Arguments"* %_54), !dbg !1778
  br label %bb20, !dbg !1778

bb20:                                             ; preds = %bb19
; call build_script_build::win_target
  %_66 = call zeroext i1 @_ZN18build_script_build10win_target17hc75d1dad670c490bE(), !dbg !1780
  br label %bb24, !dbg !1780

bb24:                                             ; preds = %bb20
  br i1 %_66, label %bb22, label %bb21, !dbg !1780

bb21:                                             ; preds = %bb24
  store i8 0, i8* %_65, align 1, !dbg !1780
  br label %bb23, !dbg !1780

bb22:                                             ; preds = %bb24
  store i8 0, i8* %_65, align 1, !dbg !1780
  br label %bb23, !dbg !1780

bb23:                                             ; preds = %bb21, %bb22
  %22 = load i8, i8* %_65, align 1, !dbg !1780, !range !878, !noundef !23
  %23 = trunc i8 %22 to i1, !dbg !1780
  br i1 %23, label %bb25, label %bb29, !dbg !1780

bb29:                                             ; preds = %bb23
; call build_script_build::env_prefix
  %24 = call { [0 x i8]*, i64 } @_ZN18build_script_build10env_prefix17hff6a3bd0c5144998E(), !dbg !1781
  store { [0 x i8]*, i64 } %24, { [0 x i8]*, i64 }* %_93, align 8, !dbg !1781
  br label %bb30, !dbg !1781

bb25:                                             ; preds = %bb23
; call core::fmt::ArgumentV1::new_display
  %25 = call { i8*, i64* } @_ZN4core3fmt10ArgumentV111new_display17ha70c58eb66a705fdE({ [0 x i8]*, i64 }* align 8 %link_lib), !dbg !1782
  %_76.0 = extractvalue { i8*, i64* } %25, 0, !dbg !1782
  %_76.1 = extractvalue { i8*, i64* } %25, 1, !dbg !1782
  br label %bb26, !dbg !1782

bb26:                                             ; preds = %bb25
  %26 = bitcast [1 x { i8*, i64* }]* %_75 to { i8*, i64* }*, !dbg !1782
  %27 = getelementptr inbounds { i8*, i64* }, { i8*, i64* }* %26, i32 0, i32 0, !dbg !1782
  store i8* %_76.0, i8** %27, align 8, !dbg !1782
  %28 = getelementptr inbounds { i8*, i64* }, { i8*, i64* }* %26, i32 0, i32 1, !dbg !1782
  store i64* %_76.1, i64** %28, align 8, !dbg !1782
  %_72.0 = bitcast [1 x { i8*, i64* }]* %_75 to [0 x { i8*, i64* }]*, !dbg !1782
; call core::fmt::Arguments::new_v1
  call void @_ZN4core3fmt9Arguments6new_v117h7ec2561a46cebd19E(%"core::fmt::Arguments"* sret(%"core::fmt::Arguments") %_68, [0 x { [0 x i8]*, i64 }]* align 8 bitcast (<{ i8*, [8 x i8], i8*, [8 x i8] }>* @alloc65 to [0 x { [0 x i8]*, i64 }]*), i64 2, [0 x { i8*, i64* }]* align 8 %_72.0, i64 1), !dbg !1782
  br label %bb27, !dbg !1782

bb27:                                             ; preds = %bb26
; call std::io::stdio::_print
  call void @_ZN3std2io5stdio6_print17h5851c977dd65b5e0E(%"core::fmt::Arguments"* %_68), !dbg !1782
  br label %bb28, !dbg !1782

bb28:                                             ; preds = %bb27
  %29 = bitcast %HeaderLocation* %0 to i64*, !dbg !1783
  store i64 1, i64* %29, align 8, !dbg !1783
  br label %bb80, !dbg !1784

bb80:                                             ; preds = %bb94, %bb79, %bb56, %bb78, %bb28
  ret void, !dbg !1785

bb30:                                             ; preds = %bb29
; call core::fmt::ArgumentV1::new_display
  %30 = call { i8*, i64* } @_ZN4core3fmt10ArgumentV111new_display17ha70c58eb66a705fdE({ [0 x i8]*, i64 }* align 8 %_93), !dbg !1786
  %_90.0 = extractvalue { i8*, i64* } %30, 0, !dbg !1786
  %_90.1 = extractvalue { i8*, i64* } %30, 1, !dbg !1786
  br label %bb31, !dbg !1786

bb31:                                             ; preds = %bb30
  %31 = bitcast [1 x { i8*, i64* }]* %_89 to { i8*, i64* }*, !dbg !1786
  %32 = getelementptr inbounds { i8*, i64* }, { i8*, i64* }* %31, i32 0, i32 0, !dbg !1786
  store i8* %_90.0, i8** %32, align 8, !dbg !1786
  %33 = getelementptr inbounds { i8*, i64* }, { i8*, i64* }* %31, i32 0, i32 1, !dbg !1786
  store i64* %_90.1, i64** %33, align 8, !dbg !1786
  %_86.0 = bitcast [1 x { i8*, i64* }]* %_89 to [0 x { i8*, i64* }]*, !dbg !1786
; call core::fmt::Arguments::new_v1
  call void @_ZN4core3fmt9Arguments6new_v117h7ec2561a46cebd19E(%"core::fmt::Arguments"* sret(%"core::fmt::Arguments") %_82, [0 x { [0 x i8]*, i64 }]* align 8 bitcast (<{ i8*, [8 x i8], i8*, [8 x i8] }>* @alloc70 to [0 x { [0 x i8]*, i64 }]*), i64 2, [0 x { i8*, i64* }]* align 8 %_86.0, i64 1), !dbg !1786
  br label %bb32, !dbg !1786

bb32:                                             ; preds = %bb31
; call alloc::fmt::format
  call void @_ZN5alloc3fmt6format17h58aea2751f418eeaE(%"alloc::string::String"* sret(%"alloc::string::String") %res, %"core::fmt::Arguments"* %_82), !dbg !1786
  br label %bb33, !dbg !1786

bb33:                                             ; preds = %bb32
  %34 = bitcast %"alloc::string::String"* %_80 to i8*, !dbg !1762
  %35 = bitcast %"alloc::string::String"* %res to i8*, !dbg !1762
  call void @llvm.memcpy.p0i8.p0i8.i64(i8* align 8 %34, i8* align 8 %35, i64 24, i1 false), !dbg !1762
; call std::env::var
  call void @_ZN3std3env3var17hc28e7badfe305402E(%"core::result::Result<alloc::string::String, std::env::VarError>"* sret(%"core::result::Result<alloc::string::String, std::env::VarError>") %_79, %"alloc::string::String"* %_80), !dbg !1787
  br label %bb34, !dbg !1787

bb34:                                             ; preds = %bb33
  %36 = bitcast %"core::result::Result<alloc::string::String, std::env::VarError>"* %_79 to i64*, !dbg !1788
  %_94 = load i64, i64* %36, align 8, !dbg !1788, !range !1042, !noundef !23
  %37 = icmp eq i64 %_94, 0, !dbg !1788
  br i1 %37, label %bb35, label %bb53, !dbg !1788

bb35:                                             ; preds = %bb34
  %38 = bitcast %"core::result::Result<alloc::string::String, std::env::VarError>"* %_79 to %"core::result::Result<alloc::string::String, std::env::VarError>::Ok"*, !dbg !1763
  %39 = getelementptr inbounds %"core::result::Result<alloc::string::String, std::env::VarError>::Ok", %"core::result::Result<alloc::string::String, std::env::VarError>::Ok"* %38, i32 0, i32 1, !dbg !1763
  %40 = bitcast %"alloc::string::String"* %dir to i8*, !dbg !1763
  %41 = bitcast %"alloc::string::String"* %39 to i8*, !dbg !1763
  call void @llvm.memcpy.p0i8.p0i8.i64(i8* align 8 %40, i8* align 8 %41, i64 24, i1 false), !dbg !1763
; invoke std::path::Path::new
  %42 = invoke { %"std::path::Path"*, i64 } @_ZN3std4path4Path3new17h5aa41ecd2f6ab4feE(%"alloc::string::String"* align 8 %dir)
          to label %bb36 unwind label %cleanup6, !dbg !1789

bb53:                                             ; preds = %bb34
; call core::ptr::drop_in_place<core::result::Result<alloc::string::String,std::env::VarError>>
  call void @"_ZN4core3ptr91drop_in_place$LT$core..result..Result$LT$alloc..string..String$C$std..env..VarError$GT$$GT$17h480226cd1955d9bcE"(%"core::result::Result<alloc::string::String, std::env::VarError>"* %_79), !dbg !1790
  br label %bb54, !dbg !1790

bb54:                                             ; preds = %bb53
; call build_script_build::build_linked::try_vcpkg
  call void @_ZN18build_script_build12build_linked9try_vcpkg17hecb1792538ac6e17E(%"core::option::Option<HeaderLocation>"* sret(%"core::option::Option<HeaderLocation>") %_137), !dbg !1791
  br label %bb55, !dbg !1791

bb55:                                             ; preds = %bb54
  %43 = bitcast %"core::option::Option<HeaderLocation>"* %_137 to i64*, !dbg !1792
  %44 = load i64, i64* %43, align 8, !dbg !1792, !range !1063, !noundef !23
  %45 = sub i64 %44, 3, !dbg !1792
  %46 = icmp eq i64 %45, 0, !dbg !1792
  %_138 = select i1 %46, i64 0, i64 1, !dbg !1792
  %47 = icmp eq i64 %_138, 1, !dbg !1792
  br i1 %47, label %bb56, label %bb57, !dbg !1792

bb56:                                             ; preds = %bb55
  %48 = bitcast %"core::option::Option<HeaderLocation>"* %_137 to %"core::option::Option<HeaderLocation>::Some"*, !dbg !1765
  %49 = bitcast %"core::option::Option<HeaderLocation>::Some"* %48 to %HeaderLocation*, !dbg !1765
  %50 = bitcast %HeaderLocation* %header to i8*, !dbg !1765
  %51 = bitcast %HeaderLocation* %49 to i8*, !dbg !1765
  call void @llvm.memcpy.p0i8.p0i8.i64(i8* align 8 %50, i8* align 8 %51, i64 32, i1 false), !dbg !1765
  %52 = bitcast %HeaderLocation* %0 to i8*, !dbg !1793
  %53 = bitcast %HeaderLocation* %header to i8*, !dbg !1793
  call void @llvm.memcpy.p0i8.p0i8.i64(i8* align 8 %52, i8* align 8 %53, i64 32, i1 false), !dbg !1793
  br label %bb80, !dbg !1784

bb57:                                             ; preds = %bb55
; call core::ptr::drop_in_place<core::option::Option<build_script_build::HeaderLocation>>
  call void @"_ZN4core3ptr83drop_in_place$LT$core..option..Option$LT$build_script_build..HeaderLocation$GT$$GT$17h7d5736b4ea7101f5E"(%"core::option::Option<HeaderLocation>"* %_137), !dbg !1794
  br label %bb58, !dbg !1794

bb58:                                             ; preds = %bb57
; call pkg_config::Config::new
  call void @_ZN10pkg_config6Config3new17h78e60987b0f56131E(%"pkg_config::Config"* sret(%"pkg_config::Config") %_144), !dbg !1795
  br label %bb59, !dbg !1795

bb59:                                             ; preds = %bb58
; invoke pkg_config::Config::print_system_libs
  %_142 = invoke align 8 %"pkg_config::Config"* @_ZN10pkg_config6Config17print_system_libs17h39d0c08f4e2c1f10E(%"pkg_config::Config"* align 8 %_144, i1 zeroext false)
          to label %bb60 unwind label %cleanup, !dbg !1795

bb83:                                             ; preds = %bb96, %bb97, %cleanup
; invoke core::ptr::drop_in_place<pkg_config::Config>
  invoke void @"_ZN4core3ptr39drop_in_place$LT$pkg_config..Config$GT$17h714036b37b055f95E"(%"pkg_config::Config"* %_144) #9
          to label %bb87 unwind label %abort, !dbg !1796

cleanup:                                          ; preds = %bb93, %bb60, %bb59
  %54 = landingpad { i8*, i32 }
          cleanup
  %55 = extractvalue { i8*, i32 } %54, 0
  %56 = extractvalue { i8*, i32 } %54, 1
  %57 = getelementptr inbounds { i8*, i32 }, { i8*, i32 }* %1, i32 0, i32 0
  store i8* %55, i8** %57, align 8
  %58 = getelementptr inbounds { i8*, i32 }, { i8*, i32 }* %1, i32 0, i32 1
  store i32 %56, i32* %58, align 8
  br label %bb83

bb60:                                             ; preds = %bb59
  %59 = getelementptr inbounds { [0 x i8]*, i64 }, { [0 x i8]*, i64 }* %link_lib, i32 0, i32 0, !dbg !1797
  %_145.0 = load [0 x i8]*, [0 x i8]** %59, align 8, !dbg !1797, !nonnull !23, !align !317, !noundef !23
  %60 = getelementptr inbounds { [0 x i8]*, i64 }, { [0 x i8]*, i64 }* %link_lib, i32 0, i32 1, !dbg !1797
  %_145.1 = load i64, i64* %60, align 8, !dbg !1797
; invoke pkg_config::Config::probe
  invoke void @_ZN10pkg_config6Config5probe17h05a31496c9e4823bE(%"core::result::Result<pkg_config::Library, pkg_config::Error>"* sret(%"core::result::Result<pkg_config::Library, pkg_config::Error>") %_140, %"pkg_config::Config"* align 8 %_142, [0 x i8]* align 1 %_145.0, i64 %_145.1)
          to label %bb61 unwind label %cleanup, !dbg !1795

bb61:                                             ; preds = %bb60
  %61 = bitcast %"core::result::Result<pkg_config::Library, pkg_config::Error>"* %_140 to i64*, !dbg !1795
  %_146 = load i64, i64* %61, align 8, !dbg !1795, !range !1042, !noundef !23
  switch i64 %_146, label %bb63 [
    i64 0, label %bb64
    i64 1, label %bb62
  ], !dbg !1798

bb63:                                             ; preds = %bb61
  unreachable, !dbg !1795

bb64:                                             ; preds = %bb61
  %62 = bitcast %"core::result::Result<pkg_config::Library, pkg_config::Error>"* %_140 to %"core::result::Result<pkg_config::Library, pkg_config::Error>::Ok"*, !dbg !1799
  %63 = getelementptr inbounds %"core::result::Result<pkg_config::Library, pkg_config::Error>::Ok", %"core::result::Result<pkg_config::Library, pkg_config::Error>::Ok"* %62, i32 0, i32 1, !dbg !1799
  %64 = bitcast %"pkg_config::Library"* %lib to i8*, !dbg !1799
  %65 = bitcast %"pkg_config::Library"* %63 to i8*, !dbg !1799
  call void @llvm.memcpy.p0i8.p0i8.i64(i8* align 8 %64, i8* align 8 %65, i64 240, i1 false), !dbg !1799
  %_149 = getelementptr inbounds %"pkg_config::Library", %"pkg_config::Library"* %lib, i32 0, i32 6, !dbg !1800
; invoke alloc::vec::Vec<T,A>::pop
  invoke void @"_ZN5alloc3vec16Vec$LT$T$C$A$GT$3pop17h1697dfea2eb8994eE"(%"core::option::Option<std::path::PathBuf>"* sret(%"core::option::Option<std::path::PathBuf>") %_148, %"alloc::vec::Vec<std::path::PathBuf>"* align 8 %_149)
          to label %bb65 unwind label %cleanup3, !dbg !1800

bb62:                                             ; preds = %bb61
; invoke build_script_build::build_linked::find_link_mode
  %66 = invoke { [0 x i8]*, i64 } @_ZN18build_script_build12build_linked14find_link_mode17h63600f31424ca2b1E()
          to label %bb72 unwind label %cleanup2, !dbg !1801

bb97:                                             ; preds = %bb82, %cleanup2
  %67 = bitcast %"core::result::Result<pkg_config::Library, pkg_config::Error>"* %_140 to i64*, !dbg !1796
  %_190 = load i64, i64* %67, align 8, !dbg !1796, !range !1042, !noundef !23
  %68 = icmp eq i64 %_190, 0, !dbg !1796
  br i1 %68, label %bb83, label %bb96, !dbg !1796

cleanup2:                                         ; preds = %bb88, %bb75, %bb74, %bb73, %bb72, %bb62
  %69 = landingpad { i8*, i32 }
          cleanup
  %70 = extractvalue { i8*, i32 } %69, 0
  %71 = extractvalue { i8*, i32 } %69, 1
  %72 = getelementptr inbounds { i8*, i32 }, { i8*, i32 }* %1, i32 0, i32 0
  store i8* %70, i8** %72, align 8
  %73 = getelementptr inbounds { i8*, i32 }, { i8*, i32 }* %1, i32 0, i32 1
  store i32 %71, i32* %73, align 8
  br label %bb97

bb72:                                             ; preds = %bb62
  store { [0 x i8]*, i64 } %66, { [0 x i8]*, i64 }* %_171, align 8, !dbg !1801
; invoke core::fmt::ArgumentV1::new_display
  %74 = invoke { i8*, i64* } @_ZN4core3fmt10ArgumentV111new_display17ha70c58eb66a705fdE({ [0 x i8]*, i64 }* align 8 %_171)
          to label %bb73 unwind label %cleanup2, !dbg !1802

bb73:                                             ; preds = %bb72
  %_168.0 = extractvalue { i8*, i64* } %74, 0, !dbg !1802
  %_168.1 = extractvalue { i8*, i64* } %74, 1, !dbg !1802
; invoke core::fmt::ArgumentV1::new_display
  %75 = invoke { i8*, i64* } @_ZN4core3fmt10ArgumentV111new_display17ha70c58eb66a705fdE({ [0 x i8]*, i64 }* align 8 %link_lib)
          to label %bb74 unwind label %cleanup2, !dbg !1802

bb74:                                             ; preds = %bb73
  %_172.0 = extractvalue { i8*, i64* } %75, 0, !dbg !1802
  %_172.1 = extractvalue { i8*, i64* } %75, 1, !dbg !1802
  %76 = bitcast [2 x { i8*, i64* }]* %_167 to { i8*, i64* }*, !dbg !1802
  %77 = getelementptr inbounds { i8*, i64* }, { i8*, i64* }* %76, i32 0, i32 0, !dbg !1802
  store i8* %_168.0, i8** %77, align 8, !dbg !1802
  %78 = getelementptr inbounds { i8*, i64* }, { i8*, i64* }* %76, i32 0, i32 1, !dbg !1802
  store i64* %_168.1, i64** %78, align 8, !dbg !1802
  %79 = getelementptr inbounds [2 x { i8*, i64* }], [2 x { i8*, i64* }]* %_167, i32 0, i32 1, !dbg !1802
  %80 = getelementptr inbounds { i8*, i64* }, { i8*, i64* }* %79, i32 0, i32 0, !dbg !1802
  store i8* %_172.0, i8** %80, align 8, !dbg !1802
  %81 = getelementptr inbounds { i8*, i64* }, { i8*, i64* }* %79, i32 0, i32 1, !dbg !1802
  store i64* %_172.1, i64** %81, align 8, !dbg !1802
  %_164.0 = bitcast [2 x { i8*, i64* }]* %_167 to [0 x { i8*, i64* }]*, !dbg !1802
; invoke core::fmt::Arguments::new_v1
  invoke void @_ZN4core3fmt9Arguments6new_v117h7ec2561a46cebd19E(%"core::fmt::Arguments"* sret(%"core::fmt::Arguments") %_160, [0 x { [0 x i8]*, i64 }]* align 8 bitcast (<{ i8*, [8 x i8], i8*, [8 x i8], i8*, [8 x i8] }>* @alloc76 to [0 x { [0 x i8]*, i64 }]*), i64 3, [0 x { i8*, i64* }]* align 8 %_164.0, i64 2)
          to label %bb75 unwind label %cleanup2, !dbg !1802

bb75:                                             ; preds = %bb74
; invoke std::io::stdio::_print
  invoke void @_ZN3std2io5stdio6_print17h5851c977dd65b5e0E(%"core::fmt::Arguments"* %_160)
          to label %bb76 unwind label %cleanup2, !dbg !1802

bb76:                                             ; preds = %bb75
  %82 = bitcast %HeaderLocation* %0 to i64*, !dbg !1803
  store i64 1, i64* %82, align 8, !dbg !1803
  br label %bb77, !dbg !1803

bb77:                                             ; preds = %bb88, %bb76
  %83 = bitcast %"core::result::Result<pkg_config::Library, pkg_config::Error>"* %_140 to i64*, !dbg !1796
  %_188 = load i64, i64* %83, align 8, !dbg !1796, !range !1042, !noundef !23
  %84 = icmp eq i64 %_188, 0, !dbg !1796
  br i1 %84, label %bb92, label %bb93, !dbg !1796

bb82:                                             ; preds = %bb95, %cleanup3
; invoke core::ptr::drop_in_place<pkg_config::Library>
  invoke void @"_ZN4core3ptr40drop_in_place$LT$pkg_config..Library$GT$17h706776d7925ad5b1E"(%"pkg_config::Library"* %lib) #9
          to label %bb97 unwind label %abort, !dbg !1804

cleanup3:                                         ; preds = %bb90, %bb64
  %85 = landingpad { i8*, i32 }
          cleanup
  %86 = extractvalue { i8*, i32 } %85, 0
  %87 = extractvalue { i8*, i32 } %85, 1
  %88 = getelementptr inbounds { i8*, i32 }, { i8*, i32 }* %1, i32 0, i32 0
  store i8* %86, i8** %88, align 8
  %89 = getelementptr inbounds { i8*, i32 }, { i8*, i32 }* %1, i32 0, i32 1
  store i32 %87, i32* %89, align 8
  br label %bb82

bb65:                                             ; preds = %bb64
  store i8 1, i8* %_186, align 1, !dbg !1805
  %90 = bitcast %"core::option::Option<std::path::PathBuf>"* %_148 to {}**, !dbg !1806
  %91 = load {}*, {}** %90, align 8, !dbg !1806
  %92 = icmp eq {}* %91, null, !dbg !1806
  %_150 = select i1 %92, i64 0, i64 1, !dbg !1806
  %93 = icmp eq i64 %_150, 1, !dbg !1806
  br i1 %93, label %bb66, label %bb71, !dbg !1806

bb66:                                             ; preds = %bb65
  store i8 0, i8* %_186, align 1, !dbg !1767
  %94 = bitcast %"core::option::Option<std::path::PathBuf>"* %_148 to %"core::option::Option<std::path::PathBuf>::Some"*, !dbg !1767
  %95 = bitcast %"core::option::Option<std::path::PathBuf>::Some"* %94 to %"std::path::PathBuf"*, !dbg !1767
  %96 = bitcast %"std::path::PathBuf"* %header1 to i8*, !dbg !1767
  %97 = bitcast %"std::path::PathBuf"* %95 to i8*, !dbg !1767
  call void @llvm.memcpy.p0i8.p0i8.i64(i8* align 8 %96, i8* align 8 %97, i64 24, i1 false), !dbg !1767
; invoke std::path::PathBuf::push
  invoke void @_ZN3std4path7PathBuf4push17he27680098e429ae9E(%"std::path::PathBuf"* align 8 %header1, [0 x i8]* align 1 bitcast (<{ [9 x i8] }>* @alloc242 to [0 x i8]*), i64 9)
          to label %bb67 unwind label %cleanup4, !dbg !1807

bb71:                                             ; preds = %bb65
  %98 = bitcast %HeaderLocation* %0 to i64*, !dbg !1808
  store i64 1, i64* %98, align 8, !dbg !1808
  br label %bb91, !dbg !1809

bb91:                                             ; preds = %bb70, %bb71
  %99 = bitcast %"core::option::Option<std::path::PathBuf>"* %_148 to {}**, !dbg !1810
  %100 = load {}*, {}** %99, align 8, !dbg !1810
  %101 = icmp eq {}* %100, null, !dbg !1810
  %_187 = select i1 %101, i64 0, i64 1, !dbg !1810
  %102 = icmp eq i64 %_187, 1, !dbg !1810
  br i1 %102, label %bb89, label %bb88, !dbg !1810

bb81:                                             ; preds = %cleanup4
; invoke core::ptr::drop_in_place<std::path::PathBuf>
  invoke void @"_ZN4core3ptr39drop_in_place$LT$std..path..PathBuf$GT$17hadfdda033a88cdb4E"(%"std::path::PathBuf"* %header1) #9
          to label %bb95 unwind label %abort, !dbg !1811

cleanup4:                                         ; preds = %bb69, %bb68, %bb67, %bb66
  %103 = landingpad { i8*, i32 }
          cleanup
  %104 = extractvalue { i8*, i32 } %103, 0
  %105 = extractvalue { i8*, i32 } %103, 1
  %106 = getelementptr inbounds { i8*, i32 }, { i8*, i32 }* %1, i32 0, i32 0
  store i8* %104, i8** %106, align 8
  %107 = getelementptr inbounds { i8*, i32 }, { i8*, i32 }* %1, i32 0, i32 1
  store i32 %105, i32* %107, align 8
  br label %bb81

bb67:                                             ; preds = %bb66
; invoke <std::path::PathBuf as core::ops::deref::Deref>::deref
  %108 = invoke { %"std::path::Path"*, i64 } @"_ZN62_$LT$std..path..PathBuf$u20$as$u20$core..ops..deref..Deref$GT$5deref17h9ea0691e8b1c04f0E"(%"std::path::PathBuf"* align 8 %header1)
          to label %bb68 unwind label %cleanup4, !dbg !1812

bb68:                                             ; preds = %bb67
  %_157.0 = extractvalue { %"std::path::Path"*, i64 } %108, 0, !dbg !1812
  %_157.1 = extractvalue { %"std::path::Path"*, i64 } %108, 1, !dbg !1812
; invoke std::path::Path::to_string_lossy
  invoke void @_ZN3std4path4Path15to_string_lossy17h6dcfe681c09eac21E(%"alloc::borrow::Cow<str>"* sret(%"alloc::borrow::Cow<str>") %_155, %"std::path::Path"* align 1 %_157.0, i64 %_157.1)
          to label %bb69 unwind label %cleanup4, !dbg !1812

bb69:                                             ; preds = %bb68
; invoke <T as core::convert::Into<U>>::into
  invoke void @"_ZN50_$LT$T$u20$as$u20$core..convert..Into$LT$U$GT$$GT$4into17hede75ea6862c3e84E"(%"alloc::string::String"* sret(%"alloc::string::String") %_154, %"alloc::borrow::Cow<str>"* %_155)
          to label %bb70 unwind label %cleanup4, !dbg !1812

bb70:                                             ; preds = %bb69
  %109 = bitcast %HeaderLocation* %0 to %"HeaderLocation::FromPath"*, !dbg !1813
  %110 = getelementptr inbounds %"HeaderLocation::FromPath", %"HeaderLocation::FromPath"* %109, i32 0, i32 1, !dbg !1813
  %111 = bitcast %"alloc::string::String"* %110 to i8*, !dbg !1813
  %112 = bitcast %"alloc::string::String"* %_154 to i8*, !dbg !1813
  call void @llvm.memcpy.p0i8.p0i8.i64(i8* align 8 %111, i8* align 8 %112, i64 24, i1 false), !dbg !1813
  %113 = bitcast %HeaderLocation* %0 to i64*, !dbg !1813
  store i64 2, i64* %113, align 8, !dbg !1813
; invoke core::ptr::drop_in_place<std::path::PathBuf>
  invoke void @"_ZN4core3ptr39drop_in_place$LT$std..path..PathBuf$GT$17hadfdda033a88cdb4E"(%"std::path::PathBuf"* %header1)
          to label %bb91 unwind label %cleanup5, !dbg !1811

abort:                                            ; preds = %bb98, %bb86, %bb85, %bb84, %bb83, %bb96, %bb82, %bb81
  %114 = landingpad { i8*, i32 }
          cleanup, !dbg !1814
; call core::panicking::panic_no_unwind
  call void @_ZN4core9panicking15panic_no_unwind17h57180e694165966aE() #10, !dbg !1814
  unreachable, !dbg !1814

bb95:                                             ; preds = %cleanup5, %bb81
  br label %bb82, !dbg !1810

cleanup5:                                         ; preds = %bb70
  %115 = landingpad { i8*, i32 }
          cleanup
  %116 = extractvalue { i8*, i32 } %115, 0
  %117 = extractvalue { i8*, i32 } %115, 1
  %118 = getelementptr inbounds { i8*, i32 }, { i8*, i32 }* %1, i32 0, i32 0
  store i8* %116, i8** %118, align 8
  %119 = getelementptr inbounds { i8*, i32 }, { i8*, i32 }* %1, i32 0, i32 1
  store i32 %117, i32* %119, align 8
  br label %bb95

bb89:                                             ; preds = %bb91
  %120 = load i8, i8* %_186, align 1, !dbg !1810, !range !878, !noundef !23
  %121 = trunc i8 %120 to i1, !dbg !1810
  br i1 %121, label %bb90, label %bb88, !dbg !1810

bb88:                                             ; preds = %bb90, %bb89, %bb91
  store i8 0, i8* %_186, align 1, !dbg !1810
; invoke core::ptr::drop_in_place<pkg_config::Library>
  invoke void @"_ZN4core3ptr40drop_in_place$LT$pkg_config..Library$GT$17h706776d7925ad5b1E"(%"pkg_config::Library"* %lib)
          to label %bb77 unwind label %cleanup2, !dbg !1804

bb90:                                             ; preds = %bb89
  %122 = bitcast %"core::option::Option<std::path::PathBuf>"* %_148 to %"core::option::Option<std::path::PathBuf>::Some"*, !dbg !1810
  %123 = bitcast %"core::option::Option<std::path::PathBuf>::Some"* %122 to %"std::path::PathBuf"*, !dbg !1810
; invoke core::ptr::drop_in_place<std::path::PathBuf>
  invoke void @"_ZN4core3ptr39drop_in_place$LT$std..path..PathBuf$GT$17hadfdda033a88cdb4E"(%"std::path::PathBuf"* %123)
          to label %bb88 unwind label %cleanup3, !dbg !1810

bb96:                                             ; preds = %bb97
; invoke core::ptr::drop_in_place<core::result::Result<pkg_config::Library,pkg_config::Error>>
  invoke void @"_ZN4core3ptr88drop_in_place$LT$core..result..Result$LT$pkg_config..Library$C$pkg_config..Error$GT$$GT$17hd2ec87a67d229e31E"(%"core::result::Result<pkg_config::Library, pkg_config::Error>"* %_140) #9
          to label %bb83 unwind label %abort, !dbg !1796

bb92:                                             ; preds = %bb93, %bb77
; call core::ptr::drop_in_place<pkg_config::Config>
  call void @"_ZN4core3ptr39drop_in_place$LT$pkg_config..Config$GT$17h714036b37b055f95E"(%"pkg_config::Config"* %_144), !dbg !1796
  br label %bb78, !dbg !1796

bb93:                                             ; preds = %bb77
; invoke core::ptr::drop_in_place<core::result::Result<pkg_config::Library,pkg_config::Error>>
  invoke void @"_ZN4core3ptr88drop_in_place$LT$core..result..Result$LT$pkg_config..Library$C$pkg_config..Error$GT$$GT$17hd2ec87a67d229e31E"(%"core::result::Result<pkg_config::Library, pkg_config::Error>"* %_140)
          to label %bb92 unwind label %cleanup, !dbg !1796

bb87:                                             ; preds = %bb98, %bb99, %bb83
  %124 = bitcast { i8*, i32 }* %1 to i8**, !dbg !1814
  %125 = load i8*, i8** %124, align 8, !dbg !1814
  %126 = getelementptr inbounds { i8*, i32 }, { i8*, i32 }* %1, i32 0, i32 1, !dbg !1814
  %127 = load i32, i32* %126, align 8, !dbg !1814
  %128 = insertvalue { i8*, i32 } undef, i8* %125, 0, !dbg !1814
  %129 = insertvalue { i8*, i32 } %128, i32 %127, 1, !dbg !1814
  resume { i8*, i32 } %129, !dbg !1814

bb78:                                             ; preds = %bb92
  br label %bb80, !dbg !1785

bb86:                                             ; preds = %bb85, %cleanup6
; invoke core::ptr::drop_in_place<alloc::string::String>
  invoke void @"_ZN4core3ptr42drop_in_place$LT$alloc..string..String$GT$17ha0248625f7cefe65E"(%"alloc::string::String"* %dir) #9
          to label %bb99 unwind label %abort, !dbg !1790

cleanup6:                                         ; preds = %bb51, %bb50, %bb49, %bb48, %bb47, %bb46, %bb45, %bb44, %bb42, %bb38, %bb37, %bb36, %bb35
  %130 = landingpad { i8*, i32 }
          cleanup
  %131 = extractvalue { i8*, i32 } %130, 0
  %132 = extractvalue { i8*, i32 } %130, 1
  %133 = getelementptr inbounds { i8*, i32 }, { i8*, i32 }* %1, i32 0, i32 0
  store i8* %131, i8** %133, align 8
  %134 = getelementptr inbounds { i8*, i32 }, { i8*, i32 }* %1, i32 0, i32 1
  store i32 %132, i32* %134, align 8
  br label %bb86

bb36:                                             ; preds = %bb35
  %_98.0 = extractvalue { %"std::path::Path"*, i64 } %42, 0, !dbg !1789
  %_98.1 = extractvalue { %"std::path::Path"*, i64 } %42, 1, !dbg !1789
; invoke std::path::Path::join
  invoke void @_ZN3std4path4Path4join17hfe3d8a26aceed3ebE(%"std::path::PathBuf"* sret(%"std::path::PathBuf") %pkgconfig_path, %"std::path::Path"* align 1 %_98.0, i64 %_98.1, [0 x i8]* align 1 bitcast (<{ [9 x i8] }>* @alloc239 to [0 x i8]*), i64 9)
          to label %bb37 unwind label %cleanup6, !dbg !1789

bb37:                                             ; preds = %bb36
  %135 = bitcast %"std::path::PathBuf"* %_102 to i8*, !dbg !1815
  %136 = bitcast %"std::path::PathBuf"* %pkgconfig_path to i8*, !dbg !1815
  call void @llvm.memcpy.p0i8.p0i8.i64(i8* align 8 %135, i8* align 8 %136, i64 24, i1 false), !dbg !1815
; invoke std::env::set_var
  invoke void @_ZN3std3env7set_var17h5bf5fa45aa95334bE([0 x i8]* align 1 bitcast (<{ [15 x i8] }>* @alloc240 to [0 x i8]*), i64 15, %"std::path::PathBuf"* %_102)
          to label %bb38 unwind label %cleanup6, !dbg !1816

bb38:                                             ; preds = %bb37
; invoke pkg_config::Config::new
  invoke void @_ZN10pkg_config6Config3new17h78e60987b0f56131E(%"pkg_config::Config"* sret(%"pkg_config::Config") %_107)
          to label %bb39 unwind label %cleanup6, !dbg !1817

bb39:                                             ; preds = %bb38
  %137 = getelementptr inbounds { [0 x i8]*, i64 }, { [0 x i8]*, i64 }* %link_lib, i32 0, i32 0, !dbg !1818
  %_108.0 = load [0 x i8]*, [0 x i8]** %137, align 8, !dbg !1818, !nonnull !23, !align !317, !noundef !23
  %138 = getelementptr inbounds { [0 x i8]*, i64 }, { [0 x i8]*, i64 }* %link_lib, i32 0, i32 1, !dbg !1818
  %_108.1 = load i64, i64* %138, align 8, !dbg !1818
; invoke pkg_config::Config::probe
  invoke void @_ZN10pkg_config6Config5probe17h05a31496c9e4823bE(%"core::result::Result<pkg_config::Library, pkg_config::Error>"* sret(%"core::result::Result<pkg_config::Library, pkg_config::Error>") %_105, %"pkg_config::Config"* align 8 %_107, [0 x i8]* align 1 %_108.0, i64 %_108.1)
          to label %bb40 unwind label %cleanup7, !dbg !1817

bb85:                                             ; preds = %bb84, %cleanup7
; invoke core::ptr::drop_in_place<pkg_config::Config>
  invoke void @"_ZN4core3ptr39drop_in_place$LT$pkg_config..Config$GT$17h714036b37b055f95E"(%"pkg_config::Config"* %_107) #9
          to label %bb86 unwind label %abort, !dbg !1819

cleanup7:                                         ; preds = %bb41, %bb39
  %139 = landingpad { i8*, i32 }
          cleanup
  %140 = extractvalue { i8*, i32 } %139, 0
  %141 = extractvalue { i8*, i32 } %139, 1
  %142 = getelementptr inbounds { i8*, i32 }, { i8*, i32 }* %1, i32 0, i32 0
  store i8* %140, i8** %142, align 8
  %143 = getelementptr inbounds { i8*, i32 }, { i8*, i32 }* %1, i32 0, i32 1
  store i32 %141, i32* %143, align 8
  br label %bb85

bb40:                                             ; preds = %bb39
; invoke core::result::Result<T,E>::is_err
  %_103 = invoke zeroext i1 @"_ZN4core6result19Result$LT$T$C$E$GT$6is_err17h4480861a67271e91E"(%"core::result::Result<pkg_config::Library, pkg_config::Error>"* align 8 %_105)
          to label %bb41 unwind label %cleanup8, !dbg !1817

bb84:                                             ; preds = %cleanup8
; invoke core::ptr::drop_in_place<core::result::Result<pkg_config::Library,pkg_config::Error>>
  invoke void @"_ZN4core3ptr88drop_in_place$LT$core..result..Result$LT$pkg_config..Library$C$pkg_config..Error$GT$$GT$17hd2ec87a67d229e31E"(%"core::result::Result<pkg_config::Library, pkg_config::Error>"* %_105) #9
          to label %bb85 unwind label %abort, !dbg !1819

cleanup8:                                         ; preds = %bb40
  %144 = landingpad { i8*, i32 }
          cleanup
  %145 = extractvalue { i8*, i32 } %144, 0
  %146 = extractvalue { i8*, i32 } %144, 1
  %147 = getelementptr inbounds { i8*, i32 }, { i8*, i32 }* %1, i32 0, i32 0
  store i8* %145, i8** %147, align 8
  %148 = getelementptr inbounds { i8*, i32 }, { i8*, i32 }* %1, i32 0, i32 1
  store i32 %146, i32* %148, align 8
  br label %bb84

bb41:                                             ; preds = %bb40
; invoke core::ptr::drop_in_place<core::result::Result<pkg_config::Library,pkg_config::Error>>
  invoke void @"_ZN4core3ptr88drop_in_place$LT$core..result..Result$LT$pkg_config..Library$C$pkg_config..Error$GT$$GT$17hd2ec87a67d229e31E"(%"core::result::Result<pkg_config::Library, pkg_config::Error>"* %_105)
          to label %bb42 unwind label %cleanup7, !dbg !1819

bb42:                                             ; preds = %bb41
; invoke core::ptr::drop_in_place<pkg_config::Config>
  invoke void @"_ZN4core3ptr39drop_in_place$LT$pkg_config..Config$GT$17h714036b37b055f95E"(%"pkg_config::Config"* %_107)
          to label %bb43 unwind label %cleanup6, !dbg !1819

bb43:                                             ; preds = %bb42
  br i1 %_103, label %bb44, label %bb52, !dbg !1817

bb52:                                             ; preds = %bb100, %bb43
  %149 = bitcast %HeaderLocation* %0 to i64*, !dbg !1820
  store i64 0, i64* %149, align 8, !dbg !1820
; invoke core::ptr::drop_in_place<alloc::string::String>
  invoke void @"_ZN4core3ptr42drop_in_place$LT$alloc..string..String$GT$17ha0248625f7cefe65E"(%"alloc::string::String"* %dir)
          to label %bb79 unwind label %cleanup9, !dbg !1790

bb44:                                             ; preds = %bb43
; invoke build_script_build::build_linked::find_link_mode
  %150 = invoke { [0 x i8]*, i64 } @_ZN18build_script_build12build_linked14find_link_mode17h63600f31424ca2b1E()
          to label %bb45 unwind label %cleanup6, !dbg !1821

bb45:                                             ; preds = %bb44
  store { [0 x i8]*, i64 } %150, { [0 x i8]*, i64 }* %_121, align 8, !dbg !1821
; invoke core::fmt::ArgumentV1::new_display
  %151 = invoke { i8*, i64* } @_ZN4core3fmt10ArgumentV111new_display17ha70c58eb66a705fdE({ [0 x i8]*, i64 }* align 8 %_121)
          to label %bb46 unwind label %cleanup6, !dbg !1822

bb46:                                             ; preds = %bb45
  %_118.0 = extractvalue { i8*, i64* } %151, 0, !dbg !1822
  %_118.1 = extractvalue { i8*, i64* } %151, 1, !dbg !1822
; invoke core::fmt::ArgumentV1::new_display
  %152 = invoke { i8*, i64* } @_ZN4core3fmt10ArgumentV111new_display17ha70c58eb66a705fdE({ [0 x i8]*, i64 }* align 8 %link_lib)
          to label %bb47 unwind label %cleanup6, !dbg !1822

bb47:                                             ; preds = %bb46
  %_122.0 = extractvalue { i8*, i64* } %152, 0, !dbg !1822
  %_122.1 = extractvalue { i8*, i64* } %152, 1, !dbg !1822
  %153 = bitcast [2 x { i8*, i64* }]* %_117 to { i8*, i64* }*, !dbg !1822
  %154 = getelementptr inbounds { i8*, i64* }, { i8*, i64* }* %153, i32 0, i32 0, !dbg !1822
  store i8* %_118.0, i8** %154, align 8, !dbg !1822
  %155 = getelementptr inbounds { i8*, i64* }, { i8*, i64* }* %153, i32 0, i32 1, !dbg !1822
  store i64* %_118.1, i64** %155, align 8, !dbg !1822
  %156 = getelementptr inbounds [2 x { i8*, i64* }], [2 x { i8*, i64* }]* %_117, i32 0, i32 1, !dbg !1822
  %157 = getelementptr inbounds { i8*, i64* }, { i8*, i64* }* %156, i32 0, i32 0, !dbg !1822
  store i8* %_122.0, i8** %157, align 8, !dbg !1822
  %158 = getelementptr inbounds { i8*, i64* }, { i8*, i64* }* %156, i32 0, i32 1, !dbg !1822
  store i64* %_122.1, i64** %158, align 8, !dbg !1822
  %_114.0 = bitcast [2 x { i8*, i64* }]* %_117 to [0 x { i8*, i64* }]*, !dbg !1822
; invoke core::fmt::Arguments::new_v1
  invoke void @_ZN4core3fmt9Arguments6new_v117h7ec2561a46cebd19E(%"core::fmt::Arguments"* sret(%"core::fmt::Arguments") %_110, [0 x { [0 x i8]*, i64 }]* align 8 bitcast (<{ i8*, [8 x i8], i8*, [8 x i8], i8*, [8 x i8] }>* @alloc76 to [0 x { [0 x i8]*, i64 }]*), i64 3, [0 x { i8*, i64* }]* align 8 %_114.0, i64 2)
          to label %bb48 unwind label %cleanup6, !dbg !1822

bb48:                                             ; preds = %bb47
; invoke std::io::stdio::_print
  invoke void @_ZN3std2io5stdio6_print17h5851c977dd65b5e0E(%"core::fmt::Arguments"* %_110)
          to label %bb49 unwind label %cleanup6, !dbg !1822

bb49:                                             ; preds = %bb48
; invoke core::fmt::ArgumentV1::new_display
  %159 = invoke { i8*, i64* } @_ZN4core3fmt10ArgumentV111new_display17h36d8d48d03cde505E(%"alloc::string::String"* align 8 %dir)
          to label %bb50 unwind label %cleanup6, !dbg !1823

bb50:                                             ; preds = %bb49
  %_134.0 = extractvalue { i8*, i64* } %159, 0, !dbg !1823
  %_134.1 = extractvalue { i8*, i64* } %159, 1, !dbg !1823
  %160 = bitcast [1 x { i8*, i64* }]* %_133 to { i8*, i64* }*, !dbg !1823
  %161 = getelementptr inbounds { i8*, i64* }, { i8*, i64* }* %160, i32 0, i32 0, !dbg !1823
  store i8* %_134.0, i8** %161, align 8, !dbg !1823
  %162 = getelementptr inbounds { i8*, i64* }, { i8*, i64* }* %160, i32 0, i32 1, !dbg !1823
  store i64* %_134.1, i64** %162, align 8, !dbg !1823
  %_130.0 = bitcast [1 x { i8*, i64* }]* %_133 to [0 x { i8*, i64* }]*, !dbg !1823
; invoke core::fmt::Arguments::new_v1
  invoke void @_ZN4core3fmt9Arguments6new_v117h7ec2561a46cebd19E(%"core::fmt::Arguments"* sret(%"core::fmt::Arguments") %_126, [0 x { [0 x i8]*, i64 }]* align 8 bitcast (<{ i8*, [8 x i8], i8*, [8 x i8] }>* @alloc81 to [0 x { [0 x i8]*, i64 }]*), i64 2, [0 x { i8*, i64* }]* align 8 %_130.0, i64 1)
          to label %bb51 unwind label %cleanup6, !dbg !1823

bb51:                                             ; preds = %bb50
; invoke std::io::stdio::_print
  invoke void @_ZN3std2io5stdio6_print17h5851c977dd65b5e0E(%"core::fmt::Arguments"* %_126)
          to label %bb100 unwind label %cleanup6, !dbg !1823

bb100:                                            ; preds = %bb51
  br label %bb52, !dbg !1823

bb99:                                             ; preds = %cleanup9, %bb86
  %163 = bitcast %"core::result::Result<alloc::string::String, std::env::VarError>"* %_79 to i64*, !dbg !1790
  %_191 = load i64, i64* %163, align 8, !dbg !1790, !range !1042, !noundef !23
  %164 = icmp eq i64 %_191, 0, !dbg !1790
  br i1 %164, label %bb87, label %bb98, !dbg !1790

cleanup9:                                         ; preds = %bb52
  %165 = landingpad { i8*, i32 }
          cleanup
  %166 = extractvalue { i8*, i32 } %165, 0
  %167 = extractvalue { i8*, i32 } %165, 1
  %168 = getelementptr inbounds { i8*, i32 }, { i8*, i32 }* %1, i32 0, i32 0
  store i8* %166, i8** %168, align 8
  %169 = getelementptr inbounds { i8*, i32 }, { i8*, i32 }* %1, i32 0, i32 1
  store i32 %167, i32* %169, align 8
  br label %bb99

bb79:                                             ; preds = %bb52
  %170 = bitcast %"core::result::Result<alloc::string::String, std::env::VarError>"* %_79 to i64*, !dbg !1790
  %_189 = load i64, i64* %170, align 8, !dbg !1790, !range !1042, !noundef !23
  %171 = icmp eq i64 %_189, 0, !dbg !1790
  br i1 %171, label %bb80, label %bb94, !dbg !1790

bb98:                                             ; preds = %bb99
; invoke core::ptr::drop_in_place<core::result::Result<alloc::string::String,std::env::VarError>>
  invoke void @"_ZN4core3ptr91drop_in_place$LT$core..result..Result$LT$alloc..string..String$C$std..env..VarError$GT$$GT$17h480226cd1955d9bcE"(%"core::result::Result<alloc::string::String, std::env::VarError>"* %_79) #9
          to label %bb87 unwind label %abort, !dbg !1790

bb94:                                             ; preds = %bb79
; call core::ptr::drop_in_place<core::result::Result<alloc::string::String,std::env::VarError>>
  call void @"_ZN4core3ptr91drop_in_place$LT$core..result..Result$LT$alloc..string..String$C$std..env..VarError$GT$$GT$17h480226cd1955d9bcE"(%"core::result::Result<alloc::string::String, std::env::VarError>"* %_79), !dbg !1790
  br label %bb80, !dbg !1790
}

; build_script_build::build_linked::try_vcpkg
; Function Attrs: nonlazybind uwtable
define internal void @_ZN18build_script_build12build_linked9try_vcpkg17hecb1792538ac6e17E(%"core::option::Option<HeaderLocation>"* sret(%"core::option::Option<HeaderLocation>") %0) unnamed_addr #2 personality i32 (i32, i32, i64, %"unwind::libunwind::_Unwind_Exception"*, %"unwind::libunwind::_Unwind_Context"*)* @rust_eh_personality !dbg !1824 {
start:
  %1 = alloca { i8*, i32 }, align 8
  %_24 = alloca i8, align 1
  %_20 = alloca %"alloc::borrow::Cow<str>", align 8
  %_19 = alloca %"alloc::string::String", align 8
  %_18 = alloca %HeaderLocation, align 8
  %header = alloca %"std::path::PathBuf", align 8
  %_12 = alloca %"core::option::Option<std::path::PathBuf>", align 8
  %lib = alloca %"vcpkg::Library", align 8
  %_7 = alloca %"vcpkg::Config", align 8
  %_5 = alloca %"core::result::Result<vcpkg::Library, vcpkg::Error>", align 8
  call void @llvm.dbg.declare(metadata %"vcpkg::Library"* %lib, metadata !1828, metadata !DIExpression()), !dbg !1832
  call void @llvm.dbg.declare(metadata %"std::path::PathBuf"* %header, metadata !1830, metadata !DIExpression()), !dbg !1833
  store i8 0, i8* %_24, align 1, !dbg !1834
; call build_script_build::is_compiler
  %_2 = call zeroext i1 @_ZN18build_script_build11is_compiler17h3a79101e7083f6a2E([0 x i8]* align 1 bitcast (<{ [4 x i8] }>* @alloc241 to [0 x i8]*), i64 4), !dbg !1835
  br label %bb1, !dbg !1835

bb1:                                              ; preds = %start
  br i1 %_2, label %bb2, label %bb16, !dbg !1834

bb16:                                             ; preds = %bb1
  %2 = bitcast %"core::option::Option<HeaderLocation>"* %0 to i64*, !dbg !1836
  store i64 3, i64* %2, align 8, !dbg !1836
  br label %bb20, !dbg !1837

bb2:                                              ; preds = %bb1
; call vcpkg::Config::new
  call void @_ZN5vcpkg6Config3new17h606f41f197182705E(%"vcpkg::Config"* sret(%"vcpkg::Config") %_7), !dbg !1838
  br label %bb3, !dbg !1838

bb3:                                              ; preds = %bb2
; invoke build_script_build::lib_name
  %3 = invoke { [0 x i8]*, i64 } @_ZN18build_script_build8lib_name17hb54b302bd421323dE()
          to label %bb4 unwind label %cleanup, !dbg !1839

bb23:                                             ; preds = %bb33, %bb34, %cleanup
; invoke core::ptr::drop_in_place<vcpkg::Config>
  invoke void @"_ZN4core3ptr34drop_in_place$LT$vcpkg..Config$GT$17hbbd5c83c136fe0f4E"(%"vcpkg::Config"* %_7) #9
          to label %bb24 unwind label %abort, !dbg !1840

cleanup:                                          ; preds = %bb31, %bb27, %bb28, %bb4, %bb3
  %4 = landingpad { i8*, i32 }
          cleanup
  %5 = extractvalue { i8*, i32 } %4, 0
  %6 = extractvalue { i8*, i32 } %4, 1
  %7 = getelementptr inbounds { i8*, i32 }, { i8*, i32 }* %1, i32 0, i32 0
  store i8* %5, i8** %7, align 8
  %8 = getelementptr inbounds { i8*, i32 }, { i8*, i32 }* %1, i32 0, i32 1
  store i32 %6, i32* %8, align 8
  br label %bb23

bb4:                                              ; preds = %bb3
  %_9.0 = extractvalue { [0 x i8]*, i64 } %3, 0, !dbg !1839
  %_9.1 = extractvalue { [0 x i8]*, i64 } %3, 1, !dbg !1839
; invoke vcpkg::Config::probe
  invoke void @_ZN5vcpkg6Config5probe17hd402d2bb29fece5aE(%"core::result::Result<vcpkg::Library, vcpkg::Error>"* sret(%"core::result::Result<vcpkg::Library, vcpkg::Error>") %_5, %"vcpkg::Config"* align 8 %_7, [0 x i8]* align 1 %_9.0, i64 %_9.1)
          to label %bb5 unwind label %cleanup, !dbg !1838

bb5:                                              ; preds = %bb4
  store i8 1, i8* %_24, align 1, !dbg !1841
  %9 = bitcast %"core::result::Result<vcpkg::Library, vcpkg::Error>"* %_5 to i64*, !dbg !1842
  %_10 = load i64, i64* %9, align 8, !dbg !1842, !range !1042, !noundef !23
  %10 = icmp eq i64 %_10, 0, !dbg !1842
  br i1 %10, label %bb6, label %bb29, !dbg !1842

bb6:                                              ; preds = %bb5
  store i8 0, i8* %_24, align 1, !dbg !1832
  %11 = bitcast %"core::result::Result<vcpkg::Library, vcpkg::Error>"* %_5 to %"core::result::Result<vcpkg::Library, vcpkg::Error>::Ok"*, !dbg !1832
  %12 = getelementptr inbounds %"core::result::Result<vcpkg::Library, vcpkg::Error>::Ok", %"core::result::Result<vcpkg::Library, vcpkg::Error>::Ok"* %11, i32 0, i32 1, !dbg !1832
  %13 = bitcast %"vcpkg::Library"* %lib to i8*, !dbg !1832
  %14 = bitcast %"vcpkg::Library"* %12 to i8*, !dbg !1832
  call void @llvm.memcpy.p0i8.p0i8.i64(i8* align 8 %13, i8* align 8 %14, i64 224, i1 false), !dbg !1832
  %_13 = getelementptr inbounds %"vcpkg::Library", %"vcpkg::Library"* %lib, i32 0, i32 2, !dbg !1843
; invoke alloc::vec::Vec<T,A>::pop
  invoke void @"_ZN5alloc3vec16Vec$LT$T$C$A$GT$3pop17h1697dfea2eb8994eE"(%"core::option::Option<std::path::PathBuf>"* sret(%"core::option::Option<std::path::PathBuf>") %_12, %"alloc::vec::Vec<std::path::PathBuf>"* align 8 %_13)
          to label %bb7 unwind label %cleanup1, !dbg !1843

bb29:                                             ; preds = %bb14, %bb5
  %15 = bitcast %"core::result::Result<vcpkg::Library, vcpkg::Error>"* %_5 to i64*, !dbg !1840
  %_25 = load i64, i64* %15, align 8, !dbg !1840, !range !1042, !noundef !23
  %16 = icmp eq i64 %_25, 0, !dbg !1840
  br i1 %16, label %bb26, label %bb28, !dbg !1840

bb22:                                             ; preds = %bb32, %cleanup1
; invoke core::ptr::drop_in_place<vcpkg::Library>
  invoke void @"_ZN4core3ptr35drop_in_place$LT$vcpkg..Library$GT$17h9cff952e7b84046eE"(%"vcpkg::Library"* %lib) #9
          to label %bb34 unwind label %abort, !dbg !1840

cleanup1:                                         ; preds = %bb13, %bb6
  %17 = landingpad { i8*, i32 }
          cleanup
  %18 = extractvalue { i8*, i32 } %17, 0
  %19 = extractvalue { i8*, i32 } %17, 1
  %20 = getelementptr inbounds { i8*, i32 }, { i8*, i32 }* %1, i32 0, i32 0
  store i8* %18, i8** %20, align 8
  %21 = getelementptr inbounds { i8*, i32 }, { i8*, i32 }* %1, i32 0, i32 1
  store i32 %19, i32* %21, align 8
  br label %bb22

bb7:                                              ; preds = %bb6
  %22 = bitcast %"core::option::Option<std::path::PathBuf>"* %_12 to {}**, !dbg !1844
  %23 = load {}*, {}** %22, align 8, !dbg !1844
  %24 = icmp eq {}* %23, null, !dbg !1844
  %_14 = select i1 %24, i64 0, i64 1, !dbg !1844
  %25 = icmp eq i64 %_14, 1, !dbg !1844
  br i1 %25, label %bb8, label %bb13, !dbg !1844

bb8:                                              ; preds = %bb7
  %26 = bitcast %"core::option::Option<std::path::PathBuf>"* %_12 to %"core::option::Option<std::path::PathBuf>::Some"*, !dbg !1833
  %27 = bitcast %"core::option::Option<std::path::PathBuf>::Some"* %26 to %"std::path::PathBuf"*, !dbg !1833
  %28 = bitcast %"std::path::PathBuf"* %header to i8*, !dbg !1833
  %29 = bitcast %"std::path::PathBuf"* %27 to i8*, !dbg !1833
  call void @llvm.memcpy.p0i8.p0i8.i64(i8* align 8 %28, i8* align 8 %29, i64 24, i1 false), !dbg !1833
; invoke std::path::PathBuf::push
  invoke void @_ZN3std4path7PathBuf4push17he27680098e429ae9E(%"std::path::PathBuf"* align 8 %header, [0 x i8]* align 1 bitcast (<{ [9 x i8] }>* @alloc242 to [0 x i8]*), i64 9)
          to label %bb9 unwind label %cleanup3, !dbg !1845

bb13:                                             ; preds = %bb7
; invoke core::ptr::drop_in_place<core::option::Option<std::path::PathBuf>>
  invoke void @"_ZN4core3ptr67drop_in_place$LT$core..option..Option$LT$std..path..PathBuf$GT$$GT$17h2d862c63927a3b9aE"(%"core::option::Option<std::path::PathBuf>"* %_12)
          to label %bb14 unwind label %cleanup1, !dbg !1846

bb14:                                             ; preds = %bb13
; invoke core::ptr::drop_in_place<vcpkg::Library>
  invoke void @"_ZN4core3ptr35drop_in_place$LT$vcpkg..Library$GT$17h9cff952e7b84046eE"(%"vcpkg::Library"* %lib)
          to label %bb29 unwind label %cleanup2, !dbg !1840

bb34:                                             ; preds = %bb22, %cleanup2
  %30 = bitcast %"core::result::Result<vcpkg::Library, vcpkg::Error>"* %_5 to i64*, !dbg !1840
  %_27 = load i64, i64* %30, align 8, !dbg !1840, !range !1042, !noundef !23
  %31 = icmp eq i64 %_27, 0, !dbg !1840
  br i1 %31, label %bb23, label %bb33, !dbg !1840

cleanup2:                                         ; preds = %bb17, %bb14
  %32 = landingpad { i8*, i32 }
          cleanup
  %33 = extractvalue { i8*, i32 } %32, 0
  %34 = extractvalue { i8*, i32 } %32, 1
  %35 = getelementptr inbounds { i8*, i32 }, { i8*, i32 }* %1, i32 0, i32 0
  store i8* %33, i8** %35, align 8
  %36 = getelementptr inbounds { i8*, i32 }, { i8*, i32 }* %1, i32 0, i32 1
  store i32 %34, i32* %36, align 8
  br label %bb34

bb26:                                             ; preds = %bb29
  %37 = load i8, i8* %_24, align 1, !dbg !1840, !range !878, !noundef !23
  %38 = trunc i8 %37 to i1, !dbg !1840
  br i1 %38, label %bb27, label %bb25, !dbg !1840

bb28:                                             ; preds = %bb29
; invoke core::ptr::drop_in_place<core::result::Result<vcpkg::Library,vcpkg::Error>>
  invoke void @"_ZN4core3ptr78drop_in_place$LT$core..result..Result$LT$vcpkg..Library$C$vcpkg..Error$GT$$GT$17hcdda3552f1e12edcE"(%"core::result::Result<vcpkg::Library, vcpkg::Error>"* %_5)
          to label %bb25 unwind label %cleanup, !dbg !1840

bb25:                                             ; preds = %bb27, %bb26, %bb28
; call core::ptr::drop_in_place<vcpkg::Config>
  call void @"_ZN4core3ptr34drop_in_place$LT$vcpkg..Config$GT$17hbbd5c83c136fe0f4E"(%"vcpkg::Config"* %_7), !dbg !1840
  br label %bb15, !dbg !1840

bb27:                                             ; preds = %bb26
  %39 = bitcast %"core::result::Result<vcpkg::Library, vcpkg::Error>"* %_5 to %"core::result::Result<vcpkg::Library, vcpkg::Error>::Ok"*, !dbg !1840
  %40 = getelementptr inbounds %"core::result::Result<vcpkg::Library, vcpkg::Error>::Ok", %"core::result::Result<vcpkg::Library, vcpkg::Error>::Ok"* %39, i32 0, i32 1, !dbg !1840
; invoke core::ptr::drop_in_place<vcpkg::Library>
  invoke void @"_ZN4core3ptr35drop_in_place$LT$vcpkg..Library$GT$17h9cff952e7b84046eE"(%"vcpkg::Library"* %40)
          to label %bb25 unwind label %cleanup, !dbg !1840

bb15:                                             ; preds = %bb25
  store i8 0, i8* %_24, align 1, !dbg !1840
  %41 = bitcast %"core::option::Option<HeaderLocation>"* %0 to i64*, !dbg !1847
  store i64 3, i64* %41, align 8, !dbg !1847
  br label %bb20, !dbg !1837

bb20:                                             ; preds = %bb16, %bb19, %bb15
  ret void, !dbg !1848

bb21:                                             ; preds = %cleanup3
; invoke core::ptr::drop_in_place<std::path::PathBuf>
  invoke void @"_ZN4core3ptr39drop_in_place$LT$std..path..PathBuf$GT$17hadfdda033a88cdb4E"(%"std::path::PathBuf"* %header) #9
          to label %bb32 unwind label %abort, !dbg !1849

cleanup3:                                         ; preds = %bb11, %bb10, %bb9, %bb8
  %42 = landingpad { i8*, i32 }
          cleanup
  %43 = extractvalue { i8*, i32 } %42, 0
  %44 = extractvalue { i8*, i32 } %42, 1
  %45 = getelementptr inbounds { i8*, i32 }, { i8*, i32 }* %1, i32 0, i32 0
  store i8* %43, i8** %45, align 8
  %46 = getelementptr inbounds { i8*, i32 }, { i8*, i32 }* %1, i32 0, i32 1
  store i32 %44, i32* %46, align 8
  br label %bb21

bb9:                                              ; preds = %bb8
; invoke <std::path::PathBuf as core::ops::deref::Deref>::deref
  %47 = invoke { %"std::path::Path"*, i64 } @"_ZN62_$LT$std..path..PathBuf$u20$as$u20$core..ops..deref..Deref$GT$5deref17h9ea0691e8b1c04f0E"(%"std::path::PathBuf"* align 8 %header)
          to label %bb10 unwind label %cleanup3, !dbg !1850

bb10:                                             ; preds = %bb9
  %_22.0 = extractvalue { %"std::path::Path"*, i64 } %47, 0, !dbg !1850
  %_22.1 = extractvalue { %"std::path::Path"*, i64 } %47, 1, !dbg !1850
; invoke std::path::Path::to_string_lossy
  invoke void @_ZN3std4path4Path15to_string_lossy17h6dcfe681c09eac21E(%"alloc::borrow::Cow<str>"* sret(%"alloc::borrow::Cow<str>") %_20, %"std::path::Path"* align 1 %_22.0, i64 %_22.1)
          to label %bb11 unwind label %cleanup3, !dbg !1850

bb11:                                             ; preds = %bb10
; invoke <T as core::convert::Into<U>>::into
  invoke void @"_ZN50_$LT$T$u20$as$u20$core..convert..Into$LT$U$GT$$GT$4into17hede75ea6862c3e84E"(%"alloc::string::String"* sret(%"alloc::string::String") %_19, %"alloc::borrow::Cow<str>"* %_20)
          to label %bb12 unwind label %cleanup3, !dbg !1850

bb12:                                             ; preds = %bb11
  %48 = bitcast %HeaderLocation* %_18 to %"HeaderLocation::FromPath"*, !dbg !1851
  %49 = getelementptr inbounds %"HeaderLocation::FromPath", %"HeaderLocation::FromPath"* %48, i32 0, i32 1, !dbg !1851
  %50 = bitcast %"alloc::string::String"* %49 to i8*, !dbg !1851
  %51 = bitcast %"alloc::string::String"* %_19 to i8*, !dbg !1851
  call void @llvm.memcpy.p0i8.p0i8.i64(i8* align 8 %50, i8* align 8 %51, i64 24, i1 false), !dbg !1851
  %52 = bitcast %HeaderLocation* %_18 to i64*, !dbg !1851
  store i64 2, i64* %52, align 8, !dbg !1851
  %53 = bitcast %"core::option::Option<HeaderLocation>"* %0 to %"core::option::Option<HeaderLocation>::Some"*, !dbg !1852
  %54 = bitcast %"core::option::Option<HeaderLocation>::Some"* %53 to %HeaderLocation*, !dbg !1852
  %55 = bitcast %HeaderLocation* %54 to i8*, !dbg !1852
  %56 = bitcast %HeaderLocation* %_18 to i8*, !dbg !1852
  call void @llvm.memcpy.p0i8.p0i8.i64(i8* align 8 %55, i8* align 8 %56, i64 32, i1 false), !dbg !1852
; invoke core::ptr::drop_in_place<std::path::PathBuf>
  invoke void @"_ZN4core3ptr39drop_in_place$LT$std..path..PathBuf$GT$17hadfdda033a88cdb4E"(%"std::path::PathBuf"* %header)
          to label %bb17 unwind label %cleanup4, !dbg !1849

abort:                                            ; preds = %bb23, %bb33, %bb22, %bb21
  %57 = landingpad { i8*, i32 }
          cleanup, !dbg !1853
; call core::panicking::panic_no_unwind
  call void @_ZN4core9panicking15panic_no_unwind17h57180e694165966aE() #10, !dbg !1853
  unreachable, !dbg !1853

bb32:                                             ; preds = %cleanup4, %bb21
  br label %bb22, !dbg !1846

cleanup4:                                         ; preds = %bb12
  %58 = landingpad { i8*, i32 }
          cleanup
  %59 = extractvalue { i8*, i32 } %58, 0
  %60 = extractvalue { i8*, i32 } %58, 1
  %61 = getelementptr inbounds { i8*, i32 }, { i8*, i32 }* %1, i32 0, i32 0
  store i8* %59, i8** %61, align 8
  %62 = getelementptr inbounds { i8*, i32 }, { i8*, i32 }* %1, i32 0, i32 1
  store i32 %60, i32* %62, align 8
  br label %bb32

bb17:                                             ; preds = %bb12
; invoke core::ptr::drop_in_place<vcpkg::Library>
  invoke void @"_ZN4core3ptr35drop_in_place$LT$vcpkg..Library$GT$17h9cff952e7b84046eE"(%"vcpkg::Library"* %lib)
          to label %bb18 unwind label %cleanup2, !dbg !1840

bb18:                                             ; preds = %bb17
  %63 = bitcast %"core::result::Result<vcpkg::Library, vcpkg::Error>"* %_5 to i64*, !dbg !1840
  %_26 = load i64, i64* %63, align 8, !dbg !1840, !range !1042, !noundef !23
  %64 = icmp eq i64 %_26, 0, !dbg !1840
  br i1 %64, label %bb30, label %bb31, !dbg !1840

bb33:                                             ; preds = %bb34
; invoke core::ptr::drop_in_place<core::result::Result<vcpkg::Library,vcpkg::Error>>
  invoke void @"_ZN4core3ptr78drop_in_place$LT$core..result..Result$LT$vcpkg..Library$C$vcpkg..Error$GT$$GT$17hcdda3552f1e12edcE"(%"core::result::Result<vcpkg::Library, vcpkg::Error>"* %_5) #9
          to label %bb23 unwind label %abort, !dbg !1840

bb30:                                             ; preds = %bb31, %bb18
; call core::ptr::drop_in_place<vcpkg::Config>
  call void @"_ZN4core3ptr34drop_in_place$LT$vcpkg..Config$GT$17hbbd5c83c136fe0f4E"(%"vcpkg::Config"* %_7), !dbg !1840
  br label %bb19, !dbg !1840

bb31:                                             ; preds = %bb18
; invoke core::ptr::drop_in_place<core::result::Result<vcpkg::Library,vcpkg::Error>>
  invoke void @"_ZN4core3ptr78drop_in_place$LT$core..result..Result$LT$vcpkg..Library$C$vcpkg..Error$GT$$GT$17hcdda3552f1e12edcE"(%"core::result::Result<vcpkg::Library, vcpkg::Error>"* %_5)
          to label %bb30 unwind label %cleanup, !dbg !1840

bb24:                                             ; preds = %bb23
  %65 = bitcast { i8*, i32 }* %1 to i8**, !dbg !1853
  %66 = load i8*, i8** %65, align 8, !dbg !1853
  %67 = getelementptr inbounds { i8*, i32 }, { i8*, i32 }* %1, i32 0, i32 1, !dbg !1853
  %68 = load i32, i32* %67, align 8, !dbg !1853
  %69 = insertvalue { i8*, i32 } undef, i8* %66, 0, !dbg !1853
  %70 = insertvalue { i8*, i32 } %69, i32 %68, 1, !dbg !1853
  resume { i8*, i32 } %70, !dbg !1853

bb19:                                             ; preds = %bb30
  store i8 0, i8* %_24, align 1, !dbg !1840
  br label %bb20, !dbg !1848
}

; build_script_build::bindings::write_to_out_dir
; Function Attrs: nonlazybind uwtable
define internal void @_ZN18build_script_build8bindings16write_to_out_dir17hd2698fe77f38b2dbE(%HeaderLocation* %_header, %"std::path::Path"* align 1 %out_path.0, i64 %out_path.1) unnamed_addr #2 personality i32 (i32, i32, i64, %"unwind::libunwind::_Unwind_Exception"*, %"unwind::libunwind::_Unwind_Context"*)* @rust_eh_personality !dbg !1854 {
start:
  %in_path.dbg.spill = alloca { [0 x i8]*, i64 }, align 8
  %0 = alloca { i8*, i32 }, align 8
  %out_path.dbg.spill = alloca { %"std::path::Path"*, i64 }, align 8
  %_13 = alloca %"core::result::Result<u64, std::io::error::Error>", align 8
  call void @llvm.dbg.declare(metadata %HeaderLocation* %_header, metadata !1858, metadata !DIExpression()), !dbg !1862
  %1 = getelementptr inbounds { %"std::path::Path"*, i64 }, { %"std::path::Path"*, i64 }* %out_path.dbg.spill, i32 0, i32 0
  store %"std::path::Path"* %out_path.0, %"std::path::Path"** %1, align 8
  %2 = getelementptr inbounds { %"std::path::Path"*, i64 }, { %"std::path::Path"*, i64 }* %out_path.dbg.spill, i32 0, i32 1
  store i64 %out_path.1, i64* %2, align 8
  call void @llvm.dbg.declare(metadata { %"std::path::Path"*, i64 }* %out_path.dbg.spill, metadata !1859, metadata !DIExpression()), !dbg !1863
  %_18.0 = load [0 x { [0 x i8]*, i64 }]*, [0 x { [0 x i8]*, i64 }]** getelementptr inbounds ({ [0 x { [0 x i8]*, i64 }]*, i64 }, { [0 x { [0 x i8]*, i64 }]*, i64 }* bitcast (<{ i8*, [8 x i8] }>* @_ZN18build_script_build8bindings22PREBUILT_BINDGEN_PATHS17hbe2ccef64dd911b8E to { [0 x { [0 x i8]*, i64 }]*, i64 }*), i32 0, i32 0), align 8, !dbg !1864, !nonnull !23, !align !448, !noundef !23
  %_18.1 = load i64, i64* getelementptr inbounds ({ [0 x { [0 x i8]*, i64 }]*, i64 }, { [0 x { [0 x i8]*, i64 }]*, i64 }* bitcast (<{ i8*, [8 x i8] }>* @_ZN18build_script_build8bindings22PREBUILT_BINDGEN_PATHS17hbe2ccef64dd911b8E to { [0 x { [0 x i8]*, i64 }]*, i64 }*), i32 0, i32 1), align 8, !dbg !1864
; invoke core::slice::<impl [T]>::len
  %_6 = invoke i64 @"_ZN4core5slice29_$LT$impl$u20$$u5b$T$u5d$$GT$3len17hdfb4463878774316E"([0 x { [0 x i8]*, i64 }]* align 8 %_18.0, i64 %_18.1)
          to label %bb1 unwind label %cleanup, !dbg !1864

bb7:                                              ; preds = %cleanup
; invoke core::ptr::drop_in_place<build_script_build::HeaderLocation>
  invoke void @"_ZN4core3ptr55drop_in_place$LT$build_script_build..HeaderLocation$GT$17hf6ab47ddca57b34cE"(%HeaderLocation* %_header) #9
          to label %bb8 unwind label %abort, !dbg !1865

cleanup:                                          ; preds = %bb4, %bb3, %panic1, %panic, %start
  %3 = landingpad { i8*, i32 }
          cleanup
  %4 = extractvalue { i8*, i32 } %3, 0
  %5 = extractvalue { i8*, i32 } %3, 1
  %6 = getelementptr inbounds { i8*, i32 }, { i8*, i32 }* %0, i32 0, i32 0
  store i8* %4, i8** %6, align 8
  %7 = getelementptr inbounds { i8*, i32 }, { i8*, i32 }* %0, i32 0, i32 1
  store i32 %5, i32* %7, align 8
  br label %bb7

bb1:                                              ; preds = %start
  %8 = call { i64, i1 } @llvm.usub.with.overflow.i64(i64 %_6, i64 1), !dbg !1864
  %_9.0 = extractvalue { i64, i1 } %8, 0, !dbg !1864
  %_9.1 = extractvalue { i64, i1 } %8, 1, !dbg !1864
  %9 = call i1 @llvm.expect.i1(i1 %_9.1, i1 false), !dbg !1864
  br i1 %9, label %panic, label %bb2, !dbg !1864

bb2:                                              ; preds = %bb1
  %_11 = icmp ult i64 %_9.0, 1, !dbg !1866
  %10 = call i1 @llvm.expect.i1(i1 %_11, i1 true), !dbg !1866
  br i1 %10, label %bb3, label %panic1, !dbg !1866

panic:                                            ; preds = %bb1
; invoke core::panicking::panic
  invoke void @_ZN4core9panicking5panic17hdee7c0ac456df10cE([0 x i8]* align 1 bitcast ([33 x i8]* @str.2 to [0 x i8]*), i64 33, %"core::panic::location::Location"* align 8 bitcast (<{ i8*, [16 x i8] }>* @alloc244 to %"core::panic::location::Location"*)) #11
          to label %unreachable unwind label %cleanup, !dbg !1864

unreachable:                                      ; preds = %panic1, %panic
  unreachable

bb3:                                              ; preds = %bb2
  %_19.0 = load [0 x { [0 x i8]*, i64 }]*, [0 x { [0 x i8]*, i64 }]** getelementptr inbounds ({ [0 x { [0 x i8]*, i64 }]*, i64 }, { [0 x { [0 x i8]*, i64 }]*, i64 }* bitcast (<{ i8*, [8 x i8] }>* @_ZN18build_script_build8bindings22PREBUILT_BINDGEN_PATHS17hbe2ccef64dd911b8E to { [0 x { [0 x i8]*, i64 }]*, i64 }*), i32 0, i32 0), align 8, !dbg !1866, !nonnull !23, !align !448, !noundef !23
