; ModuleID = 'ahash.6085da71-cgu.0'
source_filename = "ahash.6085da71-cgu.0"
target datalayout = "e-m:e-p270:32:32-p271:32:32-p272:64:64-i64:64-f80:128-n8:16:32:64-S128"
target triple = "x86_64-unknown-linux-gnu"

%"core::panic::location::Location" = type { { [0 x i8]*, i64 }, i32, i32 }
%"once_cell::race::once_box::OnceBox<T>::get_or_init::Void" = type { [0 x i8] }
%"core::result::Result<core::convert::Infallible, once_cell::race::once_box::OnceBox<T>::get_or_init::Void>::Ok" = type { [0 x i8] }
%"core::result::Result<&[[u64; 4]; 2], once_cell::race::once_box::OnceBox<T>::get_or_init::Void>::Err" = type { [0 x i8] }
%"core::result::Result<&mut [u8], getrandom::error::Error>" = type { i32, [5 x i32] }
%"core::result::Result<&mut [u8], getrandom::error::Error>::Err" = type { [1 x i32], i32 }
%"core::fmt::Formatter" = type { { i64, i64 }, { i64, i64 }, { {}*, [3 x i64]* }, i32, i32, i8, [7 x i8] }
%"core::fmt::builders::DebugList" = type { %"core::fmt::builders::DebugInner" }
%"core::fmt::builders::DebugInner" = type { %"core::fmt::Formatter"*, i8, i8, [6 x i8] }
%"core::fmt::Arguments" = type { { [0 x { [0 x i8]*, i64 }]*, i64 }, { i64*, i64 }, { [0 x { i8*, i64* }]*, i64 } }
%"once_cell::race::once_box::OnceBox<[[u64; 4]; 2]>" = type { %"core::marker::PhantomData<core::option::Option<alloc::boxed::Box<[[u64; 4]; 2]>>>", %"core::sync::atomic::AtomicPtr<[[u64; 4]; 2]>" }
%"core::marker::PhantomData<core::option::Option<alloc::boxed::Box<[[u64; 4]; 2]>>>" = type {}
%"core::sync::atomic::AtomicPtr<[[u64; 4]; 2]>" = type { i64* }
%"once_cell::race::once_box::OnceBox<alloc::boxed::Box<dyn random_state::RandomSource + core::marker::Send + core::marker::Sync>>" = type { %"core::marker::PhantomData<core::option::Option<alloc::boxed::Box<alloc::boxed::Box<dyn random_state::RandomSource + core::marker::Send + core::marker::Sync>>>>", %"core::sync::atomic::AtomicPtr<alloc::boxed::Box<dyn random_state::RandomSource + core::marker::Send + core::marker::Sync>>" }
%"core::marker::PhantomData<core::option::Option<alloc::boxed::Box<alloc::boxed::Box<dyn random_state::RandomSource + core::marker::Send + core::marker::Sync>>>>" = type {}
%"core::sync::atomic::AtomicPtr<alloc::boxed::Box<dyn random_state::RandomSource + core::marker::Send + core::marker::Sync>>" = type { i64* }
%"core::ptr::metadata::PtrComponents<u8>" = type { {}*, {} }
%"core::ptr::metadata::PtrRepr<u8>" = type { [1 x i64] }
%"core::sync::atomic::AtomicUsize" = type { i64 }
%"core::ops::range::RangeFull" = type {}
%"core::alloc::AllocError" = type {}
%"alloc::alloc::Global" = type {}
%"core::result::Result<core::convert::Infallible, core::alloc::AllocError>::Err" = type { %"core::alloc::AllocError" }
%"core::ptr::metadata::PtrRepr<[u8]>" = type { [2 x i64] }
%"core::mem::maybe_uninit::MaybeUninit<alloc::alloc::Global>" = type { [0 x i8] }
%"core::mem::manually_drop::ManuallyDrop<alloc::alloc::Global>" = type { %"alloc::alloc::Global" }
%"core::ops::control_flow::ControlFlow<core::result::Result<core::convert::Infallible, getrandom::error::Error>, &mut [u8]>" = type { i32, [5 x i32] }
%"core::result::Result<&mut [u8], getrandom::error::Error>::Ok" = type { [1 x i64], { [0 x i8]*, i64 } }
%"core::ops::control_flow::ControlFlow<core::result::Result<core::convert::Infallible, getrandom::error::Error>, &mut [u8]>::Continue" = type { [1 x i64], { [0 x i8]*, i64 } }
%"core::ops::control_flow::ControlFlow<core::result::Result<core::convert::Infallible, getrandom::error::Error>, &mut [u8]>::Break" = type { [1 x i32], i32 }
%"core::result::Result<core::convert::Infallible, once_cell::race::once_box::OnceBox<T>::get_or_init::Void>::Err" = type { [0 x i8] }
%"core::ops::control_flow::ControlFlow<core::result::Result<core::convert::Infallible, once_cell::race::once_box::OnceBox<T>::get_or_init::Void>, alloc::boxed::Box<[[u64; 4]; 2]>>::Break" = type { [0 x i8] }
%"[closure@/home/dy3199/.cargo/registry/src/github.com-1ecc6299db9ec823/ahash-0.7.7/src/random_state.rs:104:27: 108:10]" = type {}
%"[closure@once_cell::race::once_box::OnceBox<[[u64; 4]; 2]>::get_or_init<[closure@/home/dy3199/.cargo/registry/src/github.com-1ecc6299db9ec823/ahash-0.7.7/src/random_state.rs:104:27: 108:10]>::{closure#0}]" = type { %"[closure@/home/dy3199/.cargo/registry/src/github.com-1ecc6299db9ec823/ahash-0.7.7/src/random_state.rs:104:27: 108:10]" }
%"core::ptr::metadata::PtrComponents<[[u64; 4]; 2]>" = type { {}*, {} }
%"core::ptr::metadata::PtrRepr<[[u64; 4]; 2]>" = type { [1 x i64] }
%"fallback_hash::AHasher" = type { i64, i64, [2 x i64] }
%"random_state::RandomState" = type { i64, i64, i64, i64 }
%"random_state::DefaultRandomSource" = type { %"core::sync::atomic::AtomicUsize" }

@vtable.0 = private unnamed_addr constant <{ i8*, [16 x i8], i8* }> <{ i8* bitcast (void (i64**)* @"_ZN4core3ptr28drop_in_place$LT$$RF$u64$GT$17hbf1565b298779a09E" to i8*), [16 x i8] c"\08\00\00\00\00\00\00\00\08\00\00\00\00\00\00\00", i8* bitcast (i1 (i64**, %"core::fmt::Formatter"*)* @"_ZN42_$LT$$RF$T$u20$as$u20$core..fmt..Debug$GT$3fmt17hfb17fdf3fe5ade1cE" to i8*) }>, align 8, !dbg !0
@alloc634 = private unnamed_addr constant <{ [12 x i8] }> <{ [12 x i8] c"invalid args" }>, align 1
@alloc635 = private unnamed_addr constant <{ i8*, [8 x i8] }> <{ i8* getelementptr inbounds (<{ [12 x i8] }>, <{ [12 x i8] }>* @alloc634, i32 0, i32 0, i32 0), [8 x i8] c"\0C\00\00\00\00\00\00\00" }>, align 8
@alloc639 = private unnamed_addr constant <{}> zeroinitializer, align 8
@alloc750 = private unnamed_addr constant <{ [60 x i8] }> <{ [60 x i8] c"/home/dy3199/s2fuzz/scripts/rust/library/core/src/fmt/mod.rs" }>, align 1
@alloc751 = private unnamed_addr constant <{ i8*, [16 x i8] }> <{ i8* getelementptr inbounds (<{ [60 x i8] }>, <{ [60 x i8] }>* @alloc750, i32 0, i32 0, i32 0), [16 x i8] c"<\00\00\00\00\00\00\00\88\01\00\00\0D\00\00\00" }>, align 8
@alloc624 = private unnamed_addr constant <{ [49 x i8] }> <{ [49 x i8] c"there is no such thing as an acquire-release load" }>, align 1
@alloc625 = private unnamed_addr constant <{ i8*, [8 x i8] }> <{ i8* getelementptr inbounds (<{ [49 x i8] }>, <{ [49 x i8] }>* @alloc624, i32 0, i32 0, i32 0), [8 x i8] c"1\00\00\00\00\00\00\00" }>, align 8
@alloc760 = private unnamed_addr constant <{ [64 x i8] }> <{ [64 x i8] c"/home/dy3199/s2fuzz/scripts/rust/library/core/src/sync/atomic.rs" }>, align 1
@alloc753 = private unnamed_addr constant <{ i8*, [16 x i8] }> <{ i8* getelementptr inbounds (<{ [64 x i8] }>, <{ [64 x i8] }>* @alloc760, i32 0, i32 0, i32 0), [16 x i8] c"@\00\00\00\00\00\00\00H\0A\00\00\17\00\00\00" }>, align 8
@alloc629 = private unnamed_addr constant <{ [40 x i8] }> <{ [40 x i8] c"there is no such thing as a release load" }>, align 1
@alloc630 = private unnamed_addr constant <{ i8*, [8 x i8] }> <{ i8* getelementptr inbounds (<{ [40 x i8] }>, <{ [40 x i8] }>* @alloc629, i32 0, i32 0, i32 0), [8 x i8] c"(\00\00\00\00\00\00\00" }>, align 8
@alloc755 = private unnamed_addr constant <{ i8*, [16 x i8] }> <{ i8* getelementptr inbounds (<{ [64 x i8] }>, <{ [64 x i8] }>* @alloc760, i32 0, i32 0, i32 0), [16 x i8] c"@\00\00\00\00\00\00\00G\0A\00\00\18\00\00\00" }>, align 8
@alloc641 = private unnamed_addr constant <{ [60 x i8] }> <{ [60 x i8] c"a failure ordering can't be stronger than a success ordering" }>, align 1
@alloc642 = private unnamed_addr constant <{ i8*, [8 x i8] }> <{ i8* getelementptr inbounds (<{ [60 x i8] }>, <{ [60 x i8] }>* @alloc641, i32 0, i32 0, i32 0), [8 x i8] c"<\00\00\00\00\00\00\00" }>, align 8
@alloc757 = private unnamed_addr constant <{ i8*, [16 x i8] }> <{ i8* getelementptr inbounds (<{ [64 x i8] }>, <{ [64 x i8] }>* @alloc760, i32 0, i32 0, i32 0), [16 x i8] c"@\00\00\00\00\00\00\00\99\0A\00\00\12\00\00\00" }>, align 8
@alloc646 = private unnamed_addr constant <{ [61 x i8] }> <{ [61 x i8] c"there is no such thing as an acquire-release failure ordering" }>, align 1
@alloc647 = private unnamed_addr constant <{ i8*, [8 x i8] }> <{ i8* getelementptr inbounds (<{ [61 x i8] }>, <{ [61 x i8] }>* @alloc646, i32 0, i32 0, i32 0), [8 x i8] c"=\00\00\00\00\00\00\00" }>, align 8
@alloc759 = private unnamed_addr constant <{ i8*, [16 x i8] }> <{ i8* getelementptr inbounds (<{ [64 x i8] }>, <{ [64 x i8] }>* @alloc760, i32 0, i32 0, i32 0), [16 x i8] c"@\00\00\00\00\00\00\00\97\0A\00\00\1C\00\00\00" }>, align 8
@alloc651 = private unnamed_addr constant <{ [52 x i8] }> <{ [52 x i8] c"there is no such thing as a release failure ordering" }>, align 1
@alloc652 = private unnamed_addr constant <{ i8*, [8 x i8] }> <{ i8* getelementptr inbounds (<{ [52 x i8] }>, <{ [52 x i8] }>* @alloc651, i32 0, i32 0, i32 0), [8 x i8] c"4\00\00\00\00\00\00\00" }>, align 8
@alloc761 = private unnamed_addr constant <{ i8*, [16 x i8] }> <{ i8* getelementptr inbounds (<{ [64 x i8] }>, <{ [64 x i8] }>* @alloc760, i32 0, i32 0, i32 0), [16 x i8] c"@\00\00\00\00\00\00\00\98\0A\00\00\1D\00\00\00" }>, align 8
@vtable.1 = private unnamed_addr constant <{ i8*, [16 x i8], i8* }> <{ i8* bitcast (void (i32*)* @"_ZN4core3ptr44drop_in_place$LT$getrandom..error..Error$GT$17h674d5cc1aaebc53dE" to i8*), [16 x i8] c"\04\00\00\00\00\00\00\00\04\00\00\00\00\00\00\00", i8* bitcast (i1 (i32*, %"core::fmt::Formatter"*)* @"_ZN60_$LT$getrandom..error..Error$u20$as$u20$core..fmt..Debug$GT$3fmt17h1d5382c7d49fe7e2E" to i8*) }>, align 8, !dbg !15
@alloc767 = private unnamed_addr constant <{ [88 x i8] }> <{ [88 x i8] c"/home/dy3199/.cargo/registry/src/github.com-1ecc6299db9ec823/getrandom-0.2.12/src/lib.rs" }>, align 1
@alloc766 = private unnamed_addr constant <{ i8*, [16 x i8] }> <{ i8* getelementptr inbounds (<{ [88 x i8] }>, <{ [88 x i8] }>* @alloc767, i32 0, i32 0, i32 0), [16 x i8] c"X\00\00\00\00\00\00\00[\01\00\00\09\00\00\00" }>, align 8
@alloc768 = private unnamed_addr constant <{ i8*, [16 x i8] }> <{ i8* getelementptr inbounds (<{ [88 x i8] }>, <{ [88 x i8] }>* @alloc767, i32 0, i32 0, i32 0), [16 x i8] c"X\00\00\00\00\00\00\00?\01\00\00\05\00\00\00" }>, align 8
@alloc769 = private unnamed_addr constant <{ [89 x i8] }> <{ [89 x i8] c"/home/dy3199/.cargo/registry/src/github.com-1ecc6299db9ec823/once_cell-1.19.0/src/race.rs" }>, align 1
@alloc770 = private unnamed_addr constant <{ i8*, [16 x i8] }> <{ i8* getelementptr inbounds (<{ [89 x i8] }>, <{ [89 x i8] }>* @alloc769, i32 0, i32 0, i32 0), [16 x i8] c"Y\00\00\00\00\00\00\00\88\01\00\00\1B\00\00\00" }>, align 8
@_ZN5ahash12random_state11RAND_SOURCE17he0d6fce2e92ed74aE = global <{ [8 x i8] }> zeroinitializer, align 8, !dbg !35
@alloc617 = private unnamed_addr constant <{ [32 x i8] }> <{ [32 x i8] c"\D3\08\A3\85\88j?$Dsp\03.\8A\19\13\D01\9F)\228\09\A4\89lN\EC\98\FA.\08" }>, align 8
@"_ZN94_$LT$ahash..random_state..DefaultRandomSource$u20$as$u20$ahash..random_state..RandomSource$GT$15get_fixed_seeds5SEEDS17h5a03383f022354d2E" = internal global <{ [8 x i8] }> zeroinitializer, align 8, !dbg !90
@alloc771 = private unnamed_addr constant <{ [30 x i8] }> <{ [30 x i8] c"getrandom::getrandom() failed." }>, align 1
@alloc772 = private unnamed_addr constant <{ [92 x i8] }> <{ [92 x i8] c"/home/dy3199/.cargo/registry/src/github.com-1ecc6299db9ec823/ahash-0.7.7/src/random_state.rs" }>, align 1
@alloc773 = private unnamed_addr constant <{ i8*, [16 x i8] }> <{ i8* getelementptr inbounds (<{ [92 x i8] }>, <{ [92 x i8] }>* @alloc772, i32 0, i32 0, i32 0), [16 x i8] c"\\\00\00\00\00\00\00\00j\00\00\00/\00\00\00" }>, align 8
@alloc774 = private unnamed_addr constant <{ [18 x i8] }> <{ [18 x i8] c"RandomState { .. }" }>, align 1
@alloc775 = private unnamed_addr constant <{ [7 x i8] }> <{ [7 x i8] c"AHasher" }>, align 1
@alloc776 = private unnamed_addr constant <{ [6 x i8] }> <{ [6 x i8] c"buffer" }>, align 1
@alloc777 = private unnamed_addr constant <{ [3 x i8] }> <{ [3 x i8] c"pad" }>, align 1
@alloc778 = private unnamed_addr constant <{ [10 x i8] }> <{ [10 x i8] c"extra_keys" }>, align 1
@vtable.2 = private unnamed_addr constant <{ i8*, [16 x i8], i8* }> <{ i8* bitcast (void ([2 x i64]**)* @"_ZN4core3ptr49drop_in_place$LT$$RF$$u5b$u64$u3b$$u20$2$u5d$$GT$17hd0f61a86220fb22aE" to i8*), [16 x i8] c"\08\00\00\00\00\00\00\00\08\00\00\00\00\00\00\00", i8* bitcast (i1 ([2 x i64]**, %"core::fmt::Formatter"*)* @"_ZN42_$LT$$RF$T$u20$as$u20$core..fmt..Debug$GT$3fmt17h5c7c84ca19edceb6E" to i8*) }>, align 8, !dbg !132

; <core::result::Result<T,F> as core::ops::try_trait::FromResidual<core::result::Result<core::convert::Infallible,E>>>::from_residual
; Function Attrs: inlinehint nonlazybind uwtable
define align 8 i64* @"_ZN153_$LT$core..result..Result$LT$T$C$F$GT$$u20$as$u20$core..ops..try_trait..FromResidual$LT$core..result..Result$LT$core..convert..Infallible$C$E$GT$$GT$$GT$13from_residual17h76b8348c5399d6b8E"(%"core::panic::location::Location"* align 8 %0) unnamed_addr #0 !dbg !234 {
start:
  %e.dbg.spill = alloca %"once_cell::race::once_box::OnceBox<T>::get_or_init::Void", align 1
  %residual.dbg.spill = alloca %"core::result::Result<core::convert::Infallible, once_cell::race::once_box::OnceBox<T>::get_or_init::Void>::Ok", align 1
  %1 = alloca i64*, align 8
  call void @llvm.dbg.declare(metadata %"core::result::Result<core::convert::Infallible, once_cell::race::once_box::OnceBox<T>::get_or_init::Void>::Ok"* %residual.dbg.spill, metadata !293, metadata !DIExpression()), !dbg !298
  call void @llvm.dbg.declare(metadata %"once_cell::race::once_box::OnceBox<T>::get_or_init::Void"* %e.dbg.spill, metadata !294, metadata !DIExpression()), !dbg !299
; call <T as core::convert::From<T>>::from
  call void @"_ZN50_$LT$T$u20$as$u20$core..convert..From$LT$T$GT$$GT$4from17hfa990a520cb8bb85E"() #13, !dbg !300
  br label %bb1, !dbg !300

bb1:                                              ; preds = %start
  %2 = bitcast i64** %1 to %"core::result::Result<&[[u64; 4]; 2], once_cell::race::once_box::OnceBox<T>::get_or_init::Void>::Err"*, !dbg !301
  %3 = bitcast %"core::result::Result<&[[u64; 4]; 2], once_cell::race::once_box::OnceBox<T>::get_or_init::Void>::Err"* %2 to %"once_cell::race::once_box::OnceBox<T>::get_or_init::Void"*, !dbg !301
  call void @llvm.trap(), !dbg !301
  %4 = load i64*, i64** %1, align 8, !dbg !302, !nonnull !14, !align !303, !noundef !14
  ret i64* %4, !dbg !302
}

; <core::result::Result<T,F> as core::ops::try_trait::FromResidual<core::result::Result<core::convert::Infallible,E>>>::from_residual
; Function Attrs: inlinehint nonlazybind uwtable
define void @"_ZN153_$LT$core..result..Result$LT$T$C$F$GT$$u20$as$u20$core..ops..try_trait..FromResidual$LT$core..result..Result$LT$core..convert..Infallible$C$E$GT$$GT$$GT$13from_residual17ha2f3b66ad033c661E"(%"core::result::Result<&mut [u8], getrandom::error::Error>"* sret(%"core::result::Result<&mut [u8], getrandom::error::Error>") %0, i32 %1, %"core::panic::location::Location"* align 8 %2) unnamed_addr #0 !dbg !304 {
start:
  %e.dbg.spill = alloca i32, align 4
  %residual = alloca i32, align 4
  store i32 %1, i32* %residual, align 4
  call void @llvm.dbg.declare(metadata i32* %residual, metadata !341, metadata !DIExpression()), !dbg !346
  %e = load i32, i32* %residual, align 4, !dbg !347, !range !348, !noundef !14
  store i32 %e, i32* %e.dbg.spill, align 4, !dbg !347
  call void @llvm.dbg.declare(metadata i32* %e.dbg.spill, metadata !342, metadata !DIExpression()), !dbg !349
; call <T as core::convert::From<T>>::from
  %_3 = call i32 @"_ZN50_$LT$T$u20$as$u20$core..convert..From$LT$T$GT$$GT$4from17h9fe4dc2a99c0ab3dE"(i32 %e), !dbg !350, !range !348
  br label %bb1, !dbg !350

bb1:                                              ; preds = %start
  %3 = bitcast %"core::result::Result<&mut [u8], getrandom::error::Error>"* %0 to %"core::result::Result<&mut [u8], getrandom::error::Error>::Err"*, !dbg !351
  %4 = getelementptr inbounds %"core::result::Result<&mut [u8], getrandom::error::Error>::Err", %"core::result::Result<&mut [u8], getrandom::error::Error>::Err"* %3, i32 0, i32 1, !dbg !351
  store i32 %_3, i32* %4, align 4, !dbg !351
  %5 = bitcast %"core::result::Result<&mut [u8], getrandom::error::Error>"* %0 to i32*, !dbg !351
  store i32 1, i32* %5, align 8, !dbg !351
  ret void, !dbg !352
}

; <&T as core::fmt::Debug>::fmt
; Function Attrs: nonlazybind uwtable
define zeroext i1 @"_ZN42_$LT$$RF$T$u20$as$u20$core..fmt..Debug$GT$3fmt17h5c7c84ca19edceb6E"([2 x i64]** align 8 %self, %"core::fmt::Formatter"* align 8 %f) unnamed_addr #1 !dbg !353 {
start:
  %f.dbg.spill = alloca %"core::fmt::Formatter"*, align 8
  %self.dbg.spill = alloca [2 x i64]**, align 8
  store [2 x i64]** %self, [2 x i64]*** %self.dbg.spill, align 8
  call void @llvm.dbg.declare(metadata [2 x i64]*** %self.dbg.spill, metadata !406, metadata !DIExpression()), !dbg !410
  store %"core::fmt::Formatter"* %f, %"core::fmt::Formatter"** %f.dbg.spill, align 8
  call void @llvm.dbg.declare(metadata %"core::fmt::Formatter"** %f.dbg.spill, metadata !407, metadata !DIExpression()), !dbg !411
  %_6 = load [2 x i64]*, [2 x i64]** %self, align 8, !dbg !412, !nonnull !14, !align !303, !noundef !14
; call core::array::<impl core::fmt::Debug for [T; N]>::fmt
  %0 = call zeroext i1 @"_ZN4core5array69_$LT$impl$u20$core..fmt..Debug$u20$for$u20$$u5b$T$u3b$$u20$N$u5d$$GT$3fmt17h726e0e30746437c3E"([2 x i64]* align 8 %_6, %"core::fmt::Formatter"* align 8 %f), !dbg !413
  br label %bb1, !dbg !413

bb1:                                              ; preds = %start
  ret i1 %0, !dbg !414
}

; <&T as core::fmt::Debug>::fmt
; Function Attrs: nonlazybind uwtable
define zeroext i1 @"_ZN42_$LT$$RF$T$u20$as$u20$core..fmt..Debug$GT$3fmt17hd63971615242f5daE"({ [0 x i64]*, i64 }* align 8 %self, %"core::fmt::Formatter"* align 8 %f) unnamed_addr #1 !dbg !415 {
start:
  %f.dbg.spill = alloca %"core::fmt::Formatter"*, align 8
  %self.dbg.spill = alloca { [0 x i64]*, i64 }*, align 8
  store { [0 x i64]*, i64 }* %self, { [0 x i64]*, i64 }** %self.dbg.spill, align 8
  call void @llvm.dbg.declare(metadata { [0 x i64]*, i64 }** %self.dbg.spill, metadata !425, metadata !DIExpression()), !dbg !429
  store %"core::fmt::Formatter"* %f, %"core::fmt::Formatter"** %f.dbg.spill, align 8
  call void @llvm.dbg.declare(metadata %"core::fmt::Formatter"** %f.dbg.spill, metadata !426, metadata !DIExpression()), !dbg !430
  %0 = getelementptr inbounds { [0 x i64]*, i64 }, { [0 x i64]*, i64 }* %self, i32 0, i32 0, !dbg !431
  %_6.0 = load [0 x i64]*, [0 x i64]** %0, align 8, !dbg !431, !nonnull !14, !align !303, !noundef !14
  %1 = getelementptr inbounds { [0 x i64]*, i64 }, { [0 x i64]*, i64 }* %self, i32 0, i32 1, !dbg !431
  %_6.1 = load i64, i64* %1, align 8, !dbg !431
; call <[T] as core::fmt::Debug>::fmt
  %2 = call zeroext i1 @"_ZN48_$LT$$u5b$T$u5d$$u20$as$u20$core..fmt..Debug$GT$3fmt17hcfcf7b96783e51b2E"([0 x i64]* align 8 %_6.0, i64 %_6.1, %"core::fmt::Formatter"* align 8 %f), !dbg !432
  br label %bb1, !dbg !432

bb1:                                              ; preds = %start
  ret i1 %2, !dbg !433
}

; <&T as core::fmt::Debug>::fmt
; Function Attrs: nonlazybind uwtable
define zeroext i1 @"_ZN42_$LT$$RF$T$u20$as$u20$core..fmt..Debug$GT$3fmt17hfb17fdf3fe5ade1cE"(i64** align 8 %self, %"core::fmt::Formatter"* align 8 %f) unnamed_addr #1 !dbg !434 {
start:
  %f.dbg.spill = alloca %"core::fmt::Formatter"*, align 8
  %self.dbg.spill = alloca i64**, align 8
  store i64** %self, i64*** %self.dbg.spill, align 8
  call void @llvm.dbg.declare(metadata i64*** %self.dbg.spill, metadata !439, metadata !DIExpression()), !dbg !441
  store %"core::fmt::Formatter"* %f, %"core::fmt::Formatter"** %f.dbg.spill, align 8
  call void @llvm.dbg.declare(metadata %"core::fmt::Formatter"** %f.dbg.spill, metadata !440, metadata !DIExpression()), !dbg !442
  %_6 = load i64*, i64** %self, align 8, !dbg !443, !nonnull !14, !align !303, !noundef !14
; call core::fmt::num::<impl core::fmt::Debug for u64>::fmt
  %0 = call zeroext i1 @"_ZN4core3fmt3num50_$LT$impl$u20$core..fmt..Debug$u20$for$u20$u64$GT$3fmt17he069f95395a71a3dE"(i64* align 8 %_6, %"core::fmt::Formatter"* align 8 %f), !dbg !444
  br label %bb1, !dbg !444

bb1:                                              ; preds = %start
  ret i1 %0, !dbg !445
}

; <[T] as core::fmt::Debug>::fmt
; Function Attrs: nonlazybind uwtable
define zeroext i1 @"_ZN48_$LT$$u5b$T$u5d$$u20$as$u20$core..fmt..Debug$GT$3fmt17hcfcf7b96783e51b2E"([0 x i64]* align 8 %self.0, i64 %self.1, %"core::fmt::Formatter"* align 8 %f) unnamed_addr #1 !dbg !446 {
start:
  %self.dbg.spill1 = alloca { [0 x i64]*, i64 }, align 8
  %f.dbg.spill = alloca %"core::fmt::Formatter"*, align 8
  %self.dbg.spill = alloca { [0 x i64]*, i64 }, align 8
  %_6 = alloca %"core::fmt::builders::DebugList", align 8
  %0 = getelementptr inbounds { [0 x i64]*, i64 }, { [0 x i64]*, i64 }* %self.dbg.spill, i32 0, i32 0
  store [0 x i64]* %self.0, [0 x i64]** %0, align 8
  %1 = getelementptr inbounds { [0 x i64]*, i64 }, { [0 x i64]*, i64 }* %self.dbg.spill, i32 0, i32 1
  store i64 %self.1, i64* %1, align 8
  call void @llvm.dbg.declare(metadata { [0 x i64]*, i64 }* %self.dbg.spill, metadata !451, metadata !DIExpression()), !dbg !453
  store %"core::fmt::Formatter"* %f, %"core::fmt::Formatter"** %f.dbg.spill, align 8
  call void @llvm.dbg.declare(metadata %"core::fmt::Formatter"** %f.dbg.spill, metadata !452, metadata !DIExpression()), !dbg !454
; call core::fmt::Formatter::debug_list
  call void @_ZN4core3fmt9Formatter10debug_list17hfc8c37e1e2d67971E(%"core::fmt::builders::DebugList"* sret(%"core::fmt::builders::DebugList") %_6, %"core::fmt::Formatter"* align 8 %f), !dbg !455
  br label %bb1, !dbg !455

bb1:                                              ; preds = %start
  %2 = getelementptr inbounds { [0 x i64]*, i64 }, { [0 x i64]*, i64 }* %self.dbg.spill1, i32 0, i32 0, !dbg !456
  store [0 x i64]* %self.0, [0 x i64]** %2, align 8, !dbg !456
  %3 = getelementptr inbounds { [0 x i64]*, i64 }, { [0 x i64]*, i64 }* %self.dbg.spill1, i32 0, i32 1, !dbg !456
  store i64 %self.1, i64* %3, align 8, !dbg !456
  call void @llvm.dbg.declare(metadata { [0 x i64]*, i64 }* %self.dbg.spill1, metadata !457, metadata !DIExpression()), !dbg !481
; call core::slice::iter::Iter<T>::new
  %4 = call { i64*, i64* } @"_ZN4core5slice4iter13Iter$LT$T$GT$3new17h4489e3ffb31fbfcaE"([0 x i64]* align 8 %self.0, i64 %self.1), !dbg !481
  %_8.0 = extractvalue { i64*, i64* } %4, 0, !dbg !481
  %_8.1 = extractvalue { i64*, i64* } %4, 1, !dbg !481
  br label %bb4, !dbg !481

bb4:                                              ; preds = %bb1
; call core::fmt::builders::DebugList::entries
  %_4 = call align 8 %"core::fmt::builders::DebugList"* @_ZN4core3fmt8builders9DebugList7entries17h90bcbb8fa2725c57E(%"core::fmt::builders::DebugList"* align 8 %_6, i64* %_8.0, i64* %_8.1), !dbg !455
  br label %bb2, !dbg !455

bb2:                                              ; preds = %bb4
; call core::fmt::builders::DebugList::finish
  %5 = call zeroext i1 @_ZN4core3fmt8builders9DebugList6finish17h220b8fd48f08e573E(%"core::fmt::builders::DebugList"* align 8 %_4), !dbg !455
  br label %bb3, !dbg !455

bb3:                                              ; preds = %bb2
  ret i1 %5, !dbg !482
}

; core::fmt::num::<impl core::fmt::Debug for u64>::fmt
; Function Attrs: inlinehint nonlazybind uwtable
define internal zeroext i1 @"_ZN4core3fmt3num50_$LT$impl$u20$core..fmt..Debug$u20$for$u20$u64$GT$3fmt17he069f95395a71a3dE"(i64* align 8 %self, %"core::fmt::Formatter"* align 8 %f) unnamed_addr #0 !dbg !483 {
start:
  %f.dbg.spill = alloca %"core::fmt::Formatter"*, align 8
  %self.dbg.spill = alloca i64*, align 8
  %0 = alloca i8, align 1
  store i64* %self, i64** %self.dbg.spill, align 8
  call void @llvm.dbg.declare(metadata i64** %self.dbg.spill, metadata !490, metadata !DIExpression()), !dbg !492
  store %"core::fmt::Formatter"* %f, %"core::fmt::Formatter"** %f.dbg.spill, align 8
  call void @llvm.dbg.declare(metadata %"core::fmt::Formatter"** %f.dbg.spill, metadata !491, metadata !DIExpression()), !dbg !493
; call core::fmt::Formatter::debug_lower_hex
  %_3 = call zeroext i1 @_ZN4core3fmt9Formatter15debug_lower_hex17hc8ac7c8a90f4e775E(%"core::fmt::Formatter"* align 8 %f), !dbg !494
  br label %bb1, !dbg !494

bb1:                                              ; preds = %start
  br i1 %_3, label %bb2, label %bb4, !dbg !494

bb4:                                              ; preds = %bb1
; call core::fmt::Formatter::debug_upper_hex
  %_7 = call zeroext i1 @_ZN4core3fmt9Formatter15debug_upper_hex17h2e305ce0426e4484E(%"core::fmt::Formatter"* align 8 %f), !dbg !495
  br label %bb5, !dbg !495

bb2:                                              ; preds = %bb1
; call core::fmt::num::<impl core::fmt::LowerHex for u64>::fmt
  %1 = call zeroext i1 @"_ZN4core3fmt3num53_$LT$impl$u20$core..fmt..LowerHex$u20$for$u20$u64$GT$3fmt17h83ad33d3e5fa5326E"(i64* align 8 %self, %"core::fmt::Formatter"* align 8 %f), !dbg !496
  %2 = zext i1 %1 to i8, !dbg !496
  store i8 %2, i8* %0, align 1, !dbg !496
  br label %bb3, !dbg !496

bb3:                                              ; preds = %bb2
  br label %bb11, !dbg !497

bb11:                                             ; preds = %bb10, %bb3
  %3 = load i8, i8* %0, align 1, !dbg !498, !range !499, !noundef !14
  %4 = trunc i8 %3 to i1, !dbg !498
  ret i1 %4, !dbg !498

bb5:                                              ; preds = %bb4
  br i1 %_7, label %bb6, label %bb8, !dbg !495

bb8:                                              ; preds = %bb5
; call core::fmt::num::imp::<impl core::fmt::Display for u64>::fmt
  %5 = call zeroext i1 @"_ZN4core3fmt3num3imp52_$LT$impl$u20$core..fmt..Display$u20$for$u20$u64$GT$3fmt17heb6f93a88e50502bE"(i64* align 8 %self, %"core::fmt::Formatter"* align 8 %f), !dbg !500
  %6 = zext i1 %5 to i8, !dbg !500
  store i8 %6, i8* %0, align 1, !dbg !500
  br label %bb9, !dbg !500

bb6:                                              ; preds = %bb5
; call core::fmt::num::<impl core::fmt::UpperHex for u64>::fmt
  %7 = call zeroext i1 @"_ZN4core3fmt3num53_$LT$impl$u20$core..fmt..UpperHex$u20$for$u20$u64$GT$3fmt17ha8be91a6c197df5dE"(i64* align 8 %self, %"core::fmt::Formatter"* align 8 %f), !dbg !501
  %8 = zext i1 %7 to i8, !dbg !501
  store i8 %8, i8* %0, align 1, !dbg !501
  br label %bb7, !dbg !501

bb7:                                              ; preds = %bb6
  br label %bb10, !dbg !502

bb10:                                             ; preds = %bb9, %bb7
  br label %bb11, !dbg !497

bb9:                                              ; preds = %bb8
  br label %bb10, !dbg !502
}

; core::fmt::builders::DebugList::entries
; Function Attrs: nonlazybind uwtable
define align 8 %"core::fmt::builders::DebugList"* @_ZN4core3fmt8builders9DebugList7entries17h90bcbb8fa2725c57E(%"core::fmt::builders::DebugList"* align 8 %self, i64* %entries.0, i64* %entries.1) unnamed_addr #1 personality i32 (...)* @rust_eh_personality !dbg !503 {
start:
  %0 = alloca { i8*, i32 }, align 8
  %entries.dbg.spill = alloca { i64*, i64* }, align 8
  %self.dbg.spill = alloca %"core::fmt::builders::DebugList"*, align 8
  %entry = alloca i64*, align 8
  %_7 = alloca i64*, align 8
  %iter = alloca { i64*, i64* }, align 8
  store %"core::fmt::builders::DebugList"* %self, %"core::fmt::builders::DebugList"** %self.dbg.spill, align 8
  call void @llvm.dbg.declare(metadata %"core::fmt::builders::DebugList"** %self.dbg.spill, metadata !519, metadata !DIExpression()), !dbg !528
  %1 = getelementptr inbounds { i64*, i64* }, { i64*, i64* }* %entries.dbg.spill, i32 0, i32 0
  store i64* %entries.0, i64** %1, align 8
  %2 = getelementptr inbounds { i64*, i64* }, { i64*, i64* }* %entries.dbg.spill, i32 0, i32 1
  store i64* %entries.1, i64** %2, align 8
  call void @llvm.dbg.declare(metadata { i64*, i64* }* %entries.dbg.spill, metadata !520, metadata !DIExpression()), !dbg !529
  call void @llvm.dbg.declare(metadata { i64*, i64* }* %iter, metadata !521, metadata !DIExpression()), !dbg !530
  call void @llvm.dbg.declare(metadata i64** %entry, metadata !523, metadata !DIExpression()), !dbg !531
; call <I as core::iter::traits::collect::IntoIterator>::into_iter
  %3 = call { i64*, i64* } @"_ZN63_$LT$I$u20$as$u20$core..iter..traits..collect..IntoIterator$GT$9into_iter17h38af631aa6126880E"(i64* %entries.0, i64* %entries.1), !dbg !532
  %_4.0 = extractvalue { i64*, i64* } %3, 0, !dbg !532
  %_4.1 = extractvalue { i64*, i64* } %3, 1, !dbg !532
  br label %bb1, !dbg !532

bb1:                                              ; preds = %start
  %4 = getelementptr inbounds { i64*, i64* }, { i64*, i64* }* %iter, i32 0, i32 0, !dbg !532
  store i64* %_4.0, i64** %4, align 8, !dbg !532
  %5 = getelementptr inbounds { i64*, i64* }, { i64*, i64* }* %iter, i32 0, i32 1, !dbg !532
  store i64* %_4.1, i64** %5, align 8, !dbg !532
  br label %bb2, !dbg !533

bb2:                                              ; preds = %bb8, %bb1
; invoke <core::slice::iter::Iter<T> as core::iter::traits::iterator::Iterator>::next
  %6 = invoke align 8 i64* @"_ZN91_$LT$core..slice..iter..Iter$LT$T$GT$$u20$as$u20$core..iter..traits..iterator..Iterator$GT$4next17hb7eb24d0e75cf949E"({ i64*, i64* }* align 8 %iter)
          to label %bb3 unwind label %cleanup, !dbg !530

bb11:                                             ; preds = %bb10, %cleanup
  br label %bb12, !dbg !534

cleanup:                                          ; preds = %bb2
  %7 = landingpad { i8*, i32 }
          cleanup
  %8 = extractvalue { i8*, i32 } %7, 0
  %9 = extractvalue { i8*, i32 } %7, 1
  %10 = getelementptr inbounds { i8*, i32 }, { i8*, i32 }* %0, i32 0, i32 0
  store i8* %8, i8** %10, align 8
  %11 = getelementptr inbounds { i8*, i32 }, { i8*, i32 }* %0, i32 0, i32 1
  store i32 %9, i32* %11, align 8
  br label %bb11

bb3:                                              ; preds = %bb2
  store i64* %6, i64** %_7, align 8, !dbg !530
  %12 = bitcast i64** %_7 to {}**, !dbg !530
  %13 = load {}*, {}** %12, align 8, !dbg !530
  %14 = icmp eq {}* %13, null, !dbg !530
  %_10 = select i1 %14, i64 0, i64 1, !dbg !530
  switch i64 %_10, label %bb5 [
    i64 0, label %bb6
    i64 1, label %bb4
  ], !dbg !530

bb5:                                              ; preds = %bb3
  unreachable, !dbg !530

bb6:                                              ; preds = %bb3
  br label %bb9, !dbg !534

bb4:                                              ; preds = %bb3
  %15 = load i64*, i64** %_7, align 8, !dbg !535, !nonnull !14, !align !303, !noundef !14
  store i64* %15, i64** %entry, align 8, !dbg !535
  %_14.0 = bitcast i64** %entry to {}*, !dbg !536
; invoke core::fmt::builders::DebugList::entry
  %_12 = invoke align 8 %"core::fmt::builders::DebugList"* @_ZN4core3fmt8builders9DebugList5entry17hc4aee0c811a9a296E(%"core::fmt::builders::DebugList"* align 8 %self, {}* align 1 %_14.0, [3 x i64]* align 8 bitcast (<{ i8*, [16 x i8], i8* }>* @vtable.0 to [3 x i64]*))
          to label %bb7 unwind label %cleanup1, !dbg !537

bb10:                                             ; preds = %cleanup1
  br label %bb11, !dbg !538

cleanup1:                                         ; preds = %bb4
  %16 = landingpad { i8*, i32 }
          cleanup
  %17 = extractvalue { i8*, i32 } %16, 0
  %18 = extractvalue { i8*, i32 } %16, 1
  %19 = getelementptr inbounds { i8*, i32 }, { i8*, i32 }* %0, i32 0, i32 0
  store i8* %17, i8** %19, align 8
  %20 = getelementptr inbounds { i8*, i32 }, { i8*, i32 }* %0, i32 0, i32 1
  store i32 %18, i32* %20, align 8
  br label %bb10

bb7:                                              ; preds = %bb4
  br label %bb8, !dbg !538

bb8:                                              ; preds = %bb7
  br label %bb2, !dbg !533

bb12:                                             ; preds = %bb11
  %21 = bitcast { i8*, i32 }* %0 to i8**, !dbg !539
  %22 = load i8*, i8** %21, align 8, !dbg !539
  %23 = getelementptr inbounds { i8*, i32 }, { i8*, i32 }* %0, i32 0, i32 1, !dbg !539
  %24 = load i32, i32* %23, align 8, !dbg !539
  %25 = insertvalue { i8*, i32 } undef, i8* %22, 0, !dbg !539
  %26 = insertvalue { i8*, i32 } %25, i32 %24, 1, !dbg !539
  resume { i8*, i32 } %26, !dbg !539

bb9:                                              ; preds = %bb6
  ret %"core::fmt::builders::DebugList"* %self, !dbg !540
}

; core::fmt::Arguments::new_v1
; Function Attrs: inlinehint nonlazybind uwtable
define internal void @_ZN4core3fmt9Arguments6new_v117h2d6713ed55376961E(%"core::fmt::Arguments"* sret(%"core::fmt::Arguments") %0, [0 x { [0 x i8]*, i64 }]* align 8 %pieces.0, i64 %pieces.1, [0 x { i8*, i64* }]* align 8 %args.0, i64 %args.1) unnamed_addr #0 !dbg !541 {
start:
  %args.dbg.spill = alloca { [0 x { i8*, i64* }]*, i64 }, align 8
  %pieces.dbg.spill = alloca { [0 x { [0 x i8]*, i64 }]*, i64 }, align 8
  %_24 = alloca { i64*, i64 }, align 8
  %_16 = alloca %"core::fmt::Arguments", align 8
  %_3 = alloca i8, align 1
  %1 = getelementptr inbounds { [0 x { [0 x i8]*, i64 }]*, i64 }, { [0 x { [0 x i8]*, i64 }]*, i64 }* %pieces.dbg.spill, i32 0, i32 0
  store [0 x { [0 x i8]*, i64 }]* %pieces.0, [0 x { [0 x i8]*, i64 }]** %1, align 8
  %2 = getelementptr inbounds { [0 x { [0 x i8]*, i64 }]*, i64 }, { [0 x { [0 x i8]*, i64 }]*, i64 }* %pieces.dbg.spill, i32 0, i32 1
  store i64 %pieces.1, i64* %2, align 8
  call void @llvm.dbg.declare(metadata { [0 x { [0 x i8]*, i64 }]*, i64 }* %pieces.dbg.spill, metadata !614, metadata !DIExpression()), !dbg !616
  %3 = getelementptr inbounds { [0 x { i8*, i64* }]*, i64 }, { [0 x { i8*, i64* }]*, i64 }* %args.dbg.spill, i32 0, i32 0
  store [0 x { i8*, i64* }]* %args.0, [0 x { i8*, i64* }]** %3, align 8
  %4 = getelementptr inbounds { [0 x { i8*, i64* }]*, i64 }, { [0 x { i8*, i64* }]*, i64 }* %args.dbg.spill, i32 0, i32 1
  store i64 %args.1, i64* %4, align 8
  call void @llvm.dbg.declare(metadata { [0 x { i8*, i64* }]*, i64 }* %args.dbg.spill, metadata !615, metadata !DIExpression()), !dbg !617
  %_4 = icmp ult i64 %pieces.1, %args.1, !dbg !618
  br i1 %_4, label %bb1, label %bb2, !dbg !618

bb2:                                              ; preds = %start
  %_12 = add i64 %args.1, 1, !dbg !619
  %_9 = icmp ugt i64 %pieces.1, %_12, !dbg !620
  %5 = zext i1 %_9 to i8, !dbg !618
  store i8 %5, i8* %_3, align 1, !dbg !618
  br label %bb3, !dbg !618

bb1:                                              ; preds = %start
  store i8 1, i8* %_3, align 1, !dbg !618
  br label %bb3, !dbg !618

bb3:                                              ; preds = %bb2, %bb1
  %6 = load i8, i8* %_3, align 1, !dbg !618, !range !499, !noundef !14
  %7 = trunc i8 %6 to i1, !dbg !618
  br i1 %7, label %bb4, label %bb6, !dbg !618

bb6:                                              ; preds = %bb3
  %8 = bitcast { i64*, i64 }* %_24 to {}**, !dbg !621
  store {}* null, {}** %8, align 8, !dbg !621
  %9 = bitcast %"core::fmt::Arguments"* %0 to { [0 x { [0 x i8]*, i64 }]*, i64 }*, !dbg !622
  %10 = getelementptr inbounds { [0 x { [0 x i8]*, i64 }]*, i64 }, { [0 x { [0 x i8]*, i64 }]*, i64 }* %9, i32 0, i32 0, !dbg !622
  store [0 x { [0 x i8]*, i64 }]* %pieces.0, [0 x { [0 x i8]*, i64 }]** %10, align 8, !dbg !622
  %11 = getelementptr inbounds { [0 x { [0 x i8]*, i64 }]*, i64 }, { [0 x { [0 x i8]*, i64 }]*, i64 }* %9, i32 0, i32 1, !dbg !622
  store i64 %pieces.1, i64* %11, align 8, !dbg !622
  %12 = getelementptr inbounds %"core::fmt::Arguments", %"core::fmt::Arguments"* %0, i32 0, i32 1, !dbg !622
  %13 = getelementptr inbounds { i64*, i64 }, { i64*, i64 }* %_24, i32 0, i32 0, !dbg !622
  %14 = load i64*, i64** %13, align 8, !dbg !622, !align !303
  %15 = getelementptr inbounds { i64*, i64 }, { i64*, i64 }* %_24, i32 0, i32 1, !dbg !622
  %16 = load i64, i64* %15, align 8, !dbg !622
  %17 = getelementptr inbounds { i64*, i64 }, { i64*, i64 }* %12, i32 0, i32 0, !dbg !622
  store i64* %14, i64** %17, align 8, !dbg !622
  %18 = getelementptr inbounds { i64*, i64 }, { i64*, i64 }* %12, i32 0, i32 1, !dbg !622
  store i64 %16, i64* %18, align 8, !dbg !622
  %19 = getelementptr inbounds %"core::fmt::Arguments", %"core::fmt::Arguments"* %0, i32 0, i32 2, !dbg !622
  %20 = getelementptr inbounds { [0 x { i8*, i64* }]*, i64 }, { [0 x { i8*, i64* }]*, i64 }* %19, i32 0, i32 0, !dbg !622
  store [0 x { i8*, i64* }]* %args.0, [0 x { i8*, i64* }]** %20, align 8, !dbg !622
  %21 = getelementptr inbounds { [0 x { i8*, i64* }]*, i64 }, { [0 x { i8*, i64* }]*, i64 }* %19, i32 0, i32 1, !dbg !622
  store i64 %args.1, i64* %21, align 8, !dbg !622
  ret void, !dbg !623

bb4:                                              ; preds = %bb3
; call core::fmt::Arguments::new_v1
  call void @_ZN4core3fmt9Arguments6new_v117h2d6713ed55376961E(%"core::fmt::Arguments"* sret(%"core::fmt::Arguments") %_16, [0 x { [0 x i8]*, i64 }]* align 8 bitcast (<{ i8*, [8 x i8] }>* @alloc635 to [0 x { [0 x i8]*, i64 }]*), i64 1, [0 x { i8*, i64* }]* align 8 bitcast (<{}>* @alloc639 to [0 x { i8*, i64* }]*), i64 0), !dbg !624
  br label %bb5, !dbg !624

bb5:                                              ; preds = %bb4
; call core::panicking::panic_fmt
  call void @_ZN4core9panicking9panic_fmt17h8b6ce72891ae5e4fE(%"core::fmt::Arguments"* %_16, %"core::panic::location::Location"* align 8 bitcast (<{ i8*, [16 x i8] }>* @alloc751 to %"core::panic::location::Location"*)) #13, !dbg !624
  unreachable, !dbg !624
}

; core::mem::drop
; Function Attrs: inlinehint nonlazybind uwtable
define void @_ZN4core3mem4drop17h3aecacc231594bfbE({ {}*, [3 x i64]* }* align 8 %0) unnamed_addr #0 !dbg !625 {
start:
  %_x = alloca { {}*, [3 x i64]* }*, align 8
  store { {}*, [3 x i64]* }* %0, { {}*, [3 x i64]* }** %_x, align 8
  call void @llvm.dbg.declare(metadata { {}*, [3 x i64]* }** %_x, metadata !630, metadata !DIExpression()), !dbg !631
; call core::ptr::drop_in_place<alloc::boxed::Box<alloc::boxed::Box<dyn ahash::random_state::RandomSource+core::marker::Send+core::marker::Sync>>>
  call void @"_ZN4core3ptr158drop_in_place$LT$alloc..boxed..Box$LT$alloc..boxed..Box$LT$dyn$u20$ahash..random_state..RandomSource$u2b$core..marker..Send$u2b$core..marker..Sync$GT$$GT$$GT$17haff63ecc96d06249E"({ {}*, [3 x i64]* }** %_x), !dbg !632
  br label %bb1, !dbg !632

bb1:                                              ; preds = %start
  ret void, !dbg !633
}

; core::mem::drop
; Function Attrs: inlinehint nonlazybind uwtable
define void @_ZN4core3mem4drop17hde36bfd99ac82b35E([2 x [4 x i64]]* align 8 %0) unnamed_addr #0 !dbg !634 {
start:
  %_x = alloca [2 x [4 x i64]]*, align 8
  store [2 x [4 x i64]]* %0, [2 x [4 x i64]]** %_x, align 8
  call void @llvm.dbg.declare(metadata [2 x [4 x i64]]** %_x, metadata !638, metadata !DIExpression()), !dbg !639
; call core::ptr::drop_in_place<alloc::boxed::Box<[[u64; 4]; 2]>>
  call void @"_ZN4core3ptr91drop_in_place$LT$alloc..boxed..Box$LT$$u5b$$u5b$u64$u3b$$u20$4$u5d$$u3b$$u20$2$u5d$$GT$$GT$17h42fe0c9e41057eb8E"([2 x [4 x i64]]** %_x), !dbg !640
  br label %bb1, !dbg !640

bb1:                                              ; preds = %start
  ret void, !dbg !641
}

; core::ptr::drop_in_place<dyn ahash::random_state::RandomSource+core::marker::Send+core::marker::Sync>
; Function Attrs: nonlazybind uwtable
define void @"_ZN4core3ptr108drop_in_place$LT$dyn$u20$ahash..random_state..RandomSource$u2b$core..marker..Send$u2b$core..marker..Sync$GT$17h86c269d9ac07da9cE"({}* %_1.0, [3 x i64]* align 8 %_1.1) unnamed_addr #1 !dbg !642 {
start:
  %_1.dbg.spill = alloca { {}*, [3 x i64]* }, align 8
  %0 = getelementptr inbounds { {}*, [3 x i64]* }, { {}*, [3 x i64]* }* %_1.dbg.spill, i32 0, i32 0
  store {}* %_1.0, {}** %0, align 8
  %1 = getelementptr inbounds { {}*, [3 x i64]* }, { {}*, [3 x i64]* }* %_1.dbg.spill, i32 0, i32 1
  store [3 x i64]* %_1.1, [3 x i64]** %1, align 8
  call void @llvm.dbg.declare(metadata { {}*, [3 x i64]* }* %_1.dbg.spill, metadata !651, metadata !DIExpression()), !dbg !654
  %2 = bitcast [3 x i64]* %_1.1 to void ({}*)**, !dbg !654
  %3 = getelementptr inbounds void ({}*)*, void ({}*)** %2, i64 0, !dbg !654
  %4 = load void ({}*)*, void ({}*)** %3, align 8, !dbg !654, !invariant.load !14, !nonnull !14
  call void %4({}* %_1.0), !dbg !654
  br label %bb1, !dbg !654

bb1:                                              ; preds = %start
  ret void, !dbg !654
}

; core::ptr::drop_in_place<once_cell::race::once_box::OnceBox<[[u64; 4]; 2]>>
; Function Attrs: nonlazybind uwtable
define void @"_ZN4core3ptr108drop_in_place$LT$once_cell..race..once_box..OnceBox$LT$$u5b$$u5b$u64$u3b$$u20$4$u5d$$u3b$$u20$2$u5d$$GT$$GT$17h4d7094ac88b32d14E"(%"once_cell::race::once_box::OnceBox<[[u64; 4]; 2]>"* %_1) unnamed_addr #1 !dbg !655 {
start:
  %_1.dbg.spill = alloca %"once_cell::race::once_box::OnceBox<[[u64; 4]; 2]>"*, align 8
  store %"once_cell::race::once_box::OnceBox<[[u64; 4]; 2]>"* %_1, %"once_cell::race::once_box::OnceBox<[[u64; 4]; 2]>"** %_1.dbg.spill, align 8
  call void @llvm.dbg.declare(metadata %"once_cell::race::once_box::OnceBox<[[u64; 4]; 2]>"** %_1.dbg.spill, metadata !660, metadata !DIExpression()), !dbg !663
; call <once_cell::race::once_box::OnceBox<T> as core::ops::drop::Drop>::drop
  call void @"_ZN85_$LT$once_cell..race..once_box..OnceBox$LT$T$GT$$u20$as$u20$core..ops..drop..Drop$GT$4drop17h2a2248215a874886E"(%"once_cell::race::once_box::OnceBox<[[u64; 4]; 2]>"* align 8 %_1), !dbg !663
  br label %bb1, !dbg !663

bb1:                                              ; preds = %start
  ret void, !dbg !663
}

; core::ptr::drop_in_place<alloc::boxed::Box<dyn ahash::random_state::RandomSource+core::marker::Send+core::marker::Sync>>
; Function Attrs: nonlazybind uwtable
define void @"_ZN4core3ptr133drop_in_place$LT$alloc..boxed..Box$LT$dyn$u20$ahash..random_state..RandomSource$u2b$core..marker..Send$u2b$core..marker..Sync$GT$$GT$17h374374c1436e3800E"({ {}*, [3 x i64]* }* %_1) unnamed_addr #1 personality i32 (...)* @rust_eh_personality !dbg !664 {
start:
  %0 = alloca { i8*, i32 }, align 8
  %_1.dbg.spill = alloca { {}*, [3 x i64]* }*, align 8
  store { {}*, [3 x i64]* }* %_1, { {}*, [3 x i64]* }** %_1.dbg.spill, align 8
  call void @llvm.dbg.declare(metadata { {}*, [3 x i64]* }** %_1.dbg.spill, metadata !668, metadata !DIExpression()), !dbg !669
  %1 = bitcast { {}*, [3 x i64]* }* %_1 to { i8*, i64* }*, !dbg !669
  %2 = bitcast { i8*, i64* }* %1 to { {}*, [3 x i64]* }*, !dbg !669
  %3 = getelementptr inbounds { {}*, [3 x i64]* }, { {}*, [3 x i64]* }* %2, i32 0, i32 0, !dbg !669
  %4 = load {}*, {}** %3, align 8, !dbg !669
  %5 = getelementptr inbounds { {}*, [3 x i64]* }, { {}*, [3 x i64]* }* %2, i32 0, i32 1, !dbg !669
  %6 = load [3 x i64]*, [3 x i64]** %5, align 8, !dbg !669, !nonnull !14, !align !303, !noundef !14
  %7 = bitcast [3 x i64]* %6 to void ({}*)**, !dbg !669
  %8 = getelementptr inbounds void ({}*)*, void ({}*)** %7, i64 0, !dbg !669
  %9 = load void ({}*)*, void ({}*)** %8, align 8, !dbg !669, !invariant.load !14, !nonnull !14
  invoke void %9({}* %4)
          to label %bb3 unwind label %cleanup, !dbg !669

bb4:                                              ; preds = %cleanup
  %10 = bitcast { {}*, [3 x i64]* }* %_1 to { i8*, i64* }*, !dbg !669
  %11 = getelementptr inbounds { i8*, i64* }, { i8*, i64* }* %10, i32 0, i32 0, !dbg !669
  %12 = load i8*, i8** %11, align 8, !dbg !669, !nonnull !14, !noundef !14
  %13 = getelementptr inbounds { i8*, i64* }, { i8*, i64* }* %10, i32 0, i32 1, !dbg !669
  %14 = load i64*, i64** %13, align 8, !dbg !669, !nonnull !14, !align !303, !noundef !14
; invoke alloc::alloc::box_free
  invoke void @_ZN5alloc5alloc8box_free17h35fa56438aba4824E(i8* %12, i64* align 8 %14) #14
          to label %bb2 unwind label %abort, !dbg !669

cleanup:                                          ; preds = %start
  %15 = landingpad { i8*, i32 }
          cleanup
  %16 = extractvalue { i8*, i32 } %15, 0
  %17 = extractvalue { i8*, i32 } %15, 1
  %18 = getelementptr inbounds { i8*, i32 }, { i8*, i32 }* %0, i32 0, i32 0
  store i8* %16, i8** %18, align 8
  %19 = getelementptr inbounds { i8*, i32 }, { i8*, i32 }* %0, i32 0, i32 1
  store i32 %17, i32* %19, align 8
  br label %bb4

bb3:                                              ; preds = %start
  %20 = bitcast { {}*, [3 x i64]* }* %_1 to { i8*, i64* }*, !dbg !669
  %21 = getelementptr inbounds { i8*, i64* }, { i8*, i64* }* %20, i32 0, i32 0, !dbg !669
  %22 = load i8*, i8** %21, align 8, !dbg !669, !nonnull !14, !noundef !14
  %23 = getelementptr inbounds { i8*, i64* }, { i8*, i64* }* %20, i32 0, i32 1, !dbg !669
  %24 = load i64*, i64** %23, align 8, !dbg !669, !nonnull !14, !align !303, !noundef !14
; call alloc::alloc::box_free
  call void @_ZN5alloc5alloc8box_free17h35fa56438aba4824E(i8* %22, i64* align 8 %24), !dbg !669
  br label %bb1, !dbg !669

abort:                                            ; preds = %bb4
  %25 = landingpad { i8*, i32 }
          cleanup, !dbg !669
; call core::panicking::panic_no_unwind
  call void @_ZN4core9panicking15panic_no_unwind17h57180e694165966aE() #15, !dbg !669
  unreachable, !dbg !669

bb2:                                              ; preds = %bb4
  %26 = bitcast { i8*, i32 }* %0 to i8**, !dbg !669
  %27 = load i8*, i8** %26, align 8, !dbg !669
  %28 = getelementptr inbounds { i8*, i32 }, { i8*, i32 }* %0, i32 0, i32 1, !dbg !669
  %29 = load i32, i32* %28, align 8, !dbg !669
  %30 = insertvalue { i8*, i32 } undef, i8* %27, 0, !dbg !669
  %31 = insertvalue { i8*, i32 } %30, i32 %29, 1, !dbg !669
  resume { i8*, i32 } %31, !dbg !669

bb1:                                              ; preds = %bb3
  ret void, !dbg !669
}

; core::ptr::drop_in_place<alloc::boxed::Box<alloc::boxed::Box<dyn ahash::random_state::RandomSource+core::marker::Send+core::marker::Sync>>>
; Function Attrs: nonlazybind uwtable
define void @"_ZN4core3ptr158drop_in_place$LT$alloc..boxed..Box$LT$alloc..boxed..Box$LT$dyn$u20$ahash..random_state..RandomSource$u2b$core..marker..Send$u2b$core..marker..Sync$GT$$GT$$GT$17haff63ecc96d06249E"({ {}*, [3 x i64]* }** %_1) unnamed_addr #1 personality i32 (...)* @rust_eh_personality !dbg !670 {
start:
  %0 = alloca { i8*, i32 }, align 8
  %_1.dbg.spill = alloca { {}*, [3 x i64]* }**, align 8
  store { {}*, [3 x i64]* }** %_1, { {}*, [3 x i64]* }*** %_1.dbg.spill, align 8
  call void @llvm.dbg.declare(metadata { {}*, [3 x i64]* }*** %_1.dbg.spill, metadata !675, metadata !DIExpression()), !dbg !676
  %1 = bitcast { {}*, [3 x i64]* }** %_1 to i64**, !dbg !676
  %2 = bitcast i64** %1 to { {}*, [3 x i64]* }**, !dbg !676
  %3 = load { {}*, [3 x i64]* }*, { {}*, [3 x i64]* }** %2, align 8, !dbg !676
; invoke core::ptr::drop_in_place<alloc::boxed::Box<dyn ahash::random_state::RandomSource+core::marker::Send+core::marker::Sync>>
  invoke void @"_ZN4core3ptr133drop_in_place$LT$alloc..boxed..Box$LT$dyn$u20$ahash..random_state..RandomSource$u2b$core..marker..Send$u2b$core..marker..Sync$GT$$GT$17h374374c1436e3800E"({ {}*, [3 x i64]* }* %3)
          to label %bb3 unwind label %cleanup, !dbg !676

bb4:                                              ; preds = %cleanup
  %4 = bitcast { {}*, [3 x i64]* }** %_1 to i64**, !dbg !676
  %5 = load i64*, i64** %4, align 8, !dbg !676, !nonnull !14, !noundef !14
; invoke alloc::alloc::box_free
  invoke void @_ZN5alloc5alloc8box_free17h28a0821fb3fe7cc1E(i64* %5) #14
          to label %bb2 unwind label %abort, !dbg !676

cleanup:                                          ; preds = %start
  %6 = landingpad { i8*, i32 }
          cleanup
  %7 = extractvalue { i8*, i32 } %6, 0
  %8 = extractvalue { i8*, i32 } %6, 1
  %9 = getelementptr inbounds { i8*, i32 }, { i8*, i32 }* %0, i32 0, i32 0
  store i8* %7, i8** %9, align 8
  %10 = getelementptr inbounds { i8*, i32 }, { i8*, i32 }* %0, i32 0, i32 1
  store i32 %8, i32* %10, align 8
  br label %bb4

bb3:                                              ; preds = %start
  %11 = bitcast { {}*, [3 x i64]* }** %_1 to i64**, !dbg !676
  %12 = load i64*, i64** %11, align 8, !dbg !676, !nonnull !14, !noundef !14
; call alloc::alloc::box_free
  call void @_ZN5alloc5alloc8box_free17h28a0821fb3fe7cc1E(i64* %12), !dbg !676
  br label %bb1, !dbg !676

abort:                                            ; preds = %bb4
  %13 = landingpad { i8*, i32 }
          cleanup, !dbg !676
; call core::panicking::panic_no_unwind
  call void @_ZN4core9panicking15panic_no_unwind17h57180e694165966aE() #15, !dbg !676
  unreachable, !dbg !676

bb2:                                              ; preds = %bb4
  %14 = bitcast { i8*, i32 }* %0 to i8**, !dbg !676
  %15 = load i8*, i8** %14, align 8, !dbg !676
  %16 = getelementptr inbounds { i8*, i32 }, { i8*, i32 }* %0, i32 0, i32 1, !dbg !676
  %17 = load i32, i32* %16, align 8, !dbg !676
  %18 = insertvalue { i8*, i32 } undef, i8* %15, 0, !dbg !676
  %19 = insertvalue { i8*, i32 } %18, i32 %17, 1, !dbg !676
  resume { i8*, i32 } %19, !dbg !676

bb1:                                              ; preds = %bb3
  ret void, !dbg !676
}

; core::ptr::drop_in_place<once_cell::race::once_box::OnceBox<alloc::boxed::Box<dyn ahash::random_state::RandomSource+core::marker::Send+core::marker::Sync>>>
; Function Attrs: nonlazybind uwtable
define void @"_ZN4core3ptr175drop_in_place$LT$once_cell..race..once_box..OnceBox$LT$alloc..boxed..Box$LT$dyn$u20$ahash..random_state..RandomSource$u2b$core..marker..Send$u2b$core..marker..Sync$GT$$GT$$GT$17h84f89d436f98eb6fE"(%"once_cell::race::once_box::OnceBox<alloc::boxed::Box<dyn random_state::RandomSource + core::marker::Send + core::marker::Sync>>"* %_1) unnamed_addr #1 !dbg !677 {
start:
  %_1.dbg.spill = alloca %"once_cell::race::once_box::OnceBox<alloc::boxed::Box<dyn random_state::RandomSource + core::marker::Send + core::marker::Sync>>"*, align 8
  store %"once_cell::race::once_box::OnceBox<alloc::boxed::Box<dyn random_state::RandomSource + core::marker::Send + core::marker::Sync>>"* %_1, %"once_cell::race::once_box::OnceBox<alloc::boxed::Box<dyn random_state::RandomSource + core::marker::Send + core::marker::Sync>>"** %_1.dbg.spill, align 8
  call void @llvm.dbg.declare(metadata %"once_cell::race::once_box::OnceBox<alloc::boxed::Box<dyn random_state::RandomSource + core::marker::Send + core::marker::Sync>>"** %_1.dbg.spill, metadata !682, metadata !DIExpression()), !dbg !685
; call <once_cell::race::once_box::OnceBox<T> as core::ops::drop::Drop>::drop
  call void @"_ZN85_$LT$once_cell..race..once_box..OnceBox$LT$T$GT$$u20$as$u20$core..ops..drop..Drop$GT$4drop17h29827f698a62b81aE"(%"once_cell::race::once_box::OnceBox<alloc::boxed::Box<dyn random_state::RandomSource + core::marker::Send + core::marker::Sync>>"* align 8 %_1), !dbg !685
  br label %bb1, !dbg !685

bb1:                                              ; preds = %start
  ret void, !dbg !685
}

; core::ptr::drop_in_place<&u64>
; Function Attrs: inlinehint nonlazybind uwtable
define internal void @"_ZN4core3ptr28drop_in_place$LT$$RF$u64$GT$17hbf1565b298779a09E"(i64** %_1) unnamed_addr #0 !dbg !686 {
start:
  %_1.dbg.spill = alloca i64**, align 8
  store i64** %_1, i64*** %_1.dbg.spill, align 8
  call void @llvm.dbg.declare(metadata i64*** %_1.dbg.spill, metadata !691, metadata !DIExpression()), !dbg !692
  ret void, !dbg !692
}

; core::ptr::drop_in_place<getrandom::error::Error>
; Function Attrs: inlinehint nonlazybind uwtable
define internal void @"_ZN4core3ptr44drop_in_place$LT$getrandom..error..Error$GT$17h674d5cc1aaebc53dE"(i32* %_1) unnamed_addr #0 !dbg !693 {
start:
  %_1.dbg.spill = alloca i32*, align 8
  store i32* %_1, i32** %_1.dbg.spill, align 8
  call void @llvm.dbg.declare(metadata i32** %_1.dbg.spill, metadata !698, metadata !DIExpression()), !dbg !701
  ret void, !dbg !701
}

; core::ptr::drop_in_place<&[u64; 2]>
; Function Attrs: inlinehint nonlazybind uwtable
define internal void @"_ZN4core3ptr49drop_in_place$LT$$RF$$u5b$u64$u3b$$u20$2$u5d$$GT$17hd0f61a86220fb22aE"([2 x i64]** %_1) unnamed_addr #0 !dbg !702 {
start:
  %_1.dbg.spill = alloca [2 x i64]**, align 8
  store [2 x i64]** %_1, [2 x i64]*** %_1.dbg.spill, align 8
  call void @llvm.dbg.declare(metadata [2 x i64]*** %_1.dbg.spill, metadata !707, metadata !DIExpression()), !dbg !710
  ret void, !dbg !710
}

; core::ptr::mut_ptr::<impl *mut T>::is_null
; Function Attrs: inlinehint nonlazybind uwtable
define zeroext i1 @"_ZN4core3ptr7mut_ptr31_$LT$impl$u20$$BP$mut$u20$T$GT$7is_null17h02496b4f9444d7b6E"({ {}*, [3 x i64]* }* %self) unnamed_addr #0 !dbg !711 {
start:
  %0 = alloca i8, align 1
  %other.dbg.spill = alloca i8*, align 8
  %data_address.dbg.spill = alloca {}*, align 8
  %1 = alloca {}*, align 8
  %self.dbg.spill2 = alloca i8*, align 8
  %metadata.dbg.spill = alloca {}, align 1
  %self.dbg.spill = alloca { {}*, [3 x i64]* }*, align 8
  %_10 = alloca %"core::ptr::metadata::PtrComponents<u8>", align 8
  %_9 = alloca %"core::ptr::metadata::PtrRepr<u8>", align 8
  store { {}*, [3 x i64]* }* %self, { {}*, [3 x i64]* }** %self.dbg.spill, align 8
  call void @llvm.dbg.declare(metadata { {}*, [3 x i64]* }** %self.dbg.spill, metadata !718, metadata !DIExpression()), !dbg !719
  call void @llvm.dbg.declare(metadata {}* %metadata.dbg.spill, metadata !720, metadata !DIExpression()), !dbg !733
  %self1 = bitcast { {}*, [3 x i64]* }* %self to i8*, !dbg !739, !rawptr !740
  store i8* %self1, i8** %self.dbg.spill2, align 8, !dbg !739
  call void @llvm.dbg.declare(metadata i8** %self.dbg.spill2, metadata !741, metadata !DIExpression()), !dbg !747
  %2 = bitcast {}** %1 to i64*, !dbg !748
  store i64 0, i64* %2, align 8, !dbg !748
  %data_address = load {}*, {}** %1, align 8, !dbg !748, !rawptr !740
  store {}* %data_address, {}** %data_address.dbg.spill, align 8, !dbg !748
  call void @llvm.dbg.declare(metadata {}** %data_address.dbg.spill, metadata !730, metadata !DIExpression()), !dbg !733
  br label %bb1, !dbg !748

bb1:                                              ; preds = %start
  %3 = bitcast %"core::ptr::metadata::PtrComponents<u8>"* %_10 to {}**, !dbg !733, !rawptr !740
  store {}* %data_address, {}** %3, align 8, !dbg !733
  %4 = bitcast %"core::ptr::metadata::PtrRepr<u8>"* %_9 to %"core::ptr::metadata::PtrComponents<u8>"*, !dbg !733
  %5 = bitcast %"core::ptr::metadata::PtrComponents<u8>"* %4 to i8*, !dbg !733
  %6 = bitcast %"core::ptr::metadata::PtrComponents<u8>"* %_10 to i8*, !dbg !733
  call void @llvm.memcpy.p0i8.p0i8.i64(i8* align 8 %5, i8* align 8 %6, i64 8, i1 false), !dbg !733
  %7 = bitcast %"core::ptr::metadata::PtrRepr<u8>"* %_9 to i8**, !dbg !733
  %other = load i8*, i8** %7, align 8, !dbg !733, !rawptr !740
  store i8* %other, i8** %other.dbg.spill, align 8, !dbg !733
  call void @llvm.dbg.declare(metadata i8** %other.dbg.spill, metadata !746, metadata !DIExpression()), !dbg !747
  %8 = icmp eq i8* %self1, %other, !dbg !747
  %9 = zext i1 %8 to i8, !dbg !747
  store i8 %9, i8* %0, align 1, !dbg !747
  %10 = load i8, i8* %0, align 1, !dbg !747, !range !499, !noundef !14
  %11 = trunc i8 %10 to i1, !dbg !747
  br label %bb2, !dbg !747

bb2:                                              ; preds = %bb1
  ret i1 %11, !dbg !757
}

; core::ptr::mut_ptr::<impl *mut T>::is_null
; Function Attrs: inlinehint nonlazybind uwtable
define zeroext i1 @"_ZN4core3ptr7mut_ptr31_$LT$impl$u20$$BP$mut$u20$T$GT$7is_null17h2003ae6a0b248336E"([2 x [4 x i64]]* %self) unnamed_addr #0 !dbg !758 {
start:
  %0 = alloca i8, align 1
  %other.dbg.spill = alloca i8*, align 8
  %data_address.dbg.spill = alloca {}*, align 8
  %1 = alloca {}*, align 8
  %self.dbg.spill2 = alloca i8*, align 8
  %metadata.dbg.spill = alloca {}, align 1
  %self.dbg.spill = alloca [2 x [4 x i64]]*, align 8
  %_10 = alloca %"core::ptr::metadata::PtrComponents<u8>", align 8
  %_9 = alloca %"core::ptr::metadata::PtrRepr<u8>", align 8
  store [2 x [4 x i64]]* %self, [2 x [4 x i64]]** %self.dbg.spill, align 8
  call void @llvm.dbg.declare(metadata [2 x [4 x i64]]** %self.dbg.spill, metadata !762, metadata !DIExpression()), !dbg !763
  call void @llvm.dbg.declare(metadata {}* %metadata.dbg.spill, metadata !764, metadata !DIExpression()), !dbg !769
  %self1 = bitcast [2 x [4 x i64]]* %self to i8*, !dbg !773, !rawptr !740
  store i8* %self1, i8** %self.dbg.spill2, align 8, !dbg !773
  call void @llvm.dbg.declare(metadata i8** %self.dbg.spill2, metadata !774, metadata !DIExpression()), !dbg !778
  %2 = bitcast {}** %1 to i64*, !dbg !779
  store i64 0, i64* %2, align 8, !dbg !779
  %data_address = load {}*, {}** %1, align 8, !dbg !779, !rawptr !740
  store {}* %data_address, {}** %data_address.dbg.spill, align 8, !dbg !779
  call void @llvm.dbg.declare(metadata {}** %data_address.dbg.spill, metadata !768, metadata !DIExpression()), !dbg !769
  br label %bb1, !dbg !779

bb1:                                              ; preds = %start
  %3 = bitcast %"core::ptr::metadata::PtrComponents<u8>"* %_10 to {}**, !dbg !769, !rawptr !740
  store {}* %data_address, {}** %3, align 8, !dbg !769
  %4 = bitcast %"core::ptr::metadata::PtrRepr<u8>"* %_9 to %"core::ptr::metadata::PtrComponents<u8>"*, !dbg !769
  %5 = bitcast %"core::ptr::metadata::PtrComponents<u8>"* %4 to i8*, !dbg !769
  %6 = bitcast %"core::ptr::metadata::PtrComponents<u8>"* %_10 to i8*, !dbg !769
  call void @llvm.memcpy.p0i8.p0i8.i64(i8* align 8 %5, i8* align 8 %6, i64 8, i1 false), !dbg !769
  %7 = bitcast %"core::ptr::metadata::PtrRepr<u8>"* %_9 to i8**, !dbg !769
  %other = load i8*, i8** %7, align 8, !dbg !769, !rawptr !740
  store i8* %other, i8** %other.dbg.spill, align 8, !dbg !769
  call void @llvm.dbg.declare(metadata i8** %other.dbg.spill, metadata !777, metadata !DIExpression()), !dbg !778
  %8 = icmp eq i8* %self1, %other, !dbg !778
  %9 = zext i1 %8 to i8, !dbg !778
  store i8 %9, i8* %0, align 1, !dbg !778
  %10 = load i8, i8* %0, align 1, !dbg !778, !range !499, !noundef !14
  %11 = trunc i8 %10 to i1, !dbg !778
  br label %bb2, !dbg !778

bb2:                                              ; preds = %bb1
  ret i1 %11, !dbg !785
}

; core::ptr::non_null::NonNull<T>::new
; Function Attrs: inlinehint nonlazybind uwtable
define i8* @"_ZN4core3ptr8non_null16NonNull$LT$T$GT$3new17h0fba63d578e17739E"(i8* %ptr) unnamed_addr #0 !dbg !786 {
start:
  %ptr.dbg.spill2 = alloca i8*, align 8
  %0 = alloca i8, align 1
  %other.dbg.spill = alloca i8*, align 8
  %data_address.dbg.spill = alloca {}*, align 8
  %1 = alloca {}*, align 8
  %self.dbg.spill1 = alloca i8*, align 8
  %self.dbg.spill = alloca i8*, align 8
  %metadata.dbg.spill = alloca {}, align 1
  %ptr.dbg.spill = alloca i8*, align 8
  %_15 = alloca %"core::ptr::metadata::PtrComponents<u8>", align 8
  %_14 = alloca %"core::ptr::metadata::PtrRepr<u8>", align 8
  %_5 = alloca i8*, align 8, !rawptr !740
  %2 = alloca i8*, align 8
  store i8* %ptr, i8** %ptr.dbg.spill, align 8
  call void @llvm.dbg.declare(metadata i8** %ptr.dbg.spill, metadata !808, metadata !DIExpression()), !dbg !809
  call void @llvm.dbg.declare(metadata {}* %metadata.dbg.spill, metadata !810, metadata !DIExpression()), !dbg !815
  store i8* %ptr, i8** %self.dbg.spill, align 8, !dbg !825
  call void @llvm.dbg.declare(metadata i8** %self.dbg.spill, metadata !823, metadata !DIExpression()), !dbg !826
  store i8* %ptr, i8** %self.dbg.spill1, align 8, !dbg !826
  call void @llvm.dbg.declare(metadata i8** %self.dbg.spill1, metadata !827, metadata !DIExpression()), !dbg !832
  %3 = bitcast {}** %1 to i64*, !dbg !834
  store i64 0, i64* %3, align 8, !dbg !834
  %data_address = load {}*, {}** %1, align 8, !dbg !834, !rawptr !740
  store {}* %data_address, {}** %data_address.dbg.spill, align 8, !dbg !834
  call void @llvm.dbg.declare(metadata {}** %data_address.dbg.spill, metadata !814, metadata !DIExpression()), !dbg !815
  br label %bb4, !dbg !834

bb4:                                              ; preds = %start
  %4 = bitcast %"core::ptr::metadata::PtrComponents<u8>"* %_15 to {}**, !dbg !815, !rawptr !740
  store {}* %data_address, {}** %4, align 8, !dbg !815
  %5 = bitcast %"core::ptr::metadata::PtrRepr<u8>"* %_14 to %"core::ptr::metadata::PtrComponents<u8>"*, !dbg !815
  %6 = bitcast %"core::ptr::metadata::PtrComponents<u8>"* %5 to i8*, !dbg !815
  %7 = bitcast %"core::ptr::metadata::PtrComponents<u8>"* %_15 to i8*, !dbg !815
  call void @llvm.memcpy.p0i8.p0i8.i64(i8* align 8 %6, i8* align 8 %7, i64 8, i1 false), !dbg !815
  %8 = bitcast %"core::ptr::metadata::PtrRepr<u8>"* %_14 to i8**, !dbg !815
  %other = load i8*, i8** %8, align 8, !dbg !815, !rawptr !740
  store i8* %other, i8** %other.dbg.spill, align 8, !dbg !815
  call void @llvm.dbg.declare(metadata i8** %other.dbg.spill, metadata !831, metadata !DIExpression()), !dbg !832
  %9 = icmp eq i8* %ptr, %other, !dbg !832
  %10 = zext i1 %9 to i8, !dbg !832
  store i8 %10, i8* %0, align 1, !dbg !832
  %11 = load i8, i8* %0, align 1, !dbg !832, !range !499, !noundef !14
  %_3 = trunc i8 %11 to i1, !dbg !832
  br label %bb5, !dbg !832

bb5:                                              ; preds = %bb4
  %_2 = xor i1 %_3, true, !dbg !840
  br i1 %_2, label %bb1, label %bb2, !dbg !840

bb2:                                              ; preds = %bb5
  %12 = bitcast i8** %2 to {}**, !dbg !841
  store {}* null, {}** %12, align 8, !dbg !841
  br label %bb3, !dbg !842

bb1:                                              ; preds = %bb5
  store i8* %ptr, i8** %ptr.dbg.spill2, align 8, !dbg !843
  call void @llvm.dbg.declare(metadata i8** %ptr.dbg.spill2, metadata !844, metadata !DIExpression()), !dbg !849
  store i8* %ptr, i8** %_5, align 8, !dbg !849
  %13 = load i8*, i8** %_5, align 8, !dbg !851, !nonnull !14, !noundef !14
  store i8* %13, i8** %2, align 8, !dbg !851
  br label %bb3, !dbg !842

bb3:                                              ; preds = %bb2, %bb1
  %14 = load i8*, i8** %2, align 8, !dbg !852
  ret i8* %14, !dbg !852
}

; core::ptr::drop_in_place<alloc::boxed::Box<[[u64; 4]; 2]>>
; Function Attrs: nonlazybind uwtable
define void @"_ZN4core3ptr91drop_in_place$LT$alloc..boxed..Box$LT$$u5b$$u5b$u64$u3b$$u20$4$u5d$$u3b$$u20$2$u5d$$GT$$GT$17h42fe0c9e41057eb8E"([2 x [4 x i64]]** %_1) unnamed_addr #1 personality i32 (...)* @rust_eh_personality !dbg !853 {
start:
  %0 = alloca { i8*, i32 }, align 8
  %_1.dbg.spill = alloca [2 x [4 x i64]]**, align 8
  store [2 x [4 x i64]]** %_1, [2 x [4 x i64]]*** %_1.dbg.spill, align 8
  call void @llvm.dbg.declare(metadata [2 x [4 x i64]]*** %_1.dbg.spill, metadata !858, metadata !DIExpression()), !dbg !859
  br label %bb3, !dbg !859

bb3:                                              ; preds = %start
  %1 = bitcast [2 x [4 x i64]]** %_1 to i64**, !dbg !859
  %2 = load i64*, i64** %1, align 8, !dbg !859, !nonnull !14, !noundef !14
; call alloc::alloc::box_free
  call void @_ZN5alloc5alloc8box_free17h4ee06861d8c7974bE(i64* %2), !dbg !859
  br label %bb1, !dbg !859

bb4:                                              ; No predecessors!
  %3 = bitcast [2 x [4 x i64]]** %_1 to i64**, !dbg !859
  %4 = load i64*, i64** %3, align 8, !dbg !859, !nonnull !14, !noundef !14
; invoke alloc::alloc::box_free
  invoke void @_ZN5alloc5alloc8box_free17h4ee06861d8c7974bE(i64* %4) #14
          to label %bb2 unwind label %abort, !dbg !859

abort:                                            ; preds = %bb4
  %5 = landingpad { i8*, i32 }
          cleanup, !dbg !859
; call core::panicking::panic_no_unwind
  call void @_ZN4core9panicking15panic_no_unwind17h57180e694165966aE() #15, !dbg !859
  unreachable, !dbg !859

bb2:                                              ; preds = %bb4
  %6 = bitcast { i8*, i32 }* %0 to i8**, !dbg !859
  %7 = load i8*, i8** %6, align 8, !dbg !859
  %8 = getelementptr inbounds { i8*, i32 }, { i8*, i32 }* %0, i32 0, i32 1, !dbg !859
  %9 = load i32, i32* %8, align 8, !dbg !859
  %10 = insertvalue { i8*, i32 } undef, i8* %7, 0, !dbg !859
  %11 = insertvalue { i8*, i32 } %10, i32 %9, 1, !dbg !859
  resume { i8*, i32 } %11, !dbg !859

bb1:                                              ; preds = %bb3
  ret void, !dbg !859
}

; core::sync::atomic::atomic_add
; Function Attrs: inlinehint nonlazybind uwtable
define i64 @_ZN4core4sync6atomic10atomic_add17h7b6e6c09ea888e37E(i64* %dst, i64 %val, i8 %0) unnamed_addr #0 !dbg !860 {
start:
  %val.dbg.spill = alloca i64, align 8
  %dst.dbg.spill = alloca i64*, align 8
  %1 = alloca i64, align 8
  %order = alloca i8, align 1
  store i8 %0, i8* %order, align 1
  store i64* %dst, i64** %dst.dbg.spill, align 8
  call void @llvm.dbg.declare(metadata i64** %dst.dbg.spill, metadata !866, metadata !DIExpression()), !dbg !869
  store i64 %val, i64* %val.dbg.spill, align 8
  call void @llvm.dbg.declare(metadata i64* %val.dbg.spill, metadata !867, metadata !DIExpression()), !dbg !870
  call void @llvm.dbg.declare(metadata i8* %order, metadata !868, metadata !DIExpression()), !dbg !871
  %2 = load i8, i8* %order, align 1, !dbg !872, !range !873, !noundef !14
  %_4 = zext i8 %2 to i64, !dbg !872
  switch i64 %_4, label %bb2 [
    i64 0, label %bb3
    i64 1, label %bb7
    i64 2, label %bb5
    i64 3, label %bb9
    i64 4, label %bb1
  ], !dbg !874

bb2:                                              ; preds = %start
  unreachable, !dbg !872

bb3:                                              ; preds = %start
  %3 = atomicrmw add i64* %dst, i64 %val monotonic, align 8, !dbg !875
  store i64 %3, i64* %1, align 8, !dbg !875
  br label %bb4, !dbg !875

bb7:                                              ; preds = %start
  %4 = atomicrmw add i64* %dst, i64 %val release, align 8, !dbg !876
  store i64 %4, i64* %1, align 8, !dbg !876
  br label %bb8, !dbg !876

bb5:                                              ; preds = %start
  %5 = atomicrmw add i64* %dst, i64 %val acquire, align 8, !dbg !877
  store i64 %5, i64* %1, align 8, !dbg !877
  br label %bb6, !dbg !877

bb9:                                              ; preds = %start
  %6 = atomicrmw add i64* %dst, i64 %val acq_rel, align 8, !dbg !878
  store i64 %6, i64* %1, align 8, !dbg !878
  br label %bb10, !dbg !878

bb1:                                              ; preds = %start
  %7 = atomicrmw add i64* %dst, i64 %val seq_cst, align 8, !dbg !879
  store i64 %7, i64* %1, align 8, !dbg !879
  br label %bb11, !dbg !879

bb11:                                             ; preds = %bb1
  br label %bb12, !dbg !880

bb12:                                             ; preds = %bb4, %bb8, %bb6, %bb10, %bb11
  %8 = load i64, i64* %1, align 8, !dbg !881
  ret i64 %8, !dbg !881

bb10:                                             ; preds = %bb9
  br label %bb12, !dbg !882

bb6:                                              ; preds = %bb5
  br label %bb12, !dbg !883

bb8:                                              ; preds = %bb7
  br label %bb12, !dbg !884

bb4:                                              ; preds = %bb3
  br label %bb12, !dbg !885
}

; core::sync::atomic::AtomicUsize::new
; Function Attrs: inlinehint nonlazybind uwtable
define internal i64 @_ZN4core4sync6atomic11AtomicUsize3new17h26100f82e6a40e49E(i64 %v) unnamed_addr #0 !dbg !886 {
start:
  %value.dbg.spill = alloca i64, align 8
  %v.dbg.spill = alloca i64, align 8
  %_2 = alloca i64, align 8
  %0 = alloca %"core::sync::atomic::AtomicUsize", align 8
  store i64 %v, i64* %v.dbg.spill, align 8
  call void @llvm.dbg.declare(metadata i64* %v.dbg.spill, metadata !896, metadata !DIExpression()), !dbg !897
  store i64 %v, i64* %value.dbg.spill, align 8, !dbg !898
  call void @llvm.dbg.declare(metadata i64* %value.dbg.spill, metadata !899, metadata !DIExpression()), !dbg !906
  store i64 %v, i64* %_2, align 8, !dbg !906
  %1 = bitcast %"core::sync::atomic::AtomicUsize"* %0 to i64*, !dbg !908
  %2 = load i64, i64* %_2, align 8, !dbg !908
  store i64 %2, i64* %1, align 8, !dbg !908
  %3 = bitcast %"core::sync::atomic::AtomicUsize"* %0 to i64*, !dbg !909
  %4 = load i64, i64* %3, align 8, !dbg !909
  ret i64 %4, !dbg !909
}

; core::sync::atomic::AtomicUsize::fetch_add
; Function Attrs: inlinehint nonlazybind uwtable
define internal i64 @_ZN4core4sync6atomic11AtomicUsize9fetch_add17h34cc81c65b7d09abE(%"core::sync::atomic::AtomicUsize"* align 8 %self, i64 %val, i8 %order) unnamed_addr #0 !dbg !910 {
start:
  %self.dbg.spill2 = alloca i64*, align 8
  %order.dbg.spill = alloca i8, align 1
  %val.dbg.spill = alloca i64, align 8
  %self.dbg.spill = alloca %"core::sync::atomic::AtomicUsize"*, align 8
  store %"core::sync::atomic::AtomicUsize"* %self, %"core::sync::atomic::AtomicUsize"** %self.dbg.spill, align 8
  call void @llvm.dbg.declare(metadata %"core::sync::atomic::AtomicUsize"** %self.dbg.spill, metadata !915, metadata !DIExpression()), !dbg !918
  store i64 %val, i64* %val.dbg.spill, align 8
  call void @llvm.dbg.declare(metadata i64* %val.dbg.spill, metadata !916, metadata !DIExpression()), !dbg !919
  store i8 %order, i8* %order.dbg.spill, align 1
  call void @llvm.dbg.declare(metadata i8* %order.dbg.spill, metadata !917, metadata !DIExpression()), !dbg !920
  %self1 = bitcast %"core::sync::atomic::AtomicUsize"* %self to i64*, !dbg !921, !rawptr !740
  store i64* %self1, i64** %self.dbg.spill2, align 8, !dbg !921
  call void @llvm.dbg.declare(metadata i64** %self.dbg.spill2, metadata !922, metadata !DIExpression()), !dbg !929
; call core::sync::atomic::atomic_add
  %0 = call i64 @_ZN4core4sync6atomic10atomic_add17h7b6e6c09ea888e37E(i64* %self1, i64 %val, i8 %order), !dbg !930
  br label %bb1, !dbg !930

bb1:                                              ; preds = %start
  ret i64 %0, !dbg !931
}

; core::sync::atomic::atomic_load
; Function Attrs: inlinehint nonlazybind uwtable
define [2 x [4 x i64]]* @_ZN4core4sync6atomic11atomic_load17h5c4d3d4ad01a374cE([2 x [4 x i64]]** %dst, i8 %0) unnamed_addr #0 !dbg !932 {
start:
  %dst.dbg.spill = alloca [2 x [4 x i64]]**, align 8
  %_16 = alloca %"core::fmt::Arguments", align 8
  %_8 = alloca %"core::fmt::Arguments", align 8
  %1 = alloca [2 x [4 x i64]]*, align 8
  %order = alloca i8, align 1
  store i8 %0, i8* %order, align 1
  store [2 x [4 x i64]]** %dst, [2 x [4 x i64]]*** %dst.dbg.spill, align 8
  call void @llvm.dbg.declare(metadata [2 x [4 x i64]]*** %dst.dbg.spill, metadata !937, metadata !DIExpression()), !dbg !939
  call void @llvm.dbg.declare(metadata i8* %order, metadata !938, metadata !DIExpression()), !dbg !940
  %2 = load i8, i8* %order, align 1, !dbg !941, !range !873, !noundef !14
  %_3 = zext i8 %2 to i64, !dbg !941
  switch i64 %_3, label %bb2 [
    i64 0, label %bb3
    i64 1, label %bb9
    i64 2, label %bb5
    i64 3, label %bb1
    i64 4, label %bb7
  ], !dbg !942

bb2:                                              ; preds = %start
  unreachable, !dbg !941

bb3:                                              ; preds = %start
  %3 = bitcast [2 x [4 x i64]]** %dst to i64*, !dbg !943
  %4 = load atomic i64, i64* %3 monotonic, align 8, !dbg !943
  %5 = inttoptr i64 %4 to [2 x [4 x i64]]*, !dbg !943
  store [2 x [4 x i64]]* %5, [2 x [4 x i64]]** %1, align 8, !dbg !943
  br label %bb4, !dbg !943

bb9:                                              ; preds = %start
; call core::fmt::Arguments::new_v1
  call void @_ZN4core3fmt9Arguments6new_v117h2d6713ed55376961E(%"core::fmt::Arguments"* sret(%"core::fmt::Arguments") %_8, [0 x { [0 x i8]*, i64 }]* align 8 bitcast (<{ i8*, [8 x i8] }>* @alloc630 to [0 x { [0 x i8]*, i64 }]*), i64 1, [0 x { i8*, i64* }]* align 8 bitcast (<{}>* @alloc639 to [0 x { i8*, i64* }]*), i64 0), !dbg !944
  br label %bb10, !dbg !944

bb5:                                              ; preds = %start
  %6 = bitcast [2 x [4 x i64]]** %dst to i64*, !dbg !945
  %7 = load atomic i64, i64* %6 acquire, align 8, !dbg !945
  %8 = inttoptr i64 %7 to [2 x [4 x i64]]*, !dbg !945
  store [2 x [4 x i64]]* %8, [2 x [4 x i64]]** %1, align 8, !dbg !945
  br label %bb6, !dbg !945

bb1:                                              ; preds = %start
; call core::fmt::Arguments::new_v1
  call void @_ZN4core3fmt9Arguments6new_v117h2d6713ed55376961E(%"core::fmt::Arguments"* sret(%"core::fmt::Arguments") %_16, [0 x { [0 x i8]*, i64 }]* align 8 bitcast (<{ i8*, [8 x i8] }>* @alloc625 to [0 x { [0 x i8]*, i64 }]*), i64 1, [0 x { i8*, i64* }]* align 8 bitcast (<{}>* @alloc639 to [0 x { i8*, i64* }]*), i64 0), !dbg !946
  br label %bb11, !dbg !946

bb7:                                              ; preds = %start
  %9 = bitcast [2 x [4 x i64]]** %dst to i64*, !dbg !947
  %10 = load atomic i64, i64* %9 seq_cst, align 8, !dbg !947
  %11 = inttoptr i64 %10 to [2 x [4 x i64]]*, !dbg !947
  store [2 x [4 x i64]]* %11, [2 x [4 x i64]]** %1, align 8, !dbg !947
  br label %bb8, !dbg !947

bb8:                                              ; preds = %bb7
  br label %bb12, !dbg !948

bb12:                                             ; preds = %bb4, %bb6, %bb8
  %12 = load [2 x [4 x i64]]*, [2 x [4 x i64]]** %1, align 8, !dbg !949
  ret [2 x [4 x i64]]* %12, !dbg !949

bb11:                                             ; preds = %bb1
; call core::panicking::panic_fmt
  call void @_ZN4core9panicking9panic_fmt17h8b6ce72891ae5e4fE(%"core::fmt::Arguments"* %_16, %"core::panic::location::Location"* align 8 bitcast (<{ i8*, [16 x i8] }>* @alloc753 to %"core::panic::location::Location"*)) #13, !dbg !946
  unreachable, !dbg !946

bb6:                                              ; preds = %bb5
  br label %bb12, !dbg !950

bb10:                                             ; preds = %bb9
; call core::panicking::panic_fmt
  call void @_ZN4core9panicking9panic_fmt17h8b6ce72891ae5e4fE(%"core::fmt::Arguments"* %_8, %"core::panic::location::Location"* align 8 bitcast (<{ i8*, [16 x i8] }>* @alloc755 to %"core::panic::location::Location"*)) #13, !dbg !944
  unreachable, !dbg !944

bb4:                                              ; preds = %bb3
  br label %bb12, !dbg !951
}

; core::sync::atomic::AtomicPtr<T>::compare_exchange
; Function Attrs: inlinehint nonlazybind uwtable
define { i64, i8* } @"_ZN4core4sync6atomic18AtomicPtr$LT$T$GT$16compare_exchange17hf0898470f68b50ccE"(%"core::sync::atomic::AtomicPtr<[[u64; 4]; 2]>"* align 8 %self, [2 x [4 x i64]]* %current, [2 x [4 x i64]]* %new, i8 %success, i8 %failure) unnamed_addr #0 !dbg !952 {
start:
  %self.dbg.spill2 = alloca i64**, align 8
  %failure.dbg.spill = alloca i8, align 1
  %success.dbg.spill = alloca i8, align 1
  %new.dbg.spill = alloca [2 x [4 x i64]]*, align 8
  %current.dbg.spill = alloca [2 x [4 x i64]]*, align 8
  %self.dbg.spill = alloca %"core::sync::atomic::AtomicPtr<[[u64; 4]; 2]>"*, align 8
  store %"core::sync::atomic::AtomicPtr<[[u64; 4]; 2]>"* %self, %"core::sync::atomic::AtomicPtr<[[u64; 4]; 2]>"** %self.dbg.spill, align 8
  call void @llvm.dbg.declare(metadata %"core::sync::atomic::AtomicPtr<[[u64; 4]; 2]>"** %self.dbg.spill, metadata !972, metadata !DIExpression()), !dbg !977
  store [2 x [4 x i64]]* %current, [2 x [4 x i64]]** %current.dbg.spill, align 8
  call void @llvm.dbg.declare(metadata [2 x [4 x i64]]** %current.dbg.spill, metadata !973, metadata !DIExpression()), !dbg !978
  store [2 x [4 x i64]]* %new, [2 x [4 x i64]]** %new.dbg.spill, align 8
  call void @llvm.dbg.declare(metadata [2 x [4 x i64]]** %new.dbg.spill, metadata !974, metadata !DIExpression()), !dbg !979
  store i8 %success, i8* %success.dbg.spill, align 1
  call void @llvm.dbg.declare(metadata i8* %success.dbg.spill, metadata !975, metadata !DIExpression()), !dbg !980
  store i8 %failure, i8* %failure.dbg.spill, align 1
  call void @llvm.dbg.declare(metadata i8* %failure.dbg.spill, metadata !976, metadata !DIExpression()), !dbg !981
  %self1 = bitcast %"core::sync::atomic::AtomicPtr<[[u64; 4]; 2]>"* %self to i64**, !dbg !982, !rawptr !740
  store i64** %self1, i64*** %self.dbg.spill2, align 8, !dbg !982
  call void @llvm.dbg.declare(metadata i64*** %self.dbg.spill2, metadata !983, metadata !DIExpression()), !dbg !991
  %_12 = bitcast i64** %self1 to [2 x [4 x i64]]**, !dbg !991, !rawptr !740
; call core::sync::atomic::atomic_compare_exchange
  %0 = call { i64, i8* } @_ZN4core4sync6atomic23atomic_compare_exchange17h2342178747945906E([2 x [4 x i64]]** %_12, [2 x [4 x i64]]* %current, [2 x [4 x i64]]* %new, i8 %success, i8 %failure), !dbg !992
  %1 = extractvalue { i64, i8* } %0, 0, !dbg !992
  %2 = extractvalue { i64, i8* } %0, 1, !dbg !992
  br label %bb1, !dbg !992

bb1:                                              ; preds = %start
  %3 = insertvalue { i64, i8* } undef, i64 %1, 0, !dbg !993
  %4 = insertvalue { i64, i8* } %3, i8* %2, 1, !dbg !993
  ret { i64, i8* } %4, !dbg !993
}

; core::sync::atomic::AtomicPtr<T>::load
; Function Attrs: inlinehint nonlazybind uwtable
define [2 x [4 x i64]]* @"_ZN4core4sync6atomic18AtomicPtr$LT$T$GT$4load17h3e3df37bffba2ba0E"(%"core::sync::atomic::AtomicPtr<[[u64; 4]; 2]>"* align 8 %self, i8 %order) unnamed_addr #0 !dbg !994 {
start:
  %self.dbg.spill2 = alloca i64**, align 8
  %order.dbg.spill = alloca i8, align 1
  %self.dbg.spill = alloca %"core::sync::atomic::AtomicPtr<[[u64; 4]; 2]>"*, align 8
  store %"core::sync::atomic::AtomicPtr<[[u64; 4]; 2]>"* %self, %"core::sync::atomic::AtomicPtr<[[u64; 4]; 2]>"** %self.dbg.spill, align 8
  call void @llvm.dbg.declare(metadata %"core::sync::atomic::AtomicPtr<[[u64; 4]; 2]>"** %self.dbg.spill, metadata !998, metadata !DIExpression()), !dbg !1000
  store i8 %order, i8* %order.dbg.spill, align 1
  call void @llvm.dbg.declare(metadata i8* %order.dbg.spill, metadata !999, metadata !DIExpression()), !dbg !1001
  %self1 = bitcast %"core::sync::atomic::AtomicPtr<[[u64; 4]; 2]>"* %self to i64**, !dbg !1002, !rawptr !740
  store i64** %self1, i64*** %self.dbg.spill2, align 8, !dbg !1002
  call void @llvm.dbg.declare(metadata i64*** %self.dbg.spill2, metadata !1003, metadata !DIExpression()), !dbg !1007
  %_7 = bitcast i64** %self1 to [2 x [4 x i64]]**, !dbg !1007, !rawptr !740
; call core::sync::atomic::atomic_load
  %0 = call [2 x [4 x i64]]* @_ZN4core4sync6atomic11atomic_load17h5c4d3d4ad01a374cE([2 x [4 x i64]]** %_7, i8 %order), !dbg !1008
  br label %bb1, !dbg !1008

bb1:                                              ; preds = %start
  ret [2 x [4 x i64]]* %0, !dbg !1009
}

; core::sync::atomic::AtomicPtr<T>::get_mut
; Function Attrs: inlinehint nonlazybind uwtable
define align 8 { {}*, [3 x i64]* }** @"_ZN4core4sync6atomic18AtomicPtr$LT$T$GT$7get_mut17hce55bfbedb6c1ec9E"(%"core::sync::atomic::AtomicPtr<alloc::boxed::Box<dyn random_state::RandomSource + core::marker::Send + core::marker::Sync>>"* align 8 %self) unnamed_addr #0 !dbg !1010 {
start:
  %self.dbg.spill2 = alloca i64**, align 8
  %self.dbg.spill = alloca %"core::sync::atomic::AtomicPtr<alloc::boxed::Box<dyn random_state::RandomSource + core::marker::Send + core::marker::Sync>>"*, align 8
  store %"core::sync::atomic::AtomicPtr<alloc::boxed::Box<dyn random_state::RandomSource + core::marker::Send + core::marker::Sync>>"* %self, %"core::sync::atomic::AtomicPtr<alloc::boxed::Box<dyn random_state::RandomSource + core::marker::Send + core::marker::Sync>>"** %self.dbg.spill, align 8
  call void @llvm.dbg.declare(metadata %"core::sync::atomic::AtomicPtr<alloc::boxed::Box<dyn random_state::RandomSource + core::marker::Send + core::marker::Sync>>"** %self.dbg.spill, metadata !1016, metadata !DIExpression()), !dbg !1017
  %self1 = bitcast %"core::sync::atomic::AtomicPtr<alloc::boxed::Box<dyn random_state::RandomSource + core::marker::Send + core::marker::Sync>>"* %self to i64**, !dbg !1018
  store i64** %self1, i64*** %self.dbg.spill2, align 8, !dbg !1018
  call void @llvm.dbg.declare(metadata i64*** %self.dbg.spill2, metadata !1019, metadata !DIExpression()), !dbg !1026
  %_6 = bitcast i64** %self1 to { {}*, [3 x i64]* }**, !dbg !1026, !rawptr !740
  ret { {}*, [3 x i64]* }** %_6, !dbg !1027
}

; core::sync::atomic::AtomicPtr<T>::get_mut
; Function Attrs: inlinehint nonlazybind uwtable
define align 8 [2 x [4 x i64]]** @"_ZN4core4sync6atomic18AtomicPtr$LT$T$GT$7get_mut17heebd5bdd76a2ea58E"(%"core::sync::atomic::AtomicPtr<[[u64; 4]; 2]>"* align 8 %self) unnamed_addr #0 !dbg !1028 {
start:
  %self.dbg.spill2 = alloca i64**, align 8
  %self.dbg.spill = alloca %"core::sync::atomic::AtomicPtr<[[u64; 4]; 2]>"*, align 8
  store %"core::sync::atomic::AtomicPtr<[[u64; 4]; 2]>"* %self, %"core::sync::atomic::AtomicPtr<[[u64; 4]; 2]>"** %self.dbg.spill, align 8
  call void @llvm.dbg.declare(metadata %"core::sync::atomic::AtomicPtr<[[u64; 4]; 2]>"** %self.dbg.spill, metadata !1034, metadata !DIExpression()), !dbg !1035
  %self1 = bitcast %"core::sync::atomic::AtomicPtr<[[u64; 4]; 2]>"* %self to i64**, !dbg !1036
  store i64** %self1, i64*** %self.dbg.spill2, align 8, !dbg !1036
  call void @llvm.dbg.declare(metadata i64*** %self.dbg.spill2, metadata !1037, metadata !DIExpression()), !dbg !1044
  %_6 = bitcast i64** %self1 to [2 x [4 x i64]]**, !dbg !1044, !rawptr !740
  ret [2 x [4 x i64]]** %_6, !dbg !1045
}

; core::sync::atomic::atomic_compare_exchange
; Function Attrs: inlinehint nonlazybind uwtable
define { i64, i8* } @_ZN4core4sync6atomic23atomic_compare_exchange17h2342178747945906E([2 x [4 x i64]]** %dst, [2 x [4 x i64]]* %old, [2 x [4 x i64]]* %new, i8 %success, i8 %failure) unnamed_addr #0 !dbg !1046 {
start:
  %ok.dbg.spill = alloca i8, align 1
  %val.dbg.spill = alloca [2 x [4 x i64]]*, align 8
  %failure.dbg.spill = alloca i8, align 1
  %success.dbg.spill = alloca i8, align 1
  %new.dbg.spill = alloca [2 x [4 x i64]]*, align 8
  %old.dbg.spill = alloca [2 x [4 x i64]]*, align 8
  %dst.dbg.spill = alloca [2 x [4 x i64]]**, align 8
  %_63 = alloca %"core::fmt::Arguments", align 8
  %_55 = alloca %"core::fmt::Arguments", align 8
  %_47 = alloca %"core::fmt::Arguments", align 8
  %_9 = alloca { i8, i8 }, align 1
  %_8 = alloca { i64*, i8 }, align 8
  %0 = alloca { i64, i8* }, align 8
  store [2 x [4 x i64]]** %dst, [2 x [4 x i64]]*** %dst.dbg.spill, align 8
  call void @llvm.dbg.declare(metadata [2 x [4 x i64]]*** %dst.dbg.spill, metadata !1050, metadata !DIExpression()), !dbg !1058
  store [2 x [4 x i64]]* %old, [2 x [4 x i64]]** %old.dbg.spill, align 8
  call void @llvm.dbg.declare(metadata [2 x [4 x i64]]** %old.dbg.spill, metadata !1051, metadata !DIExpression()), !dbg !1059
  store [2 x [4 x i64]]* %new, [2 x [4 x i64]]** %new.dbg.spill, align 8
  call void @llvm.dbg.declare(metadata [2 x [4 x i64]]** %new.dbg.spill, metadata !1052, metadata !DIExpression()), !dbg !1060
  store i8 %success, i8* %success.dbg.spill, align 1
  call void @llvm.dbg.declare(metadata i8* %success.dbg.spill, metadata !1053, metadata !DIExpression()), !dbg !1061
  store i8 %failure, i8* %failure.dbg.spill, align 1
  call void @llvm.dbg.declare(metadata i8* %failure.dbg.spill, metadata !1054, metadata !DIExpression()), !dbg !1062
  %1 = bitcast { i8, i8 }* %_9 to i8*, !dbg !1063
  store i8 %success, i8* %1, align 1, !dbg !1063
  %2 = getelementptr inbounds { i8, i8 }, { i8, i8 }* %_9, i32 0, i32 1, !dbg !1063
  store i8 %failure, i8* %2, align 1, !dbg !1063
  %3 = bitcast { i8, i8 }* %_9 to i8*, !dbg !1063
  %4 = load i8, i8* %3, align 1, !dbg !1063, !range !873, !noundef !14
  %_18 = zext i8 %4 to i64, !dbg !1063
  switch i64 %_18, label %bb35 [
    i64 0, label %bb1
    i64 1, label %bb3
    i64 2, label %bb4
    i64 3, label %bb5
    i64 4, label %bb6
  ], !dbg !1064

bb35:                                             ; preds = %start
  unreachable, !dbg !1064

bb1:                                              ; preds = %start
  %5 = getelementptr inbounds { i8, i8 }, { i8, i8 }* %_9, i32 0, i32 1, !dbg !1063
  %6 = load i8, i8* %5, align 1, !dbg !1063, !range !873, !noundef !14
  %_12 = zext i8 %6 to i64, !dbg !1063
  %7 = icmp eq i64 %_12, 0, !dbg !1064
  br i1 %7, label %bb8, label %bb2, !dbg !1064

bb3:                                              ; preds = %start
  %8 = getelementptr inbounds { i8, i8 }, { i8, i8 }* %_9, i32 0, i32 1, !dbg !1063
  %9 = load i8, i8* %8, align 1, !dbg !1063, !range !873, !noundef !14
  %_13 = zext i8 %9 to i64, !dbg !1063
  %10 = icmp eq i64 %_13, 0, !dbg !1064
  br i1 %10, label %bb14, label %bb2, !dbg !1064

bb4:                                              ; preds = %start
  %11 = getelementptr inbounds { i8, i8 }, { i8, i8 }* %_9, i32 0, i32 1, !dbg !1063
  %12 = load i8, i8* %11, align 1, !dbg !1063, !range !873, !noundef !14
  %_14 = zext i8 %12 to i64, !dbg !1063
  switch i64 %_14, label %bb2 [
    i64 0, label %bb10
    i64 2, label %bb12
  ], !dbg !1064

bb5:                                              ; preds = %start
  %13 = getelementptr inbounds { i8, i8 }, { i8, i8 }* %_9, i32 0, i32 1, !dbg !1063
  %14 = load i8, i8* %13, align 1, !dbg !1063, !range !873, !noundef !14
  %_15 = zext i8 %14 to i64, !dbg !1063
  switch i64 %_15, label %bb2 [
    i64 0, label %bb16
    i64 2, label %bb18
  ], !dbg !1064

bb6:                                              ; preds = %start
  %15 = getelementptr inbounds { i8, i8 }, { i8, i8 }* %_9, i32 0, i32 1, !dbg !1063
  %16 = load i8, i8* %15, align 1, !dbg !1063, !range !873, !noundef !14
  %_16 = zext i8 %16 to i64, !dbg !1063
  switch i64 %_16, label %bb2 [
    i64 0, label %bb20
    i64 2, label %bb22
    i64 4, label %bb24
  ], !dbg !1064

bb2:                                              ; preds = %bb1, %bb3, %bb4, %bb5, %bb6
  %17 = getelementptr inbounds { i8, i8 }, { i8, i8 }* %_9, i32 0, i32 1, !dbg !1063
  %18 = load i8, i8* %17, align 1, !dbg !1063, !range !873, !noundef !14
  %_17 = zext i8 %18 to i64, !dbg !1063
  switch i64 %_17, label %bb7 [
    i64 1, label %bb28
    i64 3, label %bb26
  ], !dbg !1064

bb20:                                             ; preds = %bb6
  %19 = bitcast [2 x [4 x i64]]** %dst to i64*, !dbg !1065
  %20 = ptrtoint [2 x [4 x i64]]* %old to i64, !dbg !1065
  %21 = ptrtoint [2 x [4 x i64]]* %new to i64, !dbg !1065
  %22 = cmpxchg i64* %19, i64 %20, i64 %21 seq_cst monotonic, align 8, !dbg !1065
  %23 = extractvalue { i64, i1 } %22, 0, !dbg !1065
  %24 = extractvalue { i64, i1 } %22, 1, !dbg !1065
  %25 = zext i1 %24 to i8, !dbg !1065
  %26 = bitcast { i64*, i8 }* %_8 to [2 x [4 x i64]]**, !dbg !1065
  %27 = bitcast [2 x [4 x i64]]** %26 to i64*, !dbg !1065
  store i64 %23, i64* %27, align 8, !dbg !1065
  %28 = getelementptr inbounds { i64*, i8 }, { i64*, i8 }* %_8, i32 0, i32 1, !dbg !1065
  store i8 %25, i8* %28, align 8, !dbg !1065
  br label %bb21, !dbg !1065

bb22:                                             ; preds = %bb6
  %29 = bitcast [2 x [4 x i64]]** %dst to i64*, !dbg !1066
  %30 = ptrtoint [2 x [4 x i64]]* %old to i64, !dbg !1066
  %31 = ptrtoint [2 x [4 x i64]]* %new to i64, !dbg !1066
  %32 = cmpxchg i64* %29, i64 %30, i64 %31 seq_cst acquire, align 8, !dbg !1066
  %33 = extractvalue { i64, i1 } %32, 0, !dbg !1066
  %34 = extractvalue { i64, i1 } %32, 1, !dbg !1066
  %35 = zext i1 %34 to i8, !dbg !1066
  %36 = bitcast { i64*, i8 }* %_8 to [2 x [4 x i64]]**, !dbg !1066
  %37 = bitcast [2 x [4 x i64]]** %36 to i64*, !dbg !1066
  store i64 %33, i64* %37, align 8, !dbg !1066
  %38 = getelementptr inbounds { i64*, i8 }, { i64*, i8 }* %_8, i32 0, i32 1, !dbg !1066
  store i8 %35, i8* %38, align 8, !dbg !1066
  br label %bb23, !dbg !1066

bb24:                                             ; preds = %bb6
  %39 = bitcast [2 x [4 x i64]]** %dst to i64*, !dbg !1067
  %40 = ptrtoint [2 x [4 x i64]]* %old to i64, !dbg !1067
  %41 = ptrtoint [2 x [4 x i64]]* %new to i64, !dbg !1067
  %42 = cmpxchg i64* %39, i64 %40, i64 %41 seq_cst seq_cst, align 8, !dbg !1067
  %43 = extractvalue { i64, i1 } %42, 0, !dbg !1067
  %44 = extractvalue { i64, i1 } %42, 1, !dbg !1067
  %45 = zext i1 %44 to i8, !dbg !1067
  %46 = bitcast { i64*, i8 }* %_8 to [2 x [4 x i64]]**, !dbg !1067
  %47 = bitcast [2 x [4 x i64]]** %46 to i64*, !dbg !1067
  store i64 %43, i64* %47, align 8, !dbg !1067
  %48 = getelementptr inbounds { i64*, i8 }, { i64*, i8 }* %_8, i32 0, i32 1, !dbg !1067
  store i8 %45, i8* %48, align 8, !dbg !1067
  br label %bb25, !dbg !1067

bb25:                                             ; preds = %bb24
  br label %bb31, !dbg !1068

bb31:                                             ; preds = %bb9, %bb15, %bb11, %bb13, %bb17, %bb19, %bb21, %bb23, %bb25
  %49 = bitcast { i64*, i8 }* %_8 to [2 x [4 x i64]]**, !dbg !1069
  %val = load [2 x [4 x i64]]*, [2 x [4 x i64]]** %49, align 8, !dbg !1069
  store [2 x [4 x i64]]* %val, [2 x [4 x i64]]** %val.dbg.spill, align 8, !dbg !1069
  call void @llvm.dbg.declare(metadata [2 x [4 x i64]]** %val.dbg.spill, metadata !1055, metadata !DIExpression()), !dbg !1070
  %50 = getelementptr inbounds { i64*, i8 }, { i64*, i8 }* %_8, i32 0, i32 1, !dbg !1071
  %51 = load i8, i8* %50, align 8, !dbg !1071, !range !499, !noundef !14
  %ok = trunc i8 %51 to i1, !dbg !1071
  %52 = zext i1 %ok to i8, !dbg !1071
  store i8 %52, i8* %ok.dbg.spill, align 1, !dbg !1071
  call void @llvm.dbg.declare(metadata i8* %ok.dbg.spill, metadata !1057, metadata !DIExpression()), !dbg !1072
  br i1 %ok, label %bb32, label %bb33, !dbg !1073

bb23:                                             ; preds = %bb22
  br label %bb31, !dbg !1074

bb21:                                             ; preds = %bb20
  br label %bb31, !dbg !1075

bb16:                                             ; preds = %bb5
  %53 = bitcast [2 x [4 x i64]]** %dst to i64*, !dbg !1076
  %54 = ptrtoint [2 x [4 x i64]]* %old to i64, !dbg !1076
  %55 = ptrtoint [2 x [4 x i64]]* %new to i64, !dbg !1076
  %56 = cmpxchg i64* %53, i64 %54, i64 %55 acq_rel monotonic, align 8, !dbg !1076
  %57 = extractvalue { i64, i1 } %56, 0, !dbg !1076
  %58 = extractvalue { i64, i1 } %56, 1, !dbg !1076
  %59 = zext i1 %58 to i8, !dbg !1076
  %60 = bitcast { i64*, i8 }* %_8 to [2 x [4 x i64]]**, !dbg !1076
  %61 = bitcast [2 x [4 x i64]]** %60 to i64*, !dbg !1076
  store i64 %57, i64* %61, align 8, !dbg !1076
  %62 = getelementptr inbounds { i64*, i8 }, { i64*, i8 }* %_8, i32 0, i32 1, !dbg !1076
  store i8 %59, i8* %62, align 8, !dbg !1076
  br label %bb17, !dbg !1076

bb18:                                             ; preds = %bb5
  %63 = bitcast [2 x [4 x i64]]** %dst to i64*, !dbg !1077
  %64 = ptrtoint [2 x [4 x i64]]* %old to i64, !dbg !1077
  %65 = ptrtoint [2 x [4 x i64]]* %new to i64, !dbg !1077
  %66 = cmpxchg i64* %63, i64 %64, i64 %65 acq_rel acquire, align 8, !dbg !1077
  %67 = extractvalue { i64, i1 } %66, 0, !dbg !1077
  %68 = extractvalue { i64, i1 } %66, 1, !dbg !1077
  %69 = zext i1 %68 to i8, !dbg !1077
  %70 = bitcast { i64*, i8 }* %_8 to [2 x [4 x i64]]**, !dbg !1077
  %71 = bitcast [2 x [4 x i64]]** %70 to i64*, !dbg !1077
  store i64 %67, i64* %71, align 8, !dbg !1077
  %72 = getelementptr inbounds { i64*, i8 }, { i64*, i8 }* %_8, i32 0, i32 1, !dbg !1077
  store i8 %69, i8* %72, align 8, !dbg !1077
  br label %bb19, !dbg !1077

bb19:                                             ; preds = %bb18
  br label %bb31, !dbg !1078

bb17:                                             ; preds = %bb16
  br label %bb31, !dbg !1079

bb10:                                             ; preds = %bb4
  %73 = bitcast [2 x [4 x i64]]** %dst to i64*, !dbg !1080
  %74 = ptrtoint [2 x [4 x i64]]* %old to i64, !dbg !1080
  %75 = ptrtoint [2 x [4 x i64]]* %new to i64, !dbg !1080
  %76 = cmpxchg i64* %73, i64 %74, i64 %75 acquire monotonic, align 8, !dbg !1080
  %77 = extractvalue { i64, i1 } %76, 0, !dbg !1080
  %78 = extractvalue { i64, i1 } %76, 1, !dbg !1080
  %79 = zext i1 %78 to i8, !dbg !1080
  %80 = bitcast { i64*, i8 }* %_8 to [2 x [4 x i64]]**, !dbg !1080
  %81 = bitcast [2 x [4 x i64]]** %80 to i64*, !dbg !1080
  store i64 %77, i64* %81, align 8, !dbg !1080
  %82 = getelementptr inbounds { i64*, i8 }, { i64*, i8 }* %_8, i32 0, i32 1, !dbg !1080
  store i8 %79, i8* %82, align 8, !dbg !1080
  br label %bb11, !dbg !1080

bb12:                                             ; preds = %bb4
  %83 = bitcast [2 x [4 x i64]]** %dst to i64*, !dbg !1081
  %84 = ptrtoint [2 x [4 x i64]]* %old to i64, !dbg !1081
  %85 = ptrtoint [2 x [4 x i64]]* %new to i64, !dbg !1081
  %86 = cmpxchg i64* %83, i64 %84, i64 %85 acquire acquire, align 8, !dbg !1081
  %87 = extractvalue { i64, i1 } %86, 0, !dbg !1081
  %88 = extractvalue { i64, i1 } %86, 1, !dbg !1081
  %89 = zext i1 %88 to i8, !dbg !1081
  %90 = bitcast { i64*, i8 }* %_8 to [2 x [4 x i64]]**, !dbg !1081
  %91 = bitcast [2 x [4 x i64]]** %90 to i64*, !dbg !1081
  store i64 %87, i64* %91, align 8, !dbg !1081
  %92 = getelementptr inbounds { i64*, i8 }, { i64*, i8 }* %_8, i32 0, i32 1, !dbg !1081
  store i8 %89, i8* %92, align 8, !dbg !1081
  br label %bb13, !dbg !1081

bb13:                                             ; preds = %bb12
  br label %bb31, !dbg !1082

bb11:                                             ; preds = %bb10
  br label %bb31, !dbg !1083

bb14:                                             ; preds = %bb3
  %93 = bitcast [2 x [4 x i64]]** %dst to i64*, !dbg !1084
  %94 = ptrtoint [2 x [4 x i64]]* %old to i64, !dbg !1084
  %95 = ptrtoint [2 x [4 x i64]]* %new to i64, !dbg !1084
  %96 = cmpxchg i64* %93, i64 %94, i64 %95 release monotonic, align 8, !dbg !1084
  %97 = extractvalue { i64, i1 } %96, 0, !dbg !1084
  %98 = extractvalue { i64, i1 } %96, 1, !dbg !1084
  %99 = zext i1 %98 to i8, !dbg !1084
  %100 = bitcast { i64*, i8 }* %_8 to [2 x [4 x i64]]**, !dbg !1084
  %101 = bitcast [2 x [4 x i64]]** %100 to i64*, !dbg !1084
  store i64 %97, i64* %101, align 8, !dbg !1084
  %102 = getelementptr inbounds { i64*, i8 }, { i64*, i8 }* %_8, i32 0, i32 1, !dbg !1084
  store i8 %99, i8* %102, align 8, !dbg !1084
  br label %bb15, !dbg !1084

bb15:                                             ; preds = %bb14
  br label %bb31, !dbg !1085

bb8:                                              ; preds = %bb1
  %103 = bitcast [2 x [4 x i64]]** %dst to i64*, !dbg !1086
  %104 = ptrtoint [2 x [4 x i64]]* %old to i64, !dbg !1086
  %105 = ptrtoint [2 x [4 x i64]]* %new to i64, !dbg !1086
  %106 = cmpxchg i64* %103, i64 %104, i64 %105 monotonic monotonic, align 8, !dbg !1086
  %107 = extractvalue { i64, i1 } %106, 0, !dbg !1086
  %108 = extractvalue { i64, i1 } %106, 1, !dbg !1086
  %109 = zext i1 %108 to i8, !dbg !1086
  %110 = bitcast { i64*, i8 }* %_8 to [2 x [4 x i64]]**, !dbg !1086
  %111 = bitcast [2 x [4 x i64]]** %110 to i64*, !dbg !1086
  store i64 %107, i64* %111, align 8, !dbg !1086
  %112 = getelementptr inbounds { i64*, i8 }, { i64*, i8 }* %_8, i32 0, i32 1, !dbg !1086
  store i8 %109, i8* %112, align 8, !dbg !1086
  br label %bb9, !dbg !1086

bb7:                                              ; preds = %bb2
; call core::fmt::Arguments::new_v1
  call void @_ZN4core3fmt9Arguments6new_v117h2d6713ed55376961E(%"core::fmt::Arguments"* sret(%"core::fmt::Arguments") %_63, [0 x { [0 x i8]*, i64 }]* align 8 bitcast (<{ i8*, [8 x i8] }>* @alloc642 to [0 x { [0 x i8]*, i64 }]*), i64 1, [0 x { i8*, i64* }]* align 8 bitcast (<{}>* @alloc639 to [0 x { i8*, i64* }]*), i64 0), !dbg !1087
  br label %bb30, !dbg !1087

bb28:                                             ; preds = %bb2
; call core::fmt::Arguments::new_v1
  call void @_ZN4core3fmt9Arguments6new_v117h2d6713ed55376961E(%"core::fmt::Arguments"* sret(%"core::fmt::Arguments") %_55, [0 x { [0 x i8]*, i64 }]* align 8 bitcast (<{ i8*, [8 x i8] }>* @alloc652 to [0 x { [0 x i8]*, i64 }]*), i64 1, [0 x { i8*, i64* }]* align 8 bitcast (<{}>* @alloc639 to [0 x { i8*, i64* }]*), i64 0), !dbg !1088
  br label %bb29, !dbg !1088

bb26:                                             ; preds = %bb2
; call core::fmt::Arguments::new_v1
  call void @_ZN4core3fmt9Arguments6new_v117h2d6713ed55376961E(%"core::fmt::Arguments"* sret(%"core::fmt::Arguments") %_47, [0 x { [0 x i8]*, i64 }]* align 8 bitcast (<{ i8*, [8 x i8] }>* @alloc647 to [0 x { [0 x i8]*, i64 }]*), i64 1, [0 x { i8*, i64* }]* align 8 bitcast (<{}>* @alloc639 to [0 x { i8*, i64* }]*), i64 0), !dbg !1089
  br label %bb27, !dbg !1089

bb30:                                             ; preds = %bb7
; call core::panicking::panic_fmt
  call void @_ZN4core9panicking9panic_fmt17h8b6ce72891ae5e4fE(%"core::fmt::Arguments"* %_63, %"core::panic::location::Location"* align 8 bitcast (<{ i8*, [16 x i8] }>* @alloc757 to %"core::panic::location::Location"*)) #13, !dbg !1087
  unreachable, !dbg !1087

bb27:                                             ; preds = %bb26
; call core::panicking::panic_fmt
  call void @_ZN4core9panicking9panic_fmt17h8b6ce72891ae5e4fE(%"core::fmt::Arguments"* %_47, %"core::panic::location::Location"* align 8 bitcast (<{ i8*, [16 x i8] }>* @alloc759 to %"core::panic::location::Location"*)) #13, !dbg !1089
  unreachable, !dbg !1089

bb29:                                             ; preds = %bb28
; call core::panicking::panic_fmt
  call void @_ZN4core9panicking9panic_fmt17h8b6ce72891ae5e4fE(%"core::fmt::Arguments"* %_55, %"core::panic::location::Location"* align 8 bitcast (<{ i8*, [16 x i8] }>* @alloc761 to %"core::panic::location::Location"*)) #13, !dbg !1088
  unreachable, !dbg !1088

bb9:                                              ; preds = %bb8
  br label %bb31, !dbg !1090

bb33:                                             ; preds = %bb31
  %113 = getelementptr inbounds { i64, i8* }, { i64, i8* }* %0, i32 0, i32 1, !dbg !1091
  %114 = bitcast i8** %113 to [2 x [4 x i64]]**, !dbg !1091
  store [2 x [4 x i64]]* %val, [2 x [4 x i64]]** %114, align 8, !dbg !1091
  %115 = bitcast { i64, i8* }* %0 to i64*, !dbg !1091
  store i64 1, i64* %115, align 8, !dbg !1091
  br label %bb34, !dbg !1092

bb32:                                             ; preds = %bb31
  %116 = getelementptr inbounds { i64, i8* }, { i64, i8* }* %0, i32 0, i32 1, !dbg !1093
  %117 = bitcast i8** %116 to [2 x [4 x i64]]**, !dbg !1093
  store [2 x [4 x i64]]* %val, [2 x [4 x i64]]** %117, align 8, !dbg !1093
  %118 = bitcast { i64, i8* }* %0 to i64*, !dbg !1093
  store i64 0, i64* %118, align 8, !dbg !1093
  br label %bb34, !dbg !1092

bb34:                                             ; preds = %bb33, %bb32
  %119 = getelementptr inbounds { i64, i8* }, { i64, i8* }* %0, i32 0, i32 0, !dbg !1094
  %120 = load i64, i64* %119, align 8, !dbg !1094, !range !1095, !noundef !14
  %121 = getelementptr inbounds { i64, i8* }, { i64, i8* }* %0, i32 0, i32 1, !dbg !1094
  %122 = load i8*, i8** %121, align 8, !dbg !1094
  %123 = insertvalue { i64, i8* } undef, i64 %120, 0, !dbg !1094
  %124 = insertvalue { i64, i8* } %123, i8* %122, 1, !dbg !1094
  ret { i64, i8* } %124, !dbg !1094
}

; core::array::<impl core::fmt::Debug for [T; N]>::fmt
; Function Attrs: nonlazybind uwtable
define zeroext i1 @"_ZN4core5array69_$LT$impl$u20$core..fmt..Debug$u20$for$u20$$u5b$T$u3b$$u20$N$u5d$$GT$3fmt17h726e0e30746437c3E"([2 x i64]* align 8 %self, %"core::fmt::Formatter"* align 8 %f) unnamed_addr #1 !dbg !1096 {
start:
  %slice.dbg.spill = alloca { [0 x i64]*, i64 }, align 8
  %self.dbg.spill4 = alloca { [0 x i64]*, i64 }, align 8
  %self.dbg.spill3 = alloca [2 x i64]*, align 8
  %self.dbg.spill2 = alloca %"core::ops::range::RangeFull", align 1
  %index.dbg.spill1 = alloca %"core::ops::range::RangeFull", align 1
  %index.dbg.spill = alloca %"core::ops::range::RangeFull", align 1
  %f.dbg.spill = alloca %"core::fmt::Formatter"*, align 8
  %self.dbg.spill = alloca [2 x i64]*, align 8
  %_5 = alloca { [0 x i64]*, i64 }, align 8
  store [2 x i64]* %self, [2 x i64]** %self.dbg.spill, align 8
  call void @llvm.dbg.declare(metadata [2 x i64]** %self.dbg.spill, metadata !1103, metadata !DIExpression()), !dbg !1105
  store %"core::fmt::Formatter"* %f, %"core::fmt::Formatter"** %f.dbg.spill, align 8
  call void @llvm.dbg.declare(metadata %"core::fmt::Formatter"** %f.dbg.spill, metadata !1104, metadata !DIExpression()), !dbg !1106
  call void @llvm.dbg.declare(metadata %"core::ops::range::RangeFull"* %index.dbg.spill, metadata !1107, metadata !DIExpression()), !dbg !1119
  call void @llvm.dbg.declare(metadata %"core::ops::range::RangeFull"* %index.dbg.spill1, metadata !1121, metadata !DIExpression()), !dbg !1131
  call void @llvm.dbg.declare(metadata %"core::ops::range::RangeFull"* %self.dbg.spill2, metadata !1133, metadata !DIExpression()), !dbg !1141
  store [2 x i64]* %self, [2 x i64]** %self.dbg.spill3, align 8, !dbg !1120
  call void @llvm.dbg.declare(metadata [2 x i64]** %self.dbg.spill3, metadata !1116, metadata !DIExpression()), !dbg !1119
  %_11.0 = bitcast [2 x i64]* %self to [0 x i64]*, !dbg !1119
  %0 = getelementptr inbounds { [0 x i64]*, i64 }, { [0 x i64]*, i64 }* %self.dbg.spill4, i32 0, i32 0, !dbg !1119
  store [0 x i64]* %_11.0, [0 x i64]** %0, align 8, !dbg !1119
  %1 = getelementptr inbounds { [0 x i64]*, i64 }, { [0 x i64]*, i64 }* %self.dbg.spill4, i32 0, i32 1, !dbg !1119
  store i64 2, i64* %1, align 8, !dbg !1119
  call void @llvm.dbg.declare(metadata { [0 x i64]*, i64 }* %self.dbg.spill4, metadata !1130, metadata !DIExpression()), !dbg !1131
  %2 = getelementptr inbounds { [0 x i64]*, i64 }, { [0 x i64]*, i64 }* %slice.dbg.spill, i32 0, i32 0, !dbg !1131
  store [0 x i64]* %_11.0, [0 x i64]** %2, align 8, !dbg !1131
  %3 = getelementptr inbounds { [0 x i64]*, i64 }, { [0 x i64]*, i64 }* %slice.dbg.spill, i32 0, i32 1, !dbg !1131
  store i64 2, i64* %3, align 8, !dbg !1131
  call void @llvm.dbg.declare(metadata { [0 x i64]*, i64 }* %slice.dbg.spill, metadata !1140, metadata !DIExpression()), !dbg !1141
  %4 = getelementptr inbounds { [0 x i64]*, i64 }, { [0 x i64]*, i64 }* %_5, i32 0, i32 0, !dbg !1143
  store [0 x i64]* %_11.0, [0 x i64]** %4, align 8, !dbg !1143
  %5 = getelementptr inbounds { [0 x i64]*, i64 }, { [0 x i64]*, i64 }* %_5, i32 0, i32 1, !dbg !1143
  store i64 2, i64* %5, align 8, !dbg !1143
; call <&T as core::fmt::Debug>::fmt
  %6 = call zeroext i1 @"_ZN42_$LT$$RF$T$u20$as$u20$core..fmt..Debug$GT$3fmt17hd63971615242f5daE"({ [0 x i64]*, i64 }* align 8 %_5, %"core::fmt::Formatter"* align 8 %f), !dbg !1144
  br label %bb1, !dbg !1144

bb1:                                              ; preds = %start
  ret i1 %6, !dbg !1145
}

; core::slice::iter::Iter<T>::new
; Function Attrs: inlinehint nonlazybind uwtable
define { i64*, i64* } @"_ZN4core5slice4iter13Iter$LT$T$GT$3new17h4489e3ffb31fbfcaE"([0 x i64]* align 8 %slice.0, i64 %slice.1) unnamed_addr #0 !dbg !1146 {
start:
  %ptr.dbg.spill11 = alloca i64*, align 8
  %0 = alloca i8*, align 8
  %count.dbg.spill10 = alloca i64, align 8
  %self.dbg.spill9 = alloca i8*, align 8
  %count.dbg.spill8 = alloca i64, align 8
  %self.dbg.spill7 = alloca i8*, align 8
  %count.dbg.spill5 = alloca i64, align 8
  %self.dbg.spill4 = alloca i64*, align 8
  %count.dbg.spill = alloca i64, align 8
  %self.dbg.spill3 = alloca i64*, align 8
  %1 = alloca i8, align 1
  %other.dbg.spill = alloca i8*, align 8
  %data_address.dbg.spill = alloca {}*, align 8
  %2 = alloca {}*, align 8
  %self.dbg.spill2 = alloca i8*, align 8
  %self.dbg.spill1 = alloca i64*, align 8
  %ptr.dbg.spill = alloca i64*, align 8
  %self.dbg.spill = alloca { [0 x i64]*, i64 }, align 8
  %metadata.dbg.spill = alloca {}, align 1
  %slice.dbg.spill = alloca { [0 x i64]*, i64 }, align 8
  %_31 = alloca %"core::ptr::metadata::PtrComponents<u8>", align 8
  %_30 = alloca %"core::ptr::metadata::PtrRepr<u8>", align 8
  %_18 = alloca i64*, align 8, !rawptr !740
  %end = alloca i64*, align 8, !rawptr !740
  %3 = alloca { i64*, i64* }, align 8
  %4 = getelementptr inbounds { [0 x i64]*, i64 }, { [0 x i64]*, i64 }* %slice.dbg.spill, i32 0, i32 0
  store [0 x i64]* %slice.0, [0 x i64]** %4, align 8
  %5 = getelementptr inbounds { [0 x i64]*, i64 }, { [0 x i64]*, i64 }* %slice.dbg.spill, i32 0, i32 1
  store i64 %slice.1, i64* %5, align 8
  call void @llvm.dbg.declare(metadata { [0 x i64]*, i64 }* %slice.dbg.spill, metadata !1149, metadata !DIExpression()), !dbg !1154
  call void @llvm.dbg.declare(metadata i64** %end, metadata !1152, metadata !DIExpression()), !dbg !1155
  call void @llvm.dbg.declare(metadata {}* %metadata.dbg.spill, metadata !1156, metadata !DIExpression()), !dbg !1163
  %6 = getelementptr inbounds { [0 x i64]*, i64 }, { [0 x i64]*, i64 }* %self.dbg.spill, i32 0, i32 0, !dbg !1179
  store [0 x i64]* %slice.0, [0 x i64]** %6, align 8, !dbg !1179
  %7 = getelementptr inbounds { [0 x i64]*, i64 }, { [0 x i64]*, i64 }* %self.dbg.spill, i32 0, i32 1, !dbg !1179
  store i64 %slice.1, i64* %7, align 8, !dbg !1179
  call void @llvm.dbg.declare(metadata { [0 x i64]*, i64 }* %self.dbg.spill, metadata !1180, metadata !DIExpression()), !dbg !1186
  %ptr = bitcast [0 x i64]* %slice.0 to i64*, !dbg !1186, !rawptr !740
  store i64* %ptr, i64** %ptr.dbg.spill, align 8, !dbg !1186
  call void @llvm.dbg.declare(metadata i64** %ptr.dbg.spill, metadata !1150, metadata !DIExpression()), !dbg !1187
  store i64* %ptr, i64** %self.dbg.spill1, align 8, !dbg !1178
  call void @llvm.dbg.declare(metadata i64** %self.dbg.spill1, metadata !1176, metadata !DIExpression()), !dbg !1188
  %self = bitcast i64* %ptr to i8*, !dbg !1188, !rawptr !740
  store i8* %self, i8** %self.dbg.spill2, align 8, !dbg !1188
  call void @llvm.dbg.declare(metadata i8** %self.dbg.spill2, metadata !1189, metadata !DIExpression()), !dbg !1196
  %8 = bitcast {}** %2 to i64*, !dbg !1198
  store i64 0, i64* %8, align 8, !dbg !1198
  %data_address = load {}*, {}** %2, align 8, !dbg !1198, !rawptr !740
  store {}* %data_address, {}** %data_address.dbg.spill, align 8, !dbg !1198
  call void @llvm.dbg.declare(metadata {}** %data_address.dbg.spill, metadata !1162, metadata !DIExpression()), !dbg !1163
  br label %bb5, !dbg !1198

bb5:                                              ; preds = %start
  %9 = bitcast %"core::ptr::metadata::PtrComponents<u8>"* %_31 to {}**, !dbg !1163, !rawptr !740
  store {}* %data_address, {}** %9, align 8, !dbg !1163
  %10 = bitcast %"core::ptr::metadata::PtrRepr<u8>"* %_30 to %"core::ptr::metadata::PtrComponents<u8>"*, !dbg !1163
  %11 = bitcast %"core::ptr::metadata::PtrComponents<u8>"* %10 to i8*, !dbg !1163
  %12 = bitcast %"core::ptr::metadata::PtrComponents<u8>"* %_31 to i8*, !dbg !1163
  call void @llvm.memcpy.p0i8.p0i8.i64(i8* align 8 %11, i8* align 8 %12, i64 8, i1 false), !dbg !1163
  %13 = bitcast %"core::ptr::metadata::PtrRepr<u8>"* %_30 to i8**, !dbg !1163
  %other = load i8*, i8** %13, align 8, !dbg !1163, !rawptr !740
  store i8* %other, i8** %other.dbg.spill, align 8, !dbg !1163
  call void @llvm.dbg.declare(metadata i8** %other.dbg.spill, metadata !1195, metadata !DIExpression()), !dbg !1196
  %14 = icmp eq i8* %self, %other, !dbg !1196
  %15 = zext i1 %14 to i8, !dbg !1196
  store i8 %15, i8* %1, align 1, !dbg !1196
  %16 = load i8, i8* %1, align 1, !dbg !1196, !range !499, !noundef !14
  %_6 = trunc i8 %16 to i1, !dbg !1196
  br label %bb6, !dbg !1196

bb6:                                              ; preds = %bb5
  %_5 = xor i1 %_6, true, !dbg !1206
  call void @llvm.assume(i1 %_5), !dbg !1207
  br label %bb1, !dbg !1207

bb1:                                              ; preds = %bb6
  br i1 false, label %bb2, label %bb3, !dbg !1208

bb2:                                              ; preds = %bb1
  %self6 = bitcast i64* %ptr to i8*, !dbg !1209, !rawptr !740
  store i8* %self6, i8** %self.dbg.spill7, align 8, !dbg !1209
  call void @llvm.dbg.declare(metadata i8** %self.dbg.spill7, metadata !1210, metadata !DIExpression()), !dbg !1217
  store i64 %slice.1, i64* %count.dbg.spill8, align 8, !dbg !1218
  call void @llvm.dbg.declare(metadata i64* %count.dbg.spill8, metadata !1216, metadata !DIExpression()), !dbg !1217
  store i8* %self6, i8** %self.dbg.spill9, align 8, !dbg !1217
  call void @llvm.dbg.declare(metadata i8** %self.dbg.spill9, metadata !1219, metadata !DIExpression()), !dbg !1227
  store i64 %slice.1, i64* %count.dbg.spill10, align 8, !dbg !1217
  call void @llvm.dbg.declare(metadata i64* %count.dbg.spill10, metadata !1226, metadata !DIExpression()), !dbg !1227
  %17 = getelementptr i8, i8* %self6, i64 %slice.1, !dbg !1227
  store i8* %17, i8** %0, align 8, !dbg !1227
  %_10 = load i8*, i8** %0, align 8, !dbg !1227, !rawptr !740
  br label %bb7, !dbg !1227

bb3:                                              ; preds = %bb1
  store i64* %ptr, i64** %self.dbg.spill3, align 8, !dbg !1229
  call void @llvm.dbg.declare(metadata i64** %self.dbg.spill3, metadata !1230, metadata !DIExpression()), !dbg !1237
  store i64 %slice.1, i64* %count.dbg.spill, align 8, !dbg !1238
  call void @llvm.dbg.declare(metadata i64* %count.dbg.spill, metadata !1236, metadata !DIExpression()), !dbg !1237
  store i64* %ptr, i64** %self.dbg.spill4, align 8, !dbg !1237
  call void @llvm.dbg.declare(metadata i64** %self.dbg.spill4, metadata !1239, metadata !DIExpression()), !dbg !1246
  store i64 %slice.1, i64* %count.dbg.spill5, align 8, !dbg !1237
  call void @llvm.dbg.declare(metadata i64* %count.dbg.spill5, metadata !1245, metadata !DIExpression()), !dbg !1246
  %18 = getelementptr inbounds i64, i64* %ptr, i64 %slice.1, !dbg !1246
  store i64* %18, i64** %end, align 8, !dbg !1246
  br label %bb8, !dbg !1246

bb8:                                              ; preds = %bb3
  br label %bb4, !dbg !1248

bb4:                                              ; preds = %bb7, %bb8
  store i64* %ptr, i64** %ptr.dbg.spill11, align 8, !dbg !1249
  call void @llvm.dbg.declare(metadata i64** %ptr.dbg.spill11, metadata !1250, metadata !DIExpression()), !dbg !1257
  store i64* %ptr, i64** %_18, align 8, !dbg !1257
  %_21 = load i64*, i64** %end, align 8, !dbg !1259, !rawptr !740
  %19 = bitcast { i64*, i64* }* %3 to i64**, !dbg !1260
  %20 = load i64*, i64** %_18, align 8, !dbg !1260, !nonnull !14, !noundef !14
  store i64* %20, i64** %19, align 8, !dbg !1260
  %21 = getelementptr inbounds { i64*, i64* }, { i64*, i64* }* %3, i32 0, i32 1, !dbg !1260, !rawptr !740
  store i64* %_21, i64** %21, align 8, !dbg !1260
  %22 = getelementptr inbounds { i64*, i64* }, { i64*, i64* }* %3, i32 0, i32 0, !dbg !1261
  %23 = load i64*, i64** %22, align 8, !dbg !1261, !nonnull !14, !noundef !14
  %24 = getelementptr inbounds { i64*, i64* }, { i64*, i64* }* %3, i32 0, i32 1, !dbg !1261
  %25 = load i64*, i64** %24, align 8, !dbg !1261
  %26 = insertvalue { i64*, i64* } undef, i64* %23, 0, !dbg !1261
  %27 = insertvalue { i64*, i64* } %26, i64* %25, 1, !dbg !1261
  ret { i64*, i64* } %27, !dbg !1261

bb7:                                              ; preds = %bb2
  %28 = bitcast i8* %_10 to i64*, !dbg !1209
  store i64* %28, i64** %end, align 8, !dbg !1209
  br label %bb4, !dbg !1248
}

; core::result::Result<T,E>::expect
; Function Attrs: inlinehint nonlazybind uwtable
define void @"_ZN4core6result19Result$LT$T$C$E$GT$6expect17h144a129acad0adabE"(i32 %0, [0 x i8]* align 1 %msg.0, i64 %msg.1, %"core::panic::location::Location"* align 8 %1) unnamed_addr #0 personality i32 (...)* @rust_eh_personality !dbg !1262 {
start:
  %2 = alloca { i8*, i32 }, align 8
  %msg.dbg.spill = alloca { [0 x i8]*, i64 }, align 8
  %t.dbg.spill = alloca {}, align 1
  %e = alloca i32, align 4
  %self = alloca i32, align 4
  store i32 %0, i32* %self, align 4
  call void @llvm.dbg.declare(metadata {}* %t.dbg.spill, metadata !1282, metadata !DIExpression()), !dbg !1286
  call void @llvm.dbg.declare(metadata i32* %self, metadata !1280, metadata !DIExpression()), !dbg !1287
  %3 = getelementptr inbounds { [0 x i8]*, i64 }, { [0 x i8]*, i64 }* %msg.dbg.spill, i32 0, i32 0
  store [0 x i8]* %msg.0, [0 x i8]** %3, align 8
  %4 = getelementptr inbounds { [0 x i8]*, i64 }, { [0 x i8]*, i64 }* %msg.dbg.spill, i32 0, i32 1
  store i64 %msg.1, i64* %4, align 8
  call void @llvm.dbg.declare(metadata { [0 x i8]*, i64 }* %msg.dbg.spill, metadata !1281, metadata !DIExpression()), !dbg !1288
  call void @llvm.dbg.declare(metadata i32* %e, metadata !1284, metadata !DIExpression()), !dbg !1289
  %5 = load i32, i32* %self, align 4, !dbg !1290
  %6 = icmp eq i32 %5, 0, !dbg !1290
  %_3 = select i1 %6, i64 0, i64 1, !dbg !1290
  switch i64 %_3, label %bb2 [
    i64 0, label %bb3
    i64 1, label %bb1
  ], !dbg !1291

bb2:                                              ; preds = %start
  unreachable, !dbg !1290

bb3:                                              ; preds = %start
  ret void, !dbg !1292

bb1:                                              ; preds = %start
  %7 = load i32, i32* %self, align 4, !dbg !1293, !range !348, !noundef !14
  store i32 %7, i32* %e, align 4, !dbg !1293
  %_7.0 = bitcast i32* %e to {}*, !dbg !1294
; invoke core::result::unwrap_failed
  invoke void @_ZN4core6result13unwrap_failed17hbc1b0f0ed789a094E([0 x i8]* align 1 %msg.0, i64 %msg.1, {}* align 1 %_7.0, [3 x i64]* align 8 bitcast (<{ i8*, [16 x i8], i8* }>* @vtable.1 to [3 x i64]*), %"core::panic::location::Location"* align 8 %1) #13
          to label %unreachable unwind label %cleanup, !dbg !1295

bb4:                                              ; preds = %cleanup
  br label %bb5, !dbg !1296

cleanup:                                          ; preds = %bb1
  %8 = landingpad { i8*, i32 }
          cleanup
  %9 = extractvalue { i8*, i32 } %8, 0
  %10 = extractvalue { i8*, i32 } %8, 1
  %11 = getelementptr inbounds { i8*, i32 }, { i8*, i32 }* %2, i32 0, i32 0
  store i8* %9, i8** %11, align 8
  %12 = getelementptr inbounds { i8*, i32 }, { i8*, i32 }* %2, i32 0, i32 1
  store i32 %10, i32* %12, align 8
  br label %bb4

unreachable:                                      ; preds = %bb1
  unreachable

bb5:                                              ; preds = %bb4
  %13 = bitcast { i8*, i32 }* %2 to i8**, !dbg !1297
  %14 = load i8*, i8** %13, align 8, !dbg !1297
  %15 = getelementptr inbounds { i8*, i32 }, { i8*, i32 }* %2, i32 0, i32 1, !dbg !1297
  %16 = load i32, i32* %15, align 8, !dbg !1297
  %17 = insertvalue { i8*, i32 } undef, i8* %14, 0, !dbg !1297
  %18 = insertvalue { i8*, i32 } %17, i32 %16, 1, !dbg !1297
  resume { i8*, i32 } %18, !dbg !1297
}

; <T as core::convert::From<T>>::from
; Function Attrs: nonlazybind uwtable
define void @"_ZN50_$LT$T$u20$as$u20$core..convert..From$LT$T$GT$$GT$4from17hdcee8ea777e34be7E"() unnamed_addr #1 !dbg !1298 {
start:
  %t.dbg.spill = alloca %"core::alloc::AllocError", align 1
  call void @llvm.dbg.declare(metadata %"core::alloc::AllocError"* %t.dbg.spill, metadata !1306, metadata !DIExpression()), !dbg !1309
  ret void, !dbg !1310
}

; <T as core::convert::From<T>>::from
; Function Attrs: noreturn nonlazybind uwtable
define void @"_ZN50_$LT$T$u20$as$u20$core..convert..From$LT$T$GT$$GT$4from17hfa990a520cb8bb85E"() unnamed_addr #2 !dbg !1311 {
start:
  %t.dbg.spill = alloca %"once_cell::race::once_box::OnceBox<T>::get_or_init::Void", align 1
  call void @llvm.dbg.declare(metadata %"once_cell::race::once_box::OnceBox<T>::get_or_init::Void"* %t.dbg.spill, metadata !1315, metadata !DIExpression()), !dbg !1318
  call void @llvm.trap(), !dbg !1319
  unreachable, !dbg !1319
}

; alloc::alloc::exchange_malloc
; Function Attrs: inlinehint nonlazybind uwtable
define internal i8* @_ZN5alloc5alloc15exchange_malloc17hd662c08741ee499dE(i64 %size, i64 %align) unnamed_addr #0 !dbg !1320 {
start:
  %ptr.dbg.spill8 = alloca i8*, align 8
  %self.dbg.spill7 = alloca { [0 x i8]*, i64 }, align 8
  %self.dbg.spill6 = alloca { i8*, i64 }, align 8
  %self.dbg.spill5 = alloca { i8*, i64 }, align 8
  %self.dbg.spill4 = alloca { i8*, i64 }, align 8
  %ptr.dbg.spill = alloca { i8*, i64 }, align 8
  %layout.dbg.spill = alloca { i64, i64 }, align 8
  %self.dbg.spill = alloca %"alloc::alloc::Global"*, align 8
  %0 = alloca i64, align 8
  %align.dbg.spill3 = alloca i64, align 8
  %align.dbg.spill2 = alloca i64, align 8
  %size.dbg.spill1 = alloca i64, align 8
  %align.dbg.spill = alloca i64, align 8
  %size.dbg.spill = alloca i64, align 8
  %self = alloca i8*, align 8, !rawptr !740
  %_6 = alloca { i8*, i64 }, align 8
  %layout = alloca { i64, i64 }, align 8
  store i64 %size, i64* %size.dbg.spill, align 8
  call void @llvm.dbg.declare(metadata i64* %size.dbg.spill, metadata !1327, metadata !DIExpression()), !dbg !1348
  store i64 %align, i64* %align.dbg.spill, align 8
  call void @llvm.dbg.declare(metadata i64* %align.dbg.spill, metadata !1328, metadata !DIExpression()), !dbg !1349
  call void @llvm.dbg.declare(metadata { i64, i64 }* %layout, metadata !1329, metadata !DIExpression()), !dbg !1350
  call void @llvm.dbg.declare(metadata i8** %self, metadata !1351, metadata !DIExpression()), !dbg !1357
  store i64 %size, i64* %size.dbg.spill1, align 8, !dbg !1366
  call void @llvm.dbg.declare(metadata i64* %size.dbg.spill1, metadata !1367, metadata !DIExpression()), !dbg !1375
  store i64 %align, i64* %align.dbg.spill2, align 8, !dbg !1377
  call void @llvm.dbg.declare(metadata i64* %align.dbg.spill2, metadata !1374, metadata !DIExpression()), !dbg !1375
  store i64 %align, i64* %align.dbg.spill3, align 8, !dbg !1375
  call void @llvm.dbg.declare(metadata i64* %align.dbg.spill3, metadata !1378, metadata !DIExpression()), !dbg !1385
  store i64 %align, i64* %0, align 8, !dbg !1385
  %_16 = load i64, i64* %0, align 8, !dbg !1385, !range !1387, !noundef !14
  br label %bb4, !dbg !1385

bb4:                                              ; preds = %start
  %1 = bitcast { i64, i64 }* %layout to i64*, !dbg !1375
  store i64 %size, i64* %1, align 8, !dbg !1375
  %2 = getelementptr inbounds { i64, i64 }, { i64, i64 }* %layout, i32 0, i32 1, !dbg !1375
  store i64 %_16, i64* %2, align 8, !dbg !1375
  store %"alloc::alloc::Global"* bitcast (<{}>* @alloc639 to %"alloc::alloc::Global"*), %"alloc::alloc::Global"** %self.dbg.spill, align 8, !dbg !1388
  call void @llvm.dbg.declare(metadata %"alloc::alloc::Global"** %self.dbg.spill, metadata !1389, metadata !DIExpression()), !dbg !1414
  %3 = getelementptr inbounds { i64, i64 }, { i64, i64 }* %layout, i32 0, i32 0, !dbg !1415
  %layout.0 = load i64, i64* %3, align 8, !dbg !1415
  %4 = getelementptr inbounds { i64, i64 }, { i64, i64 }* %layout, i32 0, i32 1, !dbg !1415
  %layout.1 = load i64, i64* %4, align 8, !dbg !1415, !range !1387, !noundef !14
  %5 = getelementptr inbounds { i64, i64 }, { i64, i64 }* %layout.dbg.spill, i32 0, i32 0, !dbg !1415
  store i64 %layout.0, i64* %5, align 8, !dbg !1415
  %6 = getelementptr inbounds { i64, i64 }, { i64, i64 }* %layout.dbg.spill, i32 0, i32 1, !dbg !1415
  store i64 %layout.1, i64* %6, align 8, !dbg !1415
  call void @llvm.dbg.declare(metadata { i64, i64 }* %layout.dbg.spill, metadata !1413, metadata !DIExpression()), !dbg !1414
; call alloc::alloc::Global::alloc_impl
  %7 = call { i8*, i64 } @_ZN5alloc5alloc6Global10alloc_impl17h9ed37bd26eadb7fcE(%"alloc::alloc::Global"* align 1 bitcast (<{}>* @alloc639 to %"alloc::alloc::Global"*), i64 %layout.0, i64 %layout.1, i1 zeroext false), !dbg !1414
  store { i8*, i64 } %7, { i8*, i64 }* %_6, align 8, !dbg !1414
  br label %bb5, !dbg !1414

bb5:                                              ; preds = %bb4
  %8 = bitcast { i8*, i64 }* %_6 to {}**, !dbg !1388
  %9 = load {}*, {}** %8, align 8, !dbg !1388
  %10 = icmp eq {}* %9, null, !dbg !1388
  %_9 = select i1 %10, i64 1, i64 0, !dbg !1388
  switch i64 %_9, label %bb2 [
    i64 0, label %bb3
    i64 1, label %bb1
  ], !dbg !1416

bb2:                                              ; preds = %bb5
  unreachable, !dbg !1388

bb3:                                              ; preds = %bb5
  %11 = getelementptr inbounds { i8*, i64 }, { i8*, i64 }* %_6, i32 0, i32 0, !dbg !1417
  %ptr.0 = load i8*, i8** %11, align 8, !dbg !1417, !nonnull !14, !noundef !14
  %12 = getelementptr inbounds { i8*, i64 }, { i8*, i64 }* %_6, i32 0, i32 1, !dbg !1417
  %ptr.1 = load i64, i64* %12, align 8, !dbg !1417, !rawptr !740
  %13 = getelementptr inbounds { i8*, i64 }, { i8*, i64 }* %ptr.dbg.spill, i32 0, i32 0, !dbg !1417
  store i8* %ptr.0, i8** %13, align 8, !dbg !1417
  %14 = getelementptr inbounds { i8*, i64 }, { i8*, i64 }* %ptr.dbg.spill, i32 0, i32 1, !dbg !1417
  store i64 %ptr.1, i64* %14, align 8, !dbg !1417
  call void @llvm.dbg.declare(metadata { i8*, i64 }* %ptr.dbg.spill, metadata !1339, metadata !DIExpression()), !dbg !1418
  %15 = getelementptr inbounds { i8*, i64 }, { i8*, i64 }* %self.dbg.spill4, i32 0, i32 0, !dbg !1365
  store i8* %ptr.0, i8** %15, align 8, !dbg !1365
  %16 = getelementptr inbounds { i8*, i64 }, { i8*, i64 }* %self.dbg.spill4, i32 0, i32 1, !dbg !1365
  store i64 %ptr.1, i64* %16, align 8, !dbg !1365
  call void @llvm.dbg.declare(metadata { i8*, i64 }* %self.dbg.spill4, metadata !1363, metadata !DIExpression()), !dbg !1419
  %17 = getelementptr inbounds { i8*, i64 }, { i8*, i64 }* %self.dbg.spill5, i32 0, i32 0, !dbg !1419
  store i8* %ptr.0, i8** %17, align 8, !dbg !1419
  %18 = getelementptr inbounds { i8*, i64 }, { i8*, i64 }* %self.dbg.spill5, i32 0, i32 1, !dbg !1419
  store i64 %ptr.1, i64* %18, align 8, !dbg !1419
  call void @llvm.dbg.declare(metadata { i8*, i64 }* %self.dbg.spill5, metadata !1420, metadata !DIExpression()), !dbg !1426
  %19 = getelementptr inbounds { i8*, i64 }, { i8*, i64 }* %self.dbg.spill6, i32 0, i32 0, !dbg !1426
  store i8* %ptr.0, i8** %19, align 8, !dbg !1426
  %20 = getelementptr inbounds { i8*, i64 }, { i8*, i64 }* %self.dbg.spill6, i32 0, i32 1, !dbg !1426
  store i64 %ptr.1, i64* %20, align 8, !dbg !1426
  call void @llvm.dbg.declare(metadata { i8*, i64 }* %self.dbg.spill6, metadata !1427, metadata !DIExpression()), !dbg !1437
  %_28.0 = bitcast i8* %ptr.0 to [0 x i8]*, !dbg !1437, !rawptr !740
  %21 = getelementptr inbounds { [0 x i8]*, i64 }, { [0 x i8]*, i64 }* %self.dbg.spill7, i32 0, i32 0, !dbg !1437
  store [0 x i8]* %_28.0, [0 x i8]** %21, align 8, !dbg !1437
  %22 = getelementptr inbounds { [0 x i8]*, i64 }, { [0 x i8]*, i64 }* %self.dbg.spill7, i32 0, i32 1, !dbg !1437
  store i64 %ptr.1, i64* %22, align 8, !dbg !1437
  call void @llvm.dbg.declare(metadata { [0 x i8]*, i64 }* %self.dbg.spill7, metadata !1439, metadata !DIExpression()), !dbg !1446
  %ptr = bitcast [0 x i8]* %_28.0 to i8*, !dbg !1446, !rawptr !740
  store i8* %ptr, i8** %ptr.dbg.spill8, align 8, !dbg !1446
  call void @llvm.dbg.declare(metadata i8** %ptr.dbg.spill8, metadata !1447, metadata !DIExpression()), !dbg !1451
  store i8* %ptr, i8** %self, align 8, !dbg !1451
  %_33 = load i8*, i8** %self, align 8, !dbg !1357, !rawptr !740
  ret i8* %_33, !dbg !1453

bb1:                                              ; preds = %bb5
  %23 = getelementptr inbounds { i64, i64 }, { i64, i64 }* %layout, i32 0, i32 0, !dbg !1454
  %_13.0 = load i64, i64* %23, align 8, !dbg !1454
  %24 = getelementptr inbounds { i64, i64 }, { i64, i64 }* %layout, i32 0, i32 1, !dbg !1454
  %_13.1 = load i64, i64* %24, align 8, !dbg !1454, !range !1387, !noundef !14
; call alloc::alloc::handle_alloc_error
  call void @_ZN5alloc5alloc18handle_alloc_error17h58c56b8d3bfba88eE(i64 %_13.0, i64 %_13.1) #13, !dbg !1455
  unreachable, !dbg !1455
}

; alloc::alloc::Global::alloc_impl
; Function Attrs: inlinehint nonlazybind uwtable
define internal { i8*, i64 } @_ZN5alloc5alloc6Global10alloc_impl17h9ed37bd26eadb7fcE(%"alloc::alloc::Global"* align 1 %self, i64 %0, i64 %1, i1 zeroext %zeroed) unnamed_addr #0 !dbg !1456 {
start:
  %ptr.dbg.spill38 = alloca { [0 x i8]*, i64 }, align 8
  %data_address.dbg.spill35 = alloca {}*, align 8
  %self.dbg.spill33 = alloca i8*, align 8
  %data.dbg.spill32 = alloca i8*, align 8
  %self.dbg.spill31 = alloca i8*, align 8
  %ptr.dbg.spill29 = alloca i8*, align 8
  %2 = alloca i8*, align 8
  %addr.dbg.spill = alloca i64, align 8
  %n.dbg.spill28 = alloca i64, align 8
  %self.dbg.spill27 = alloca { i64, i64 }*, align 8
  %self.dbg.spill26 = alloca { i64, i64 }*, align 8
  %ptr.dbg.spill25 = alloca { [0 x i8]*, i64 }, align 8
  %metadata.dbg.spill = alloca i64, align 8
  %data_address.dbg.spill = alloca {}*, align 8
  %self.dbg.spill24 = alloca i8*, align 8
  %len.dbg.spill23 = alloca i64, align 8
  %data.dbg.spill22 = alloca i8*, align 8
  %self.dbg.spill21 = alloca i8*, align 8
  %len.dbg.spill = alloca i64, align 8
  %data.dbg.spill = alloca i8*, align 8
  %ptr.dbg.spill = alloca i8*, align 8
  %val.dbg.spill = alloca i8*, align 8
  %v.dbg.spill20 = alloca i8*, align 8
  %v.dbg.spill = alloca i8*, align 8
  %n.dbg.spill18 = alloca i64, align 8
  %self.dbg.spill17 = alloca { i64, i64 }*, align 8
  %self.dbg.spill16 = alloca { i64, i64 }*, align 8
  %n.dbg.spill = alloca i64, align 8
  %self.dbg.spill15 = alloca { i64, i64 }*, align 8
  %self.dbg.spill14 = alloca { i64, i64 }*, align 8
  %size.dbg.spill = alloca i64, align 8
  %self.dbg.spill13 = alloca { i64, i64 }*, align 8
  %e.dbg.spill12 = alloca %"core::alloc::AllocError", align 1
  %e.dbg.spill = alloca %"core::alloc::AllocError", align 1
  %residual.dbg.spill5 = alloca %"core::result::Result<core::convert::Infallible, core::alloc::AllocError>::Err", align 1
  %residual.dbg.spill = alloca %"core::result::Result<core::convert::Infallible, core::alloc::AllocError>::Err", align 1
  %err.dbg.spill = alloca %"core::alloc::AllocError", align 1
  %zeroed.dbg.spill = alloca i8, align 1
  %self.dbg.spill = alloca %"alloc::alloc::Global"*, align 8
  %_94 = alloca { i8*, i64 }, align 8
  %_93 = alloca %"core::ptr::metadata::PtrRepr<[u8]>", align 8
  %self11 = alloca i64, align 8
  %self10 = alloca i64, align 8
  %self9 = alloca i64, align 8
  %self8 = alloca i64, align 8
  %_51 = alloca { i8*, i64 }, align 8
  %_50 = alloca %"core::ptr::metadata::PtrRepr<[u8]>", align 8
  %self7 = alloca i64, align 8
  %self6 = alloca i64, align 8
  %_24 = alloca { i8*, i64 }, align 8
  %self4 = alloca i8*, align 8
  %self3 = alloca i8*, align 8
  %_15 = alloca i8*, align 8
  %layout2 = alloca { i64, i64 }, align 8
  %layout1 = alloca { i64, i64 }, align 8
  %raw_ptr = alloca i8*, align 8
  %data = alloca i8*, align 8, !rawptr !740
  %_6 = alloca { i8*, i64 }, align 8
  %3 = alloca { i8*, i64 }, align 8
  %layout = alloca { i64, i64 }, align 8
  %4 = getelementptr inbounds { i64, i64 }, { i64, i64 }* %layout, i32 0, i32 0
  store i64 %0, i64* %4, align 8
  %5 = getelementptr inbounds { i64, i64 }, { i64, i64 }* %layout, i32 0, i32 1
  store i64 %1, i64* %5, align 8
  store %"alloc::alloc::Global"* %self, %"alloc::alloc::Global"** %self.dbg.spill, align 8
  call void @llvm.dbg.declare(metadata %"alloc::alloc::Global"** %self.dbg.spill, metadata !1460, metadata !DIExpression()), !dbg !1486
  call void @llvm.dbg.declare(metadata { i64, i64 }* %layout, metadata !1461, metadata !DIExpression()), !dbg !1487
  %6 = zext i1 %zeroed to i8
  store i8 %6, i8* %zeroed.dbg.spill, align 1
  call void @llvm.dbg.declare(metadata i8* %zeroed.dbg.spill, metadata !1462, metadata !DIExpression()), !dbg !1488
  call void @llvm.dbg.declare(metadata i8** %data, metadata !1489, metadata !DIExpression()), !dbg !1496
  call void @llvm.dbg.declare(metadata i8** %raw_ptr, metadata !1465, metadata !DIExpression()), !dbg !1498
  call void @llvm.dbg.declare(metadata { i64, i64 }* %layout1, metadata !1499, metadata !DIExpression()), !dbg !1504
  call void @llvm.dbg.declare(metadata { i64, i64 }* %layout2, metadata !1506, metadata !DIExpression()), !dbg !1509
  call void @llvm.dbg.declare(metadata i8** %self3, metadata !1511, metadata !DIExpression()), !dbg !1555
  call void @llvm.dbg.declare(metadata i8** %self4, metadata !1557, metadata !DIExpression()), !dbg !1568
  call void @llvm.dbg.declare(metadata %"core::alloc::AllocError"* %err.dbg.spill, metadata !1564, metadata !DIExpression()), !dbg !1568
  call void @llvm.dbg.declare(metadata %"core::result::Result<core::convert::Infallible, core::alloc::AllocError>::Err"* %residual.dbg.spill, metadata !1469, metadata !DIExpression()), !dbg !1569
  call void @llvm.dbg.declare(metadata %"core::result::Result<core::convert::Infallible, core::alloc::AllocError>::Err"* %residual.dbg.spill5, metadata !1570, metadata !DIExpression()), !dbg !1581
  call void @llvm.dbg.declare(metadata i64* %self6, metadata !1583, metadata !DIExpression()), !dbg !1593
  call void @llvm.dbg.declare(metadata i64* %self7, metadata !1610, metadata !DIExpression()), !dbg !1616
  call void @llvm.dbg.declare(metadata i64* %self8, metadata !1617, metadata !DIExpression()), !dbg !1621
  call void @llvm.dbg.declare(metadata i64* %self9, metadata !1628, metadata !DIExpression()), !dbg !1632
  call void @llvm.dbg.declare(metadata i64* %self10, metadata !1633, metadata !DIExpression()), !dbg !1637
  call void @llvm.dbg.declare(metadata i64* %self11, metadata !1644, metadata !DIExpression()), !dbg !1648
  call void @llvm.dbg.declare(metadata %"core::alloc::AllocError"* %e.dbg.spill, metadata !1552, metadata !DIExpression()), !dbg !1649
  call void @llvm.dbg.declare(metadata %"core::alloc::AllocError"* %e.dbg.spill12, metadata !1576, metadata !DIExpression()), !dbg !1650
  store { i64, i64 }* %layout, { i64, i64 }** %self.dbg.spill13, align 8, !dbg !1651
  call void @llvm.dbg.declare(metadata { i64, i64 }** %self.dbg.spill13, metadata !1652, metadata !DIExpression()), !dbg !1656
  %7 = bitcast { i64, i64 }* %layout to i64*, !dbg !1656
  %_4 = load i64, i64* %7, align 8, !dbg !1656
  %8 = icmp eq i64 %_4, 0, !dbg !1657
  br i1 %8, label %bb2, label %bb1, !dbg !1657

bb2:                                              ; preds = %start
  store { i64, i64 }* %layout, { i64, i64 }** %self.dbg.spill26, align 8, !dbg !1609
  call void @llvm.dbg.declare(metadata { i64, i64 }** %self.dbg.spill26, metadata !1607, metadata !DIExpression()), !dbg !1658
  store { i64, i64 }* %layout, { i64, i64 }** %self.dbg.spill27, align 8, !dbg !1658
  call void @llvm.dbg.declare(metadata { i64, i64 }** %self.dbg.spill27, metadata !1600, metadata !DIExpression()), !dbg !1659
  %9 = getelementptr inbounds { i64, i64 }, { i64, i64 }* %layout, i32 0, i32 1, !dbg !1659
  %10 = load i64, i64* %9, align 8, !dbg !1659, !range !1387, !noundef !14
  store i64 %10, i64* %self7, align 8, !dbg !1659
  %_33 = load i64, i64* %self7, align 8, !dbg !1616, !range !1387, !noundef !14
  store i64 %_33, i64* %n.dbg.spill28, align 8, !dbg !1616
  call void @llvm.dbg.declare(metadata i64* %n.dbg.spill28, metadata !1660, metadata !DIExpression()), !dbg !1676
  store i64 %_33, i64* %self6, align 8, !dbg !1676
  %addr = load i64, i64* %self6, align 8, !dbg !1593
  store i64 %addr, i64* %addr.dbg.spill, align 8, !dbg !1593
  call void @llvm.dbg.declare(metadata i64* %addr.dbg.spill, metadata !1678, metadata !DIExpression()), !dbg !1684
  %11 = bitcast i8** %2 to i64*, !dbg !1684
  store i64 %addr, i64* %11, align 8, !dbg !1684
  %ptr = load i8*, i8** %2, align 8, !dbg !1684, !rawptr !740
  store i8* %ptr, i8** %ptr.dbg.spill29, align 8, !dbg !1684
  call void @llvm.dbg.declare(metadata i8** %ptr.dbg.spill29, metadata !1686, metadata !DIExpression()), !dbg !1690
  br label %bb13, !dbg !1684

bb1:                                              ; preds = %start
  store i64 %_4, i64* %size.dbg.spill, align 8, !dbg !1692
  call void @llvm.dbg.declare(metadata i64* %size.dbg.spill, metadata !1463, metadata !DIExpression()), !dbg !1693
  br i1 %zeroed, label %bb3, label %bb4, !dbg !1694

bb4:                                              ; preds = %bb1
  %12 = getelementptr inbounds { i64, i64 }, { i64, i64 }* %layout, i32 0, i32 0, !dbg !1695
  %13 = load i64, i64* %12, align 8, !dbg !1695
  %14 = getelementptr inbounds { i64, i64 }, { i64, i64 }* %layout, i32 0, i32 1, !dbg !1695
  %15 = load i64, i64* %14, align 8, !dbg !1695, !range !1387, !noundef !14
  %16 = getelementptr inbounds { i64, i64 }, { i64, i64 }* %layout2, i32 0, i32 0, !dbg !1695
  store i64 %13, i64* %16, align 8, !dbg !1695
  %17 = getelementptr inbounds { i64, i64 }, { i64, i64 }* %layout2, i32 0, i32 1, !dbg !1695
  store i64 %15, i64* %17, align 8, !dbg !1695
  store { i64, i64 }* %layout2, { i64, i64 }** %self.dbg.spill16, align 8, !dbg !1509
  call void @llvm.dbg.declare(metadata { i64, i64 }** %self.dbg.spill16, metadata !1696, metadata !DIExpression()), !dbg !1700
  %18 = bitcast { i64, i64 }* %layout2 to i64*, !dbg !1700
  %_67 = load i64, i64* %18, align 8, !dbg !1700, !rawptr !740
  store { i64, i64 }* %layout2, { i64, i64 }** %self.dbg.spill17, align 8, !dbg !1509
  call void @llvm.dbg.declare(metadata { i64, i64 }** %self.dbg.spill17, metadata !1641, metadata !DIExpression()), !dbg !1702
  %19 = getelementptr inbounds { i64, i64 }, { i64, i64 }* %layout2, i32 0, i32 1, !dbg !1702
  %20 = load i64, i64* %19, align 8, !dbg !1702, !range !1387, !noundef !14
  store i64 %20, i64* %self11, align 8, !dbg !1702
  %_74 = load i64, i64* %self11, align 8, !dbg !1648, !range !1387, !noundef !14
  store i64 %_74, i64* %n.dbg.spill18, align 8, !dbg !1648
  call void @llvm.dbg.declare(metadata i64* %n.dbg.spill18, metadata !1703, metadata !DIExpression()), !dbg !1710
  store i64 %_74, i64* %self10, align 8, !dbg !1710
  %_69 = load i64, i64* %self10, align 8, !dbg !1637, !rawptr !740
  %21 = call i8* @__rust_alloc(i64 %_67, i64 %_69) #16, !dbg !1509
  store i8* %21, i8** %raw_ptr, align 8, !dbg !1509
  br label %bb15, !dbg !1509

bb3:                                              ; preds = %bb1
  %22 = getelementptr inbounds { i64, i64 }, { i64, i64 }* %layout, i32 0, i32 0, !dbg !1712
  %23 = load i64, i64* %22, align 8, !dbg !1712
  %24 = getelementptr inbounds { i64, i64 }, { i64, i64 }* %layout, i32 0, i32 1, !dbg !1712
  %25 = load i64, i64* %24, align 8, !dbg !1712, !range !1387, !noundef !14
  %26 = getelementptr inbounds { i64, i64 }, { i64, i64 }* %layout1, i32 0, i32 0, !dbg !1712
  store i64 %23, i64* %26, align 8, !dbg !1712
  %27 = getelementptr inbounds { i64, i64 }, { i64, i64 }* %layout1, i32 0, i32 1, !dbg !1712
  store i64 %25, i64* %27, align 8, !dbg !1712
  store { i64, i64 }* %layout1, { i64, i64 }** %self.dbg.spill14, align 8, !dbg !1504
  call void @llvm.dbg.declare(metadata { i64, i64 }** %self.dbg.spill14, metadata !1713, metadata !DIExpression()), !dbg !1717
  %28 = bitcast { i64, i64 }* %layout1 to i64*, !dbg !1717
  %_57 = load i64, i64* %28, align 8, !dbg !1717, !rawptr !740
  store { i64, i64 }* %layout1, { i64, i64 }** %self.dbg.spill15, align 8, !dbg !1504
  call void @llvm.dbg.declare(metadata { i64, i64 }** %self.dbg.spill15, metadata !1625, metadata !DIExpression()), !dbg !1719
  %29 = getelementptr inbounds { i64, i64 }, { i64, i64 }* %layout1, i32 0, i32 1, !dbg !1719
  %30 = load i64, i64* %29, align 8, !dbg !1719, !range !1387, !noundef !14
  store i64 %30, i64* %self9, align 8, !dbg !1719
  %_64 = load i64, i64* %self9, align 8, !dbg !1632, !range !1387, !noundef !14
  store i64 %_64, i64* %n.dbg.spill, align 8, !dbg !1632
  call void @llvm.dbg.declare(metadata i64* %n.dbg.spill, metadata !1720, metadata !DIExpression()), !dbg !1727
  store i64 %_64, i64* %self8, align 8, !dbg !1727
  %_59 = load i64, i64* %self8, align 8, !dbg !1621, !rawptr !740
  %31 = call i8* @__rust_alloc_zeroed(i64 %_57, i64 %_59) #16, !dbg !1504
  store i8* %31, i8** %raw_ptr, align 8, !dbg !1504
  br label %bb14, !dbg !1504

bb14:                                             ; preds = %bb3
  br label %bb5, !dbg !1729

bb5:                                              ; preds = %bb15, %bb14
  %_18 = load i8*, i8** %raw_ptr, align 8, !dbg !1730, !rawptr !740
; call core::ptr::non_null::NonNull<T>::new
  %32 = call i8* @"_ZN4core3ptr8non_null16NonNull$LT$T$GT$3new17h0fba63d578e17739E"(i8* %_18), !dbg !1556
  store i8* %32, i8** %self4, align 8, !dbg !1556
  br label %bb6, !dbg !1556

bb15:                                             ; preds = %bb4
  br label %bb5, !dbg !1729

bb6:                                              ; preds = %bb5
  %33 = bitcast i8** %self4 to {}**, !dbg !1568
  %34 = load {}*, {}** %33, align 8, !dbg !1568
  %35 = icmp eq {}* %34, null, !dbg !1568
  %_77 = select i1 %35, i64 0, i64 1, !dbg !1568
  switch i64 %_77, label %bb17 [
    i64 0, label %bb16
    i64 1, label %bb18
  ], !dbg !1568

bb17:                                             ; preds = %bb6
  unreachable, !dbg !1568

bb16:                                             ; preds = %bb6
  %36 = bitcast i8** %self3 to {}**, !dbg !1568
  store {}* null, {}** %36, align 8, !dbg !1568
  br label %bb19, !dbg !1568

bb18:                                             ; preds = %bb6
  %v = load i8*, i8** %self4, align 8, !dbg !1568, !nonnull !14, !noundef !14
  store i8* %v, i8** %v.dbg.spill, align 8, !dbg !1568
  call void @llvm.dbg.declare(metadata i8** %v.dbg.spill, metadata !1565, metadata !DIExpression()), !dbg !1731
  store i8* %v, i8** %self3, align 8, !dbg !1731
  br label %bb19, !dbg !1568

bb19:                                             ; preds = %bb16, %bb18
  %37 = bitcast i8** %self3 to {}**, !dbg !1555
  %38 = load {}*, {}** %37, align 8, !dbg !1555
  %39 = icmp eq {}* %38, null, !dbg !1555
  %_80 = select i1 %39, i64 1, i64 0, !dbg !1555
  switch i64 %_80, label %bb21 [
    i64 0, label %bb22
    i64 1, label %bb20
  ], !dbg !1555

bb21:                                             ; preds = %bb19
  unreachable, !dbg !1555

bb22:                                             ; preds = %bb19
  %v19 = load i8*, i8** %self3, align 8, !dbg !1555, !nonnull !14, !noundef !14
  store i8* %v19, i8** %v.dbg.spill20, align 8, !dbg !1555
  call void @llvm.dbg.declare(metadata i8** %v.dbg.spill20, metadata !1549, metadata !DIExpression()), !dbg !1732
  store i8* %v19, i8** %_15, align 8, !dbg !1732
  br label %bb7, !dbg !1555

bb20:                                             ; preds = %bb19
  %40 = bitcast i8** %_15 to {}**, !dbg !1649
  store {}* null, {}** %40, align 8, !dbg !1649
  br label %bb7, !dbg !1555

bb7:                                              ; preds = %bb22, %bb20
  %41 = bitcast i8** %_15 to {}**, !dbg !1556
  %42 = load {}*, {}** %41, align 8, !dbg !1556
  %43 = icmp eq {}* %42, null, !dbg !1556
  %_20 = select i1 %43, i64 1, i64 0, !dbg !1556
  switch i64 %_20, label %bb9 [
    i64 0, label %bb8
    i64 1, label %bb10
  ], !dbg !1556

bb9:                                              ; preds = %bb7
  unreachable, !dbg !1556

bb8:                                              ; preds = %bb7
  %val = load i8*, i8** %_15, align 8, !dbg !1556, !nonnull !14, !noundef !14, !rawptr !740
  store i8* %val, i8** %val.dbg.spill, align 8, !dbg !1556
  call void @llvm.dbg.declare(metadata i8** %val.dbg.spill, metadata !1484, metadata !DIExpression()), !dbg !1733
  store i8* %val, i8** %ptr.dbg.spill, align 8, !dbg !1733
  call void @llvm.dbg.declare(metadata i8** %ptr.dbg.spill, metadata !1467, metadata !DIExpression()), !dbg !1734
  store i8* %val, i8** %data.dbg.spill, align 8, !dbg !1735
  call void @llvm.dbg.declare(metadata i8** %data.dbg.spill, metadata !1736, metadata !DIExpression()), !dbg !1741
  store i64 %_4, i64* %len.dbg.spill, align 8, !dbg !1743
  call void @llvm.dbg.declare(metadata i64* %len.dbg.spill, metadata !1740, metadata !DIExpression()), !dbg !1741
  store i8* %val, i8** %self.dbg.spill21, align 8, !dbg !1741
  call void @llvm.dbg.declare(metadata i8** %self.dbg.spill21, metadata !1744, metadata !DIExpression()), !dbg !1748
  store i8* %val, i8** %data.dbg.spill22, align 8, !dbg !1748
  call void @llvm.dbg.declare(metadata i8** %data.dbg.spill22, metadata !1750, metadata !DIExpression()), !dbg !1757
  store i64 %_4, i64* %len.dbg.spill23, align 8, !dbg !1741
  call void @llvm.dbg.declare(metadata i64* %len.dbg.spill23, metadata !1756, metadata !DIExpression()), !dbg !1757
  store i8* %val, i8** %self.dbg.spill24, align 8, !dbg !1757
  call void @llvm.dbg.declare(metadata i8** %self.dbg.spill24, metadata !1759, metadata !DIExpression()), !dbg !1767
  %data_address = bitcast i8* %val to {}*, !dbg !1767, !rawptr !740
  store {}* %data_address, {}** %data_address.dbg.spill, align 8, !dbg !1767
  call void @llvm.dbg.declare(metadata {}** %data_address.dbg.spill, metadata !1769, metadata !DIExpression()), !dbg !1776
  store i64 %_4, i64* %metadata.dbg.spill, align 8, !dbg !1757
  call void @llvm.dbg.declare(metadata i64* %metadata.dbg.spill, metadata !1775, metadata !DIExpression()), !dbg !1776
  %44 = bitcast { i8*, i64 }* %_94 to {}**, !dbg !1776, !rawptr !740
  store {}* %data_address, {}** %44, align 8, !dbg !1776
  %45 = getelementptr inbounds { i8*, i64 }, { i8*, i64 }* %_94, i32 0, i32 1, !dbg !1776
  store i64 %_4, i64* %45, align 8, !dbg !1776
  %46 = bitcast %"core::ptr::metadata::PtrRepr<[u8]>"* %_93 to { i8*, i64 }*, !dbg !1776
  %47 = getelementptr inbounds { i8*, i64 }, { i8*, i64 }* %_94, i32 0, i32 0, !dbg !1776
  %48 = load i8*, i8** %47, align 8, !dbg !1776
  %49 = getelementptr inbounds { i8*, i64 }, { i8*, i64 }* %_94, i32 0, i32 1, !dbg !1776
  %50 = load i64, i64* %49, align 8, !dbg !1776
  %51 = getelementptr inbounds { i8*, i64 }, { i8*, i64 }* %46, i32 0, i32 0, !dbg !1776
  store i8* %48, i8** %51, align 8, !dbg !1776
  %52 = getelementptr inbounds { i8*, i64 }, { i8*, i64 }* %46, i32 0, i32 1, !dbg !1776
  store i64 %50, i64* %52, align 8, !dbg !1776
  %53 = bitcast %"core::ptr::metadata::PtrRepr<[u8]>"* %_93 to { [0 x i8]*, i64 }*, !dbg !1776
  %54 = getelementptr inbounds { [0 x i8]*, i64 }, { [0 x i8]*, i64 }* %53, i32 0, i32 0, !dbg !1776
  %ptr.0 = load [0 x i8]*, [0 x i8]** %54, align 8, !dbg !1776, !rawptr !740
  %55 = getelementptr inbounds { [0 x i8]*, i64 }, { [0 x i8]*, i64 }* %53, i32 0, i32 1, !dbg !1776
  %ptr.1 = load i64, i64* %55, align 8, !dbg !1776, !rawptr !740
  %56 = getelementptr inbounds { [0 x i8]*, i64 }, { [0 x i8]*, i64 }* %ptr.dbg.spill25, i32 0, i32 0, !dbg !1776
  store [0 x i8]* %ptr.0, [0 x i8]** %56, align 8, !dbg !1776
  %57 = getelementptr inbounds { [0 x i8]*, i64 }, { [0 x i8]*, i64 }* %ptr.dbg.spill25, i32 0, i32 1, !dbg !1776
  store i64 %ptr.1, i64* %57, align 8, !dbg !1776
  call void @llvm.dbg.declare(metadata { [0 x i8]*, i64 }* %ptr.dbg.spill25, metadata !1778, metadata !DIExpression()), !dbg !1784
  %58 = bitcast { i8*, i64 }* %_24 to { [0 x i8]*, i64 }*, !dbg !1784, !rawptr !740
  %59 = getelementptr inbounds { [0 x i8]*, i64 }, { [0 x i8]*, i64 }* %58, i32 0, i32 0, !dbg !1784
  store [0 x i8]* %ptr.0, [0 x i8]** %59, align 8, !dbg !1784
  %60 = getelementptr inbounds { [0 x i8]*, i64 }, { [0 x i8]*, i64 }* %58, i32 0, i32 1, !dbg !1784
  store i64 %ptr.1, i64* %60, align 8, !dbg !1784
  %61 = getelementptr inbounds { i8*, i64 }, { i8*, i64 }* %_24, i32 0, i32 0, !dbg !1786
  %62 = load i8*, i8** %61, align 8, !dbg !1786, !nonnull !14, !noundef !14
  %63 = getelementptr inbounds { i8*, i64 }, { i8*, i64 }* %_24, i32 0, i32 1, !dbg !1786
  %64 = load i64, i64* %63, align 8, !dbg !1786
  %65 = getelementptr inbounds { i8*, i64 }, { i8*, i64 }* %3, i32 0, i32 0, !dbg !1786
  store i8* %62, i8** %65, align 8, !dbg !1786
  %66 = getelementptr inbounds { i8*, i64 }, { i8*, i64 }* %3, i32 0, i32 1, !dbg !1786
  store i64 %64, i64* %66, align 8, !dbg !1786
  br label %bb11, !dbg !1787

bb10:                                             ; preds = %bb7
; call <T as core::convert::From<T>>::from
  call void @"_ZN50_$LT$T$u20$as$u20$core..convert..From$LT$T$GT$$GT$4from17hdcee8ea777e34be7E"(), !dbg !1650
  br label %bb23, !dbg !1650

bb23:                                             ; preds = %bb10
  %67 = bitcast { i8*, i64 }* %3 to {}**, !dbg !1650
  store {}* null, {}** %67, align 8, !dbg !1650
  br label %bb12, !dbg !1788

bb12:                                             ; preds = %bb11, %bb23
  %68 = getelementptr inbounds { i8*, i64 }, { i8*, i64 }* %3, i32 0, i32 0, !dbg !1788
  %69 = load i8*, i8** %68, align 8, !dbg !1788
  %70 = getelementptr inbounds { i8*, i64 }, { i8*, i64 }* %3, i32 0, i32 1, !dbg !1788
  %71 = load i64, i64* %70, align 8, !dbg !1788
  %72 = insertvalue { i8*, i64 } undef, i8* %69, 0, !dbg !1788
  %73 = insertvalue { i8*, i64 } %72, i64 %71, 1, !dbg !1788
  ret { i8*, i64 } %73, !dbg !1788

bb11:                                             ; preds = %bb13, %bb8
  br label %bb12, !dbg !1788

bb13:                                             ; preds = %bb2
  store i8* %ptr, i8** %data, align 8, !dbg !1690
  %self30 = load i8*, i8** %data, align 8, !dbg !1496, !nonnull !14, !noundef !14, !rawptr !740
  store i8* %self30, i8** %self.dbg.spill31, align 8, !dbg !1496
  call void @llvm.dbg.declare(metadata i8** %self.dbg.spill31, metadata !1789, metadata !DIExpression()), !dbg !1793
  store i8* %self30, i8** %data.dbg.spill32, align 8, !dbg !1793
  call void @llvm.dbg.declare(metadata i8** %data.dbg.spill32, metadata !1795, metadata !DIExpression()), !dbg !1800
  store i8* %self30, i8** %self.dbg.spill33, align 8, !dbg !1800
  call void @llvm.dbg.declare(metadata i8** %self.dbg.spill33, metadata !1802, metadata !DIExpression()), !dbg !1806
  %data_address34 = bitcast i8* %self30 to {}*, !dbg !1806, !rawptr !740
  store {}* %data_address34, {}** %data_address.dbg.spill35, align 8, !dbg !1806
  call void @llvm.dbg.declare(metadata {}** %data_address.dbg.spill35, metadata !1808, metadata !DIExpression()), !dbg !1813
  %74 = bitcast { i8*, i64 }* %_51 to {}**, !dbg !1813, !rawptr !740
  store {}* %data_address34, {}** %74, align 8, !dbg !1813
  %75 = getelementptr inbounds { i8*, i64 }, { i8*, i64 }* %_51, i32 0, i32 1, !dbg !1813
  store i64 0, i64* %75, align 8, !dbg !1813
  %76 = bitcast %"core::ptr::metadata::PtrRepr<[u8]>"* %_50 to { i8*, i64 }*, !dbg !1813
  %77 = getelementptr inbounds { i8*, i64 }, { i8*, i64 }* %_51, i32 0, i32 0, !dbg !1813
  %78 = load i8*, i8** %77, align 8, !dbg !1813
  %79 = getelementptr inbounds { i8*, i64 }, { i8*, i64 }* %_51, i32 0, i32 1, !dbg !1813
  %80 = load i64, i64* %79, align 8, !dbg !1813
  %81 = getelementptr inbounds { i8*, i64 }, { i8*, i64 }* %76, i32 0, i32 0, !dbg !1813
  store i8* %78, i8** %81, align 8, !dbg !1813
  %82 = getelementptr inbounds { i8*, i64 }, { i8*, i64 }* %76, i32 0, i32 1, !dbg !1813
  store i64 %80, i64* %82, align 8, !dbg !1813
  %83 = bitcast %"core::ptr::metadata::PtrRepr<[u8]>"* %_50 to { [0 x i8]*, i64 }*, !dbg !1813
  %84 = getelementptr inbounds { [0 x i8]*, i64 }, { [0 x i8]*, i64 }* %83, i32 0, i32 0, !dbg !1813
  %ptr.036 = load [0 x i8]*, [0 x i8]** %84, align 8, !dbg !1813, !rawptr !740
  %85 = getelementptr inbounds { [0 x i8]*, i64 }, { [0 x i8]*, i64 }* %83, i32 0, i32 1, !dbg !1813
  %ptr.137 = load i64, i64* %85, align 8, !dbg !1813, !rawptr !740
  %86 = getelementptr inbounds { [0 x i8]*, i64 }, { [0 x i8]*, i64 }* %ptr.dbg.spill38, i32 0, i32 0, !dbg !1813
  store [0 x i8]* %ptr.036, [0 x i8]** %86, align 8, !dbg !1813
  %87 = getelementptr inbounds { [0 x i8]*, i64 }, { [0 x i8]*, i64 }* %ptr.dbg.spill38, i32 0, i32 1, !dbg !1813
  store i64 %ptr.137, i64* %87, align 8, !dbg !1813
  call void @llvm.dbg.declare(metadata { [0 x i8]*, i64 }* %ptr.dbg.spill38, metadata !1815, metadata !DIExpression()), !dbg !1819
  %88 = bitcast { i8*, i64 }* %_6 to { [0 x i8]*, i64 }*, !dbg !1819, !rawptr !740
  %89 = getelementptr inbounds { [0 x i8]*, i64 }, { [0 x i8]*, i64 }* %88, i32 0, i32 0, !dbg !1819
  store [0 x i8]* %ptr.036, [0 x i8]** %89, align 8, !dbg !1819
  %90 = getelementptr inbounds { [0 x i8]*, i64 }, { [0 x i8]*, i64 }* %88, i32 0, i32 1, !dbg !1819
  store i64 %ptr.137, i64* %90, align 8, !dbg !1819
  %91 = getelementptr inbounds { i8*, i64 }, { i8*, i64 }* %_6, i32 0, i32 0, !dbg !1821
  %92 = load i8*, i8** %91, align 8, !dbg !1821, !nonnull !14, !noundef !14
  %93 = getelementptr inbounds { i8*, i64 }, { i8*, i64 }* %_6, i32 0, i32 1, !dbg !1821
  %94 = load i64, i64* %93, align 8, !dbg !1821
  %95 = getelementptr inbounds { i8*, i64 }, { i8*, i64 }* %3, i32 0, i32 0, !dbg !1821
  store i8* %92, i8** %95, align 8, !dbg !1821
  %96 = getelementptr inbounds { i8*, i64 }, { i8*, i64 }* %3, i32 0, i32 1, !dbg !1821
  store i64 %94, i64* %96, align 8, !dbg !1821
  br label %bb11, !dbg !1822
}

; alloc::alloc::box_free
; Function Attrs: inlinehint nonlazybind uwtable
define void @_ZN5alloc5alloc8box_free17h28a0821fb3fe7cc1E(i64* %0) unnamed_addr #0 personality i32 (...)* @rust_eh_personality !dbg !1823 {
start:
  %1 = alloca { i8*, i32 }, align 8
  %ptr.dbg.spill18 = alloca i8*, align 8
  %self.dbg.spill17 = alloca i8*, align 8
  %self.dbg.spill16 = alloca i8*, align 8
  %ptr.dbg.spill = alloca i8*, align 8
  %self.dbg.spill13 = alloca i64*, align 8
  %self.dbg.spill12 = alloca i64*, align 8
  %self.dbg.spill11 = alloca i64*, align 8
  %2 = alloca i64, align 8
  %align.dbg.spill9 = alloca i64, align 8
  %align.dbg.spill8 = alloca i64, align 8
  %size.dbg.spill7 = alloca i64, align 8
  %align.dbg.spill = alloca i64, align 8
  %3 = alloca i64, align 8
  %self.dbg.spill6 = alloca i64*, align 8
  %self.dbg.spill4 = alloca i64**, align 8
  %self.dbg.spill3 = alloca i64**, align 8
  %size.dbg.spill = alloca i64, align 8
  %4 = alloca i64, align 8
  %self.dbg.spill2 = alloca i64*, align 8
  %self.dbg.spill1 = alloca i64**, align 8
  %self.dbg.spill = alloca i64**, align 8
  %pointer = alloca i8*, align 8, !rawptr !740
  %unique = alloca i8*, align 8
  %_15 = alloca i8*, align 8, !rawptr !740
  %layout = alloca { i64, i64 }, align 8
  %alloc = alloca %"alloc::alloc::Global", align 1
  %ptr = alloca i64*, align 8
  store i64* %0, i64** %ptr, align 8
  call void @llvm.dbg.declare(metadata i64** %ptr, metadata !1837, metadata !DIExpression()), !dbg !1847
  call void @llvm.dbg.declare(metadata %"alloc::alloc::Global"* %alloc, metadata !1838, metadata !DIExpression()), !dbg !1848
  call void @llvm.dbg.declare(metadata { i64, i64 }* %layout, metadata !1843, metadata !DIExpression()), !dbg !1849
  call void @llvm.dbg.declare(metadata i8** %unique, metadata !1850, metadata !DIExpression()), !dbg !1862
  call void @llvm.dbg.declare(metadata i8** %pointer, metadata !1864, metadata !DIExpression()), !dbg !1872
  store i64** %ptr, i64*** %self.dbg.spill, align 8, !dbg !1883
  call void @llvm.dbg.declare(metadata i64*** %self.dbg.spill, metadata !1884, metadata !DIExpression()), !dbg !1892
  store i64** %ptr, i64*** %self.dbg.spill1, align 8, !dbg !1892
  call void @llvm.dbg.declare(metadata i64*** %self.dbg.spill1, metadata !1893, metadata !DIExpression()), !dbg !1900
  %self = load i64*, i64** %ptr, align 8, !dbg !1900, !nonnull !14, !noundef !14
  store i64* %self, i64** %self.dbg.spill2, align 8, !dbg !1900
  call void @llvm.dbg.declare(metadata i64** %self.dbg.spill2, metadata !1902, metadata !DIExpression()), !dbg !1908
  %_22 = bitcast i64* %self to { {}*, [3 x i64]* }*, !dbg !1908, !rawptr !740
  store i64 16, i64* %4, align 8, !dbg !1910
  %size = load i64, i64* %4, align 8, !dbg !1910
  store i64 %size, i64* %size.dbg.spill, align 8, !dbg !1910
  call void @llvm.dbg.declare(metadata i64* %size.dbg.spill, metadata !1839, metadata !DIExpression()), !dbg !1911
  br label %bb1, !dbg !1910

bb1:                                              ; preds = %start
  store i64** %ptr, i64*** %self.dbg.spill3, align 8, !dbg !1912
  call void @llvm.dbg.declare(metadata i64*** %self.dbg.spill3, metadata !1913, metadata !DIExpression()), !dbg !1917
  store i64** %ptr, i64*** %self.dbg.spill4, align 8, !dbg !1917
  call void @llvm.dbg.declare(metadata i64*** %self.dbg.spill4, metadata !1918, metadata !DIExpression()), !dbg !1922
  %self5 = load i64*, i64** %ptr, align 8, !dbg !1922, !nonnull !14, !noundef !14
  store i64* %self5, i64** %self.dbg.spill6, align 8, !dbg !1922
  call void @llvm.dbg.declare(metadata i64** %self.dbg.spill6, metadata !1924, metadata !DIExpression()), !dbg !1928
  %_26 = bitcast i64* %self5 to { {}*, [3 x i64]* }*, !dbg !1928, !rawptr !740
  store i64 8, i64* %3, align 8, !dbg !1930
  %align = load i64, i64* %3, align 8, !dbg !1930
  store i64 %align, i64* %align.dbg.spill, align 8, !dbg !1930
  call void @llvm.dbg.declare(metadata i64* %align.dbg.spill, metadata !1841, metadata !DIExpression()), !dbg !1931
  br label %bb2, !dbg !1930

bb2:                                              ; preds = %bb1
  store i64 %size, i64* %size.dbg.spill7, align 8, !dbg !1932
  call void @llvm.dbg.declare(metadata i64* %size.dbg.spill7, metadata !1933, metadata !DIExpression()), !dbg !1938
  store i64 %align, i64* %align.dbg.spill8, align 8, !dbg !1940
  call void @llvm.dbg.declare(metadata i64* %align.dbg.spill8, metadata !1937, metadata !DIExpression()), !dbg !1938
  store i64 %align, i64* %align.dbg.spill9, align 8, !dbg !1938
  call void @llvm.dbg.declare(metadata i64* %align.dbg.spill9, metadata !1941, metadata !DIExpression()), !dbg !1945
  store i64 %align, i64* %2, align 8, !dbg !1945
  %_28 = load i64, i64* %2, align 8, !dbg !1945, !range !1387, !noundef !14
  br label %bb7, !dbg !1945

bb7:                                              ; preds = %bb2
  %5 = bitcast { i64, i64 }* %layout to i64*, !dbg !1938
  store i64 %size, i64* %5, align 8, !dbg !1938
  %6 = getelementptr inbounds { i64, i64 }, { i64, i64 }* %layout, i32 0, i32 1, !dbg !1938
  store i64 %_28, i64* %6, align 8, !dbg !1938
  %self10 = load i64*, i64** %ptr, align 8, !dbg !1882, !nonnull !14, !noundef !14
  store i64* %self10, i64** %self.dbg.spill11, align 8, !dbg !1882
  call void @llvm.dbg.declare(metadata i64** %self.dbg.spill11, metadata !1878, metadata !DIExpression()), !dbg !1947
  store i64* %self10, i64** %self.dbg.spill12, align 8, !dbg !1947
  call void @llvm.dbg.declare(metadata i64** %self.dbg.spill12, metadata !1948, metadata !DIExpression()), !dbg !1954
  store i64* %self10, i64** %self.dbg.spill13, align 8, !dbg !1954
  call void @llvm.dbg.declare(metadata i64** %self.dbg.spill13, metadata !1956, metadata !DIExpression()), !dbg !1960
  %_38 = bitcast i64* %self10 to { {}*, [3 x i64]* }*, !dbg !1960, !rawptr !740
  %ptr14 = bitcast { {}*, [3 x i64]* }* %_38 to i8*, !dbg !1954, !rawptr !740
  store i8* %ptr14, i8** %ptr.dbg.spill, align 8, !dbg !1954
  call void @llvm.dbg.declare(metadata i8** %ptr.dbg.spill, metadata !1962, metadata !DIExpression()), !dbg !1966
  store i8* %ptr14, i8** %pointer, align 8, !dbg !1966
  %_42 = load i8*, i8** %pointer, align 8, !dbg !1872, !nonnull !14, !noundef !14
  store i8* %_42, i8** %unique, align 8, !dbg !1872
  %self15 = load i8*, i8** %unique, align 8, !dbg !1862, !nonnull !14, !noundef !14, !rawptr !740
  store i8* %self15, i8** %self.dbg.spill16, align 8, !dbg !1862
  call void @llvm.dbg.declare(metadata i8** %self.dbg.spill16, metadata !1968, metadata !DIExpression()), !dbg !1974
  store i8* %self15, i8** %self.dbg.spill17, align 8, !dbg !1974
  call void @llvm.dbg.declare(metadata i8** %self.dbg.spill17, metadata !1976, metadata !DIExpression()), !dbg !1980
  store i8* %self15, i8** %ptr.dbg.spill18, align 8, !dbg !1980
  call void @llvm.dbg.declare(metadata i8** %ptr.dbg.spill18, metadata !1982, metadata !DIExpression()), !dbg !1986
  store i8* %self15, i8** %_15, align 8, !dbg !1986
  %7 = getelementptr inbounds { i64, i64 }, { i64, i64 }* %layout, i32 0, i32 0, !dbg !1988
  %_18.0 = load i64, i64* %7, align 8, !dbg !1988
  %8 = getelementptr inbounds { i64, i64 }, { i64, i64 }* %layout, i32 0, i32 1, !dbg !1988
  %_18.1 = load i64, i64* %8, align 8, !dbg !1988, !range !1387, !noundef !14
  %9 = load i8*, i8** %_15, align 8, !dbg !1989, !nonnull !14, !noundef !14
; invoke <alloc::alloc::Global as core::alloc::Allocator>::deallocate
  invoke void @"_ZN63_$LT$alloc..alloc..Global$u20$as$u20$core..alloc..Allocator$GT$10deallocate17h762d1b9930869697E"(%"alloc::alloc::Global"* align 1 %alloc, i8* %9, i64 %_18.0, i64 %_18.1)
          to label %bb3 unwind label %cleanup, !dbg !1989

bb5:                                              ; preds = %cleanup
  br label %bb6, !dbg !1990

cleanup:                                          ; preds = %bb7
  %10 = landingpad { i8*, i32 }
          cleanup
  %11 = extractvalue { i8*, i32 } %10, 0
  %12 = extractvalue { i8*, i32 } %10, 1
  %13 = getelementptr inbounds { i8*, i32 }, { i8*, i32 }* %1, i32 0, i32 0
  store i8* %11, i8** %13, align 8
  %14 = getelementptr inbounds { i8*, i32 }, { i8*, i32 }* %1, i32 0, i32 1
  store i32 %12, i32* %14, align 8
  br label %bb5

bb3:                                              ; preds = %bb7
  br label %bb4, !dbg !1990

bb6:                                              ; preds = %bb5
  %15 = bitcast { i8*, i32 }* %1 to i8**, !dbg !1991
  %16 = load i8*, i8** %15, align 8, !dbg !1991
  %17 = getelementptr inbounds { i8*, i32 }, { i8*, i32 }* %1, i32 0, i32 1, !dbg !1991
  %18 = load i32, i32* %17, align 8, !dbg !1991
  %19 = insertvalue { i8*, i32 } undef, i8* %16, 0, !dbg !1991
  %20 = insertvalue { i8*, i32 } %19, i32 %18, 1, !dbg !1991
  resume { i8*, i32 } %20, !dbg !1991

bb4:                                              ; preds = %bb3
  ret void, !dbg !1992
}

; alloc::alloc::box_free
; Function Attrs: inlinehint nonlazybind uwtable
define void @_ZN5alloc5alloc8box_free17h35fa56438aba4824E(i8* %0, i64* align 8 %1) unnamed_addr #0 personality i32 (...)* @rust_eh_personality !dbg !1993 {
start:
  %2 = alloca { i8*, i32 }, align 8
  %ptr.dbg.spill19 = alloca i8*, align 8
  %self.dbg.spill18 = alloca i8*, align 8
  %self.dbg.spill17 = alloca i8*, align 8
  %ptr.dbg.spill = alloca i8*, align 8
  %self.dbg.spill15 = alloca { i8*, i64* }, align 8
  %self.dbg.spill14 = alloca { i8*, i64* }, align 8
  %self.dbg.spill13 = alloca { i8*, i64* }, align 8
  %3 = alloca i64, align 8
  %align.dbg.spill10 = alloca i64, align 8
  %align.dbg.spill9 = alloca i64, align 8
  %size.dbg.spill8 = alloca i64, align 8
  %align.dbg.spill = alloca i64, align 8
  %4 = alloca i64, align 8
  %self.dbg.spill7 = alloca { i8*, i64* }, align 8
  %self.dbg.spill4 = alloca { i8*, i64* }*, align 8
  %self.dbg.spill3 = alloca { i8*, i64* }*, align 8
  %size.dbg.spill = alloca i64, align 8
  %5 = alloca i64, align 8
  %self.dbg.spill2 = alloca { i8*, i64* }, align 8
  %self.dbg.spill1 = alloca { i8*, i64* }*, align 8
  %self.dbg.spill = alloca { i8*, i64* }*, align 8
  %pointer = alloca i8*, align 8, !rawptr !740
  %unique = alloca i8*, align 8
  %_15 = alloca i8*, align 8, !rawptr !740
  %layout = alloca { i64, i64 }, align 8
  %alloc = alloca %"alloc::alloc::Global", align 1
  %ptr = alloca { i8*, i64* }, align 8
  %6 = getelementptr inbounds { i8*, i64* }, { i8*, i64* }* %ptr, i32 0, i32 0
  store i8* %0, i8** %6, align 8
  %7 = getelementptr inbounds { i8*, i64* }, { i8*, i64* }* %ptr, i32 0, i32 1
  store i64* %1, i64** %7, align 8
  call void @llvm.dbg.declare(metadata { i8*, i64* }* %ptr, metadata !2009, metadata !DIExpression()), !dbg !2018
  call void @llvm.dbg.declare(metadata %"alloc::alloc::Global"* %alloc, metadata !2010, metadata !DIExpression()), !dbg !2019
  call void @llvm.dbg.declare(metadata { i64, i64 }* %layout, metadata !2015, metadata !DIExpression()), !dbg !2020
  call void @llvm.dbg.declare(metadata i8** %unique, metadata !2021, metadata !DIExpression()), !dbg !2025
  call void @llvm.dbg.declare(metadata i8** %pointer, metadata !2027, metadata !DIExpression()), !dbg !2031
  store { i8*, i64* }* %ptr, { i8*, i64* }** %self.dbg.spill, align 8, !dbg !2041
  call void @llvm.dbg.declare(metadata { i8*, i64* }** %self.dbg.spill, metadata !2042, metadata !DIExpression()), !dbg !2053
  store { i8*, i64* }* %ptr, { i8*, i64* }** %self.dbg.spill1, align 8, !dbg !2053
  call void @llvm.dbg.declare(metadata { i8*, i64* }** %self.dbg.spill1, metadata !2054, metadata !DIExpression()), !dbg !2061
  %8 = getelementptr inbounds { i8*, i64* }, { i8*, i64* }* %ptr, i32 0, i32 0, !dbg !2061
  %self.0 = load i8*, i8** %8, align 8, !dbg !2061, !nonnull !14, !noundef !14
  %9 = getelementptr inbounds { i8*, i64* }, { i8*, i64* }* %ptr, i32 0, i32 1, !dbg !2061
  %self.1 = load i64*, i64** %9, align 8, !dbg !2061, !nonnull !14, !align !303, !noundef !14
  %10 = getelementptr inbounds { i8*, i64* }, { i8*, i64* }* %self.dbg.spill2, i32 0, i32 0, !dbg !2061
  store i8* %self.0, i8** %10, align 8, !dbg !2061
  %11 = getelementptr inbounds { i8*, i64* }, { i8*, i64* }* %self.dbg.spill2, i32 0, i32 1, !dbg !2061
  store i64* %self.1, i64** %11, align 8, !dbg !2061
  call void @llvm.dbg.declare(metadata { i8*, i64* }* %self.dbg.spill2, metadata !2063, metadata !DIExpression()), !dbg !2069
  %_22.0 = bitcast i8* %self.0 to {}*, !dbg !2069, !rawptr !740
  %_22.1 = bitcast i64* %self.1 to [3 x i64]*, !dbg !2069, !rawptr !740
  %12 = bitcast [3 x i64]* %_22.1 to i64*, !dbg !2071
  %13 = getelementptr inbounds i64, i64* %12, i64 1, !dbg !2071
  %14 = load i64, i64* %13, align 8, !dbg !2071, !invariant.load !14
  %15 = bitcast [3 x i64]* %_22.1 to i64*, !dbg !2071
  %16 = getelementptr inbounds i64, i64* %15, i64 2, !dbg !2071
  %17 = load i64, i64* %16, align 8, !dbg !2071, !range !2072, !invariant.load !14
  store i64 %14, i64* %5, align 8, !dbg !2071
  %size = load i64, i64* %5, align 8, !dbg !2071
  store i64 %size, i64* %size.dbg.spill, align 8, !dbg !2071
  call void @llvm.dbg.declare(metadata i64* %size.dbg.spill, metadata !2011, metadata !DIExpression()), !dbg !2073
  br label %bb1, !dbg !2071

bb1:                                              ; preds = %start
  store { i8*, i64* }* %ptr, { i8*, i64* }** %self.dbg.spill3, align 8, !dbg !2074
  call void @llvm.dbg.declare(metadata { i8*, i64* }** %self.dbg.spill3, metadata !2075, metadata !DIExpression()), !dbg !2079
  store { i8*, i64* }* %ptr, { i8*, i64* }** %self.dbg.spill4, align 8, !dbg !2079
  call void @llvm.dbg.declare(metadata { i8*, i64* }** %self.dbg.spill4, metadata !2080, metadata !DIExpression()), !dbg !2084
  %18 = getelementptr inbounds { i8*, i64* }, { i8*, i64* }* %ptr, i32 0, i32 0, !dbg !2084
  %self.05 = load i8*, i8** %18, align 8, !dbg !2084, !nonnull !14, !noundef !14
  %19 = getelementptr inbounds { i8*, i64* }, { i8*, i64* }* %ptr, i32 0, i32 1, !dbg !2084
  %self.16 = load i64*, i64** %19, align 8, !dbg !2084, !nonnull !14, !align !303, !noundef !14
  %20 = getelementptr inbounds { i8*, i64* }, { i8*, i64* }* %self.dbg.spill7, i32 0, i32 0, !dbg !2084
  store i8* %self.05, i8** %20, align 8, !dbg !2084
  %21 = getelementptr inbounds { i8*, i64* }, { i8*, i64* }* %self.dbg.spill7, i32 0, i32 1, !dbg !2084
  store i64* %self.16, i64** %21, align 8, !dbg !2084
  call void @llvm.dbg.declare(metadata { i8*, i64* }* %self.dbg.spill7, metadata !2086, metadata !DIExpression()), !dbg !2090
  %_26.0 = bitcast i8* %self.05 to {}*, !dbg !2090, !rawptr !740
  %_26.1 = bitcast i64* %self.16 to [3 x i64]*, !dbg !2090, !rawptr !740
  %22 = bitcast [3 x i64]* %_26.1 to i64*, !dbg !2092
  %23 = getelementptr inbounds i64, i64* %22, i64 1, !dbg !2092
  %24 = load i64, i64* %23, align 8, !dbg !2092, !invariant.load !14
  %25 = bitcast [3 x i64]* %_26.1 to i64*, !dbg !2092
  %26 = getelementptr inbounds i64, i64* %25, i64 2, !dbg !2092
  %27 = load i64, i64* %26, align 8, !dbg !2092, !range !2072, !invariant.load !14
  store i64 %27, i64* %4, align 8, !dbg !2092
  %align = load i64, i64* %4, align 8, !dbg !2092
  store i64 %align, i64* %align.dbg.spill, align 8, !dbg !2092
  call void @llvm.dbg.declare(metadata i64* %align.dbg.spill, metadata !2013, metadata !DIExpression()), !dbg !2093
  br label %bb2, !dbg !2092

bb2:                                              ; preds = %bb1
  store i64 %size, i64* %size.dbg.spill8, align 8, !dbg !2094
  call void @llvm.dbg.declare(metadata i64* %size.dbg.spill8, metadata !2095, metadata !DIExpression()), !dbg !2100
  store i64 %align, i64* %align.dbg.spill9, align 8, !dbg !2102
  call void @llvm.dbg.declare(metadata i64* %align.dbg.spill9, metadata !2099, metadata !DIExpression()), !dbg !2100
  store i64 %align, i64* %align.dbg.spill10, align 8, !dbg !2100
  call void @llvm.dbg.declare(metadata i64* %align.dbg.spill10, metadata !2103, metadata !DIExpression()), !dbg !2107
  store i64 %align, i64* %3, align 8, !dbg !2107
  %_28 = load i64, i64* %3, align 8, !dbg !2107, !range !1387, !noundef !14
  br label %bb7, !dbg !2107

bb7:                                              ; preds = %bb2
  %28 = bitcast { i64, i64 }* %layout to i64*, !dbg !2100
  store i64 %size, i64* %28, align 8, !dbg !2100
  %29 = getelementptr inbounds { i64, i64 }, { i64, i64 }* %layout, i32 0, i32 1, !dbg !2100
  store i64 %_28, i64* %29, align 8, !dbg !2100
  %30 = getelementptr inbounds { i8*, i64* }, { i8*, i64* }* %ptr, i32 0, i32 0, !dbg !2040
  %self.011 = load i8*, i8** %30, align 8, !dbg !2040, !nonnull !14, !noundef !14
  %31 = getelementptr inbounds { i8*, i64* }, { i8*, i64* }* %ptr, i32 0, i32 1, !dbg !2040
  %self.112 = load i64*, i64** %31, align 8, !dbg !2040, !nonnull !14, !align !303, !noundef !14
  %32 = getelementptr inbounds { i8*, i64* }, { i8*, i64* }* %self.dbg.spill13, i32 0, i32 0, !dbg !2040
  store i8* %self.011, i8** %32, align 8, !dbg !2040
  %33 = getelementptr inbounds { i8*, i64* }, { i8*, i64* }* %self.dbg.spill13, i32 0, i32 1, !dbg !2040
  store i64* %self.112, i64** %33, align 8, !dbg !2040
  call void @llvm.dbg.declare(metadata { i8*, i64* }* %self.dbg.spill13, metadata !2037, metadata !DIExpression()), !dbg !2109
  %34 = getelementptr inbounds { i8*, i64* }, { i8*, i64* }* %self.dbg.spill14, i32 0, i32 0, !dbg !2109
  store i8* %self.011, i8** %34, align 8, !dbg !2109
  %35 = getelementptr inbounds { i8*, i64* }, { i8*, i64* }* %self.dbg.spill14, i32 0, i32 1, !dbg !2109
  store i64* %self.112, i64** %35, align 8, !dbg !2109
  call void @llvm.dbg.declare(metadata { i8*, i64* }* %self.dbg.spill14, metadata !2110, metadata !DIExpression()), !dbg !2116
  %36 = getelementptr inbounds { i8*, i64* }, { i8*, i64* }* %self.dbg.spill15, i32 0, i32 0, !dbg !2116
  store i8* %self.011, i8** %36, align 8, !dbg !2116
  %37 = getelementptr inbounds { i8*, i64* }, { i8*, i64* }* %self.dbg.spill15, i32 0, i32 1, !dbg !2116
  store i64* %self.112, i64** %37, align 8, !dbg !2116
  call void @llvm.dbg.declare(metadata { i8*, i64* }* %self.dbg.spill15, metadata !2118, metadata !DIExpression()), !dbg !2122
  %_38.0 = bitcast i8* %self.011 to {}*, !dbg !2122, !rawptr !740
  %_38.1 = bitcast i64* %self.112 to [3 x i64]*, !dbg !2122, !rawptr !740
  %ptr16 = bitcast {}* %_38.0 to i8*, !dbg !2116, !rawptr !740
  store i8* %ptr16, i8** %ptr.dbg.spill, align 8, !dbg !2116
  call void @llvm.dbg.declare(metadata i8** %ptr.dbg.spill, metadata !2124, metadata !DIExpression()), !dbg !2128
  store i8* %ptr16, i8** %pointer, align 8, !dbg !2128
  %_42 = load i8*, i8** %pointer, align 8, !dbg !2031, !nonnull !14, !noundef !14
  store i8* %_42, i8** %unique, align 8, !dbg !2031
  %self = load i8*, i8** %unique, align 8, !dbg !2025, !nonnull !14, !noundef !14, !rawptr !740
  store i8* %self, i8** %self.dbg.spill17, align 8, !dbg !2025
  call void @llvm.dbg.declare(metadata i8** %self.dbg.spill17, metadata !2130, metadata !DIExpression()), !dbg !2134
  store i8* %self, i8** %self.dbg.spill18, align 8, !dbg !2134
  call void @llvm.dbg.declare(metadata i8** %self.dbg.spill18, metadata !2136, metadata !DIExpression()), !dbg !2140
  store i8* %self, i8** %ptr.dbg.spill19, align 8, !dbg !2140
  call void @llvm.dbg.declare(metadata i8** %ptr.dbg.spill19, metadata !2142, metadata !DIExpression()), !dbg !2146
  store i8* %self, i8** %_15, align 8, !dbg !2146
  %38 = getelementptr inbounds { i64, i64 }, { i64, i64 }* %layout, i32 0, i32 0, !dbg !2148
  %_18.0 = load i64, i64* %38, align 8, !dbg !2148
  %39 = getelementptr inbounds { i64, i64 }, { i64, i64 }* %layout, i32 0, i32 1, !dbg !2148
  %_18.1 = load i64, i64* %39, align 8, !dbg !2148, !range !1387, !noundef !14
  %40 = load i8*, i8** %_15, align 8, !dbg !2149, !nonnull !14, !noundef !14
; invoke <alloc::alloc::Global as core::alloc::Allocator>::deallocate
  invoke void @"_ZN63_$LT$alloc..alloc..Global$u20$as$u20$core..alloc..Allocator$GT$10deallocate17h762d1b9930869697E"(%"alloc::alloc::Global"* align 1 %alloc, i8* %40, i64 %_18.0, i64 %_18.1)
          to label %bb3 unwind label %cleanup, !dbg !2149

bb5:                                              ; preds = %cleanup
  br label %bb6, !dbg !2150

cleanup:                                          ; preds = %bb7
  %41 = landingpad { i8*, i32 }
          cleanup
  %42 = extractvalue { i8*, i32 } %41, 0
  %43 = extractvalue { i8*, i32 } %41, 1
  %44 = getelementptr inbounds { i8*, i32 }, { i8*, i32 }* %2, i32 0, i32 0
  store i8* %42, i8** %44, align 8
  %45 = getelementptr inbounds { i8*, i32 }, { i8*, i32 }* %2, i32 0, i32 1
  store i32 %43, i32* %45, align 8
  br label %bb5

bb3:                                              ; preds = %bb7
  br label %bb4, !dbg !2150

bb6:                                              ; preds = %bb5
  %46 = bitcast { i8*, i32 }* %2 to i8**, !dbg !2151
  %47 = load i8*, i8** %46, align 8, !dbg !2151
  %48 = getelementptr inbounds { i8*, i32 }, { i8*, i32 }* %2, i32 0, i32 1, !dbg !2151
  %49 = load i32, i32* %48, align 8, !dbg !2151
  %50 = insertvalue { i8*, i32 } undef, i8* %47, 0, !dbg !2151
  %51 = insertvalue { i8*, i32 } %50, i32 %49, 1, !dbg !2151
  resume { i8*, i32 } %51, !dbg !2151

bb4:                                              ; preds = %bb3
  ret void, !dbg !2152
}

; alloc::alloc::box_free
; Function Attrs: inlinehint nonlazybind uwtable
define void @_ZN5alloc5alloc8box_free17h4ee06861d8c7974bE(i64* %0) unnamed_addr #0 personality i32 (...)* @rust_eh_personality !dbg !2153 {
start:
  %1 = alloca { i8*, i32 }, align 8
  %ptr.dbg.spill18 = alloca i8*, align 8
  %self.dbg.spill17 = alloca i8*, align 8
  %self.dbg.spill16 = alloca i8*, align 8
  %ptr.dbg.spill = alloca i8*, align 8
  %self.dbg.spill13 = alloca i64*, align 8
  %self.dbg.spill12 = alloca i64*, align 8
  %self.dbg.spill11 = alloca i64*, align 8
  %2 = alloca i64, align 8
  %align.dbg.spill9 = alloca i64, align 8
  %align.dbg.spill8 = alloca i64, align 8
  %size.dbg.spill7 = alloca i64, align 8
  %align.dbg.spill = alloca i64, align 8
  %3 = alloca i64, align 8
  %self.dbg.spill6 = alloca i64*, align 8
  %self.dbg.spill4 = alloca i64**, align 8
  %self.dbg.spill3 = alloca i64**, align 8
  %size.dbg.spill = alloca i64, align 8
  %4 = alloca i64, align 8
  %self.dbg.spill2 = alloca i64*, align 8
  %self.dbg.spill1 = alloca i64**, align 8
  %self.dbg.spill = alloca i64**, align 8
  %pointer = alloca i8*, align 8, !rawptr !740
  %unique = alloca i8*, align 8
  %_15 = alloca i8*, align 8, !rawptr !740
  %layout = alloca { i64, i64 }, align 8
  %alloc = alloca %"alloc::alloc::Global", align 1
  %ptr = alloca i64*, align 8
  store i64* %0, i64** %ptr, align 8
  call void @llvm.dbg.declare(metadata i64** %ptr, metadata !2166, metadata !DIExpression()), !dbg !2175
  call void @llvm.dbg.declare(metadata %"alloc::alloc::Global"* %alloc, metadata !2167, metadata !DIExpression()), !dbg !2176
  call void @llvm.dbg.declare(metadata { i64, i64 }* %layout, metadata !2172, metadata !DIExpression()), !dbg !2177
  call void @llvm.dbg.declare(metadata i8** %unique, metadata !2178, metadata !DIExpression()), !dbg !2182
  call void @llvm.dbg.declare(metadata i8** %pointer, metadata !2184, metadata !DIExpression()), !dbg !2188
  store i64** %ptr, i64*** %self.dbg.spill, align 8, !dbg !2198
  call void @llvm.dbg.declare(metadata i64*** %self.dbg.spill, metadata !2199, metadata !DIExpression()), !dbg !2206
  store i64** %ptr, i64*** %self.dbg.spill1, align 8, !dbg !2206
  call void @llvm.dbg.declare(metadata i64*** %self.dbg.spill1, metadata !2207, metadata !DIExpression()), !dbg !2214
  %self = load i64*, i64** %ptr, align 8, !dbg !2214, !nonnull !14, !noundef !14
  store i64* %self, i64** %self.dbg.spill2, align 8, !dbg !2214
  call void @llvm.dbg.declare(metadata i64** %self.dbg.spill2, metadata !2216, metadata !DIExpression()), !dbg !2222
  %_22 = bitcast i64* %self to [2 x [4 x i64]]*, !dbg !2222, !rawptr !740
  store i64 64, i64* %4, align 8, !dbg !2224
  %size = load i64, i64* %4, align 8, !dbg !2224
  store i64 %size, i64* %size.dbg.spill, align 8, !dbg !2224
  call void @llvm.dbg.declare(metadata i64* %size.dbg.spill, metadata !2168, metadata !DIExpression()), !dbg !2225
  br label %bb1, !dbg !2224

bb1:                                              ; preds = %start
  store i64** %ptr, i64*** %self.dbg.spill3, align 8, !dbg !2226
  call void @llvm.dbg.declare(metadata i64*** %self.dbg.spill3, metadata !2227, metadata !DIExpression()), !dbg !2231
  store i64** %ptr, i64*** %self.dbg.spill4, align 8, !dbg !2231
  call void @llvm.dbg.declare(metadata i64*** %self.dbg.spill4, metadata !2232, metadata !DIExpression()), !dbg !2236
  %self5 = load i64*, i64** %ptr, align 8, !dbg !2236, !nonnull !14, !noundef !14
  store i64* %self5, i64** %self.dbg.spill6, align 8, !dbg !2236
  call void @llvm.dbg.declare(metadata i64** %self.dbg.spill6, metadata !2238, metadata !DIExpression()), !dbg !2242
  %_26 = bitcast i64* %self5 to [2 x [4 x i64]]*, !dbg !2242, !rawptr !740
  store i64 8, i64* %3, align 8, !dbg !2244
  %align = load i64, i64* %3, align 8, !dbg !2244
  store i64 %align, i64* %align.dbg.spill, align 8, !dbg !2244
  call void @llvm.dbg.declare(metadata i64* %align.dbg.spill, metadata !2170, metadata !DIExpression()), !dbg !2245
  br label %bb2, !dbg !2244

bb2:                                              ; preds = %bb1
  store i64 %size, i64* %size.dbg.spill7, align 8, !dbg !2246
  call void @llvm.dbg.declare(metadata i64* %size.dbg.spill7, metadata !2247, metadata !DIExpression()), !dbg !2252
  store i64 %align, i64* %align.dbg.spill8, align 8, !dbg !2254
  call void @llvm.dbg.declare(metadata i64* %align.dbg.spill8, metadata !2251, metadata !DIExpression()), !dbg !2252
  store i64 %align, i64* %align.dbg.spill9, align 8, !dbg !2252
  call void @llvm.dbg.declare(metadata i64* %align.dbg.spill9, metadata !2255, metadata !DIExpression()), !dbg !2259
  store i64 %align, i64* %2, align 8, !dbg !2259
  %_28 = load i64, i64* %2, align 8, !dbg !2259, !range !1387, !noundef !14
  br label %bb7, !dbg !2259

bb7:                                              ; preds = %bb2
  %5 = bitcast { i64, i64 }* %layout to i64*, !dbg !2252
  store i64 %size, i64* %5, align 8, !dbg !2252
  %6 = getelementptr inbounds { i64, i64 }, { i64, i64 }* %layout, i32 0, i32 1, !dbg !2252
  store i64 %_28, i64* %6, align 8, !dbg !2252
  %self10 = load i64*, i64** %ptr, align 8, !dbg !2197, !nonnull !14, !noundef !14
  store i64* %self10, i64** %self.dbg.spill11, align 8, !dbg !2197
  call void @llvm.dbg.declare(metadata i64** %self.dbg.spill11, metadata !2194, metadata !DIExpression()), !dbg !2261
  store i64* %self10, i64** %self.dbg.spill12, align 8, !dbg !2261
  call void @llvm.dbg.declare(metadata i64** %self.dbg.spill12, metadata !2262, metadata !DIExpression()), !dbg !2268
  store i64* %self10, i64** %self.dbg.spill13, align 8, !dbg !2268
  call void @llvm.dbg.declare(metadata i64** %self.dbg.spill13, metadata !2270, metadata !DIExpression()), !dbg !2274
  %_38 = bitcast i64* %self10 to [2 x [4 x i64]]*, !dbg !2274, !rawptr !740
  %ptr14 = bitcast [2 x [4 x i64]]* %_38 to i8*, !dbg !2268, !rawptr !740
  store i8* %ptr14, i8** %ptr.dbg.spill, align 8, !dbg !2268
  call void @llvm.dbg.declare(metadata i8** %ptr.dbg.spill, metadata !2276, metadata !DIExpression()), !dbg !2280
  store i8* %ptr14, i8** %pointer, align 8, !dbg !2280
  %_42 = load i8*, i8** %pointer, align 8, !dbg !2188, !nonnull !14, !noundef !14
  store i8* %_42, i8** %unique, align 8, !dbg !2188
  %self15 = load i8*, i8** %unique, align 8, !dbg !2182, !nonnull !14, !noundef !14, !rawptr !740
  store i8* %self15, i8** %self.dbg.spill16, align 8, !dbg !2182
  call void @llvm.dbg.declare(metadata i8** %self.dbg.spill16, metadata !2282, metadata !DIExpression()), !dbg !2286
  store i8* %self15, i8** %self.dbg.spill17, align 8, !dbg !2286
  call void @llvm.dbg.declare(metadata i8** %self.dbg.spill17, metadata !2288, metadata !DIExpression()), !dbg !2292
  store i8* %self15, i8** %ptr.dbg.spill18, align 8, !dbg !2292
  call void @llvm.dbg.declare(metadata i8** %ptr.dbg.spill18, metadata !2294, metadata !DIExpression()), !dbg !2298
  store i8* %self15, i8** %_15, align 8, !dbg !2298
  %7 = getelementptr inbounds { i64, i64 }, { i64, i64 }* %layout, i32 0, i32 0, !dbg !2300
  %_18.0 = load i64, i64* %7, align 8, !dbg !2300
  %8 = getelementptr inbounds { i64, i64 }, { i64, i64 }* %layout, i32 0, i32 1, !dbg !2300
  %_18.1 = load i64, i64* %8, align 8, !dbg !2300, !range !1387, !noundef !14
  %9 = load i8*, i8** %_15, align 8, !dbg !2301, !nonnull !14, !noundef !14
; invoke <alloc::alloc::Global as core::alloc::Allocator>::deallocate
  invoke void @"_ZN63_$LT$alloc..alloc..Global$u20$as$u20$core..alloc..Allocator$GT$10deallocate17h762d1b9930869697E"(%"alloc::alloc::Global"* align 1 %alloc, i8* %9, i64 %_18.0, i64 %_18.1)
          to label %bb3 unwind label %cleanup, !dbg !2301

bb5:                                              ; preds = %cleanup
  br label %bb6, !dbg !2302

cleanup:                                          ; preds = %bb7
  %10 = landingpad { i8*, i32 }
          cleanup
  %11 = extractvalue { i8*, i32 } %10, 0
  %12 = extractvalue { i8*, i32 } %10, 1
  %13 = getelementptr inbounds { i8*, i32 }, { i8*, i32 }* %1, i32 0, i32 0
  store i8* %11, i8** %13, align 8
  %14 = getelementptr inbounds { i8*, i32 }, { i8*, i32 }* %1, i32 0, i32 1
  store i32 %12, i32* %14, align 8
  br label %bb5

bb3:                                              ; preds = %bb7
  br label %bb4, !dbg !2302

bb6:                                              ; preds = %bb5
  %15 = bitcast { i8*, i32 }* %1 to i8**, !dbg !2303
  %16 = load i8*, i8** %15, align 8, !dbg !2303
  %17 = getelementptr inbounds { i8*, i32 }, { i8*, i32 }* %1, i32 0, i32 1, !dbg !2303
  %18 = load i32, i32* %17, align 8, !dbg !2303
  %19 = insertvalue { i8*, i32 } undef, i8* %16, 0, !dbg !2303
  %20 = insertvalue { i8*, i32 } %19, i32 %18, 1, !dbg !2303
  resume { i8*, i32 } %20, !dbg !2303

bb4:                                              ; preds = %bb3
  ret void, !dbg !2304
}

; alloc::boxed::Box<T>::from_raw
; Function Attrs: inlinehint nonlazybind uwtable
define align 8 [2 x [4 x i64]]* @"_ZN5alloc5boxed12Box$LT$T$GT$8from_raw17h0c67c011648bf991E"([2 x [4 x i64]]* %raw) unnamed_addr #0 !dbg !2305 {
start:
  %ptr.dbg.spill2 = alloca [2 x [4 x i64]]*, align 8
  %ptr.dbg.spill = alloca [2 x [4 x i64]]*, align 8
  %raw.dbg.spill1 = alloca [2 x [4 x i64]]*, align 8
  %alloc.dbg.spill = alloca %"alloc::alloc::Global", align 1
  %raw.dbg.spill = alloca [2 x [4 x i64]]*, align 8
  %_6 = alloca i64*, align 8
  %_4 = alloca i64*, align 8
  %0 = alloca [2 x [4 x i64]]*, align 8
  store [2 x [4 x i64]]* %raw, [2 x [4 x i64]]** %raw.dbg.spill, align 8
  call void @llvm.dbg.declare(metadata [2 x [4 x i64]]** %raw.dbg.spill, metadata !2312, metadata !DIExpression()), !dbg !2313
  call void @llvm.dbg.declare(metadata %"alloc::alloc::Global"* %alloc.dbg.spill, metadata !2314, metadata !DIExpression()), !dbg !2321
  store [2 x [4 x i64]]* %raw, [2 x [4 x i64]]** %raw.dbg.spill1, align 8, !dbg !2323
  call void @llvm.dbg.declare(metadata [2 x [4 x i64]]** %raw.dbg.spill1, metadata !2320, metadata !DIExpression()), !dbg !2321
  store [2 x [4 x i64]]* %raw, [2 x [4 x i64]]** %ptr.dbg.spill, align 8, !dbg !2321
  call void @llvm.dbg.declare(metadata [2 x [4 x i64]]** %ptr.dbg.spill, metadata !2324, metadata !DIExpression()), !dbg !2330
  store [2 x [4 x i64]]* %raw, [2 x [4 x i64]]** %ptr.dbg.spill2, align 8, !dbg !2330
  call void @llvm.dbg.declare(metadata [2 x [4 x i64]]** %ptr.dbg.spill2, metadata !2332, metadata !DIExpression()), !dbg !2338
  %1 = bitcast i64** %_6 to [2 x [4 x i64]]**, !dbg !2338, !rawptr !740
  store [2 x [4 x i64]]* %raw, [2 x [4 x i64]]** %1, align 8, !dbg !2338
  %2 = load i64*, i64** %_6, align 8, !dbg !2330, !nonnull !14, !noundef !14
  store i64* %2, i64** %_4, align 8, !dbg !2330
  %3 = bitcast [2 x [4 x i64]]** %0 to i64**, !dbg !2321
  %4 = load i64*, i64** %_4, align 8, !dbg !2321, !nonnull !14, !noundef !14
  store i64* %4, i64** %3, align 8, !dbg !2321
  %5 = load [2 x [4 x i64]]*, [2 x [4 x i64]]** %0, align 8, !dbg !2340, !nonnull !14, !align !303, !noundef !14
  ret [2 x [4 x i64]]* %5, !dbg !2340
}

; alloc::boxed::Box<T>::from_raw
; Function Attrs: inlinehint nonlazybind uwtable
define align 8 { {}*, [3 x i64]* }* @"_ZN5alloc5boxed12Box$LT$T$GT$8from_raw17h91ef33f4c80e7533E"({ {}*, [3 x i64]* }* %raw) unnamed_addr #0 !dbg !2341 {
start:
  %ptr.dbg.spill2 = alloca { {}*, [3 x i64]* }*, align 8
  %ptr.dbg.spill = alloca { {}*, [3 x i64]* }*, align 8
  %raw.dbg.spill1 = alloca { {}*, [3 x i64]* }*, align 8
  %alloc.dbg.spill = alloca %"alloc::alloc::Global", align 1
  %raw.dbg.spill = alloca { {}*, [3 x i64]* }*, align 8
  %_6 = alloca i64*, align 8
  %_4 = alloca i64*, align 8
  %0 = alloca { {}*, [3 x i64]* }*, align 8
  store { {}*, [3 x i64]* }* %raw, { {}*, [3 x i64]* }** %raw.dbg.spill, align 8
  call void @llvm.dbg.declare(metadata { {}*, [3 x i64]* }** %raw.dbg.spill, metadata !2345, metadata !DIExpression()), !dbg !2346
  call void @llvm.dbg.declare(metadata %"alloc::alloc::Global"* %alloc.dbg.spill, metadata !2347, metadata !DIExpression()), !dbg !2353
  store { {}*, [3 x i64]* }* %raw, { {}*, [3 x i64]* }** %raw.dbg.spill1, align 8, !dbg !2355
  call void @llvm.dbg.declare(metadata { {}*, [3 x i64]* }** %raw.dbg.spill1, metadata !2352, metadata !DIExpression()), !dbg !2353
  store { {}*, [3 x i64]* }* %raw, { {}*, [3 x i64]* }** %ptr.dbg.spill, align 8, !dbg !2353
  call void @llvm.dbg.declare(metadata { {}*, [3 x i64]* }** %ptr.dbg.spill, metadata !2356, metadata !DIExpression()), !dbg !2362
  store { {}*, [3 x i64]* }* %raw, { {}*, [3 x i64]* }** %ptr.dbg.spill2, align 8, !dbg !2362
  call void @llvm.dbg.declare(metadata { {}*, [3 x i64]* }** %ptr.dbg.spill2, metadata !2364, metadata !DIExpression()), !dbg !2370
  %1 = bitcast i64** %_6 to { {}*, [3 x i64]* }**, !dbg !2370, !rawptr !740
  store { {}*, [3 x i64]* }* %raw, { {}*, [3 x i64]* }** %1, align 8, !dbg !2370
  %2 = load i64*, i64** %_6, align 8, !dbg !2362, !nonnull !14, !noundef !14
  store i64* %2, i64** %_4, align 8, !dbg !2362
  %3 = bitcast { {}*, [3 x i64]* }** %0 to i64**, !dbg !2353
  %4 = load i64*, i64** %_4, align 8, !dbg !2353, !nonnull !14, !noundef !14
  store i64* %4, i64** %3, align 8, !dbg !2353
  %5 = load { {}*, [3 x i64]* }*, { {}*, [3 x i64]* }** %0, align 8, !dbg !2372, !nonnull !14, !align !303, !noundef !14
  ret { {}*, [3 x i64]* }* %5, !dbg !2372
}

; alloc::boxed::Box<T,A>::into_unique
; Function Attrs: inlinehint nonlazybind uwtable
define i64* @"_ZN5alloc5boxed16Box$LT$T$C$A$GT$11into_unique17h8a44426a5b6feceaE"([2 x [4 x i64]]* align 8 %0) unnamed_addr #0 personality i32 (...)* @rust_eh_personality !dbg !2373 {
start:
  %reference.dbg.spill2 = alloca [2 x [4 x i64]]*, align 8
  %reference.dbg.spill = alloca [2 x [4 x i64]]*, align 8
  %1 = alloca { i8*, i32 }, align 8
  %self.dbg.spill1 = alloca %"core::mem::maybe_uninit::MaybeUninit<alloc::alloc::Global>"*, align 8
  %src.dbg.spill = alloca %"alloc::alloc::Global"*, align 8
  %slot.dbg.spill = alloca %"core::mem::manually_drop::ManuallyDrop<alloc::alloc::Global>", align 1
  %self.dbg.spill = alloca %"core::mem::maybe_uninit::MaybeUninit<alloc::alloc::Global>", align 1
  %alloc.dbg.spill = alloca %"alloc::alloc::Global", align 1
  %pointer = alloca i64*, align 8
  %tmp = alloca %"core::mem::maybe_uninit::MaybeUninit<alloc::alloc::Global>", align 1, !rawptr !740
  %_9 = alloca i8, align 1
  %_5 = alloca i64*, align 8
  %2 = alloca i64*, align 8
  %b = alloca [2 x [4 x i64]]*, align 8
  store [2 x [4 x i64]]* %0, [2 x [4 x i64]]** %b, align 8
  call void @llvm.dbg.declare(metadata [2 x [4 x i64]]** %b, metadata !2381, metadata !DIExpression()), !dbg !2384
  call void @llvm.dbg.declare(metadata %"alloc::alloc::Global"* %alloc.dbg.spill, metadata !2382, metadata !DIExpression()), !dbg !2385
  call void @llvm.dbg.declare(metadata %"core::mem::maybe_uninit::MaybeUninit<alloc::alloc::Global>"* %tmp, metadata !2386, metadata !DIExpression()), !dbg !2407
  call void @llvm.dbg.declare(metadata %"core::mem::maybe_uninit::MaybeUninit<alloc::alloc::Global>"* %self.dbg.spill, metadata !2409, metadata !DIExpression()), !dbg !2416
  call void @llvm.dbg.declare(metadata %"core::mem::manually_drop::ManuallyDrop<alloc::alloc::Global>"* %slot.dbg.spill, metadata !2418, metadata !DIExpression()), !dbg !2425
  call void @llvm.dbg.declare(metadata i64** %pointer, metadata !2427, metadata !DIExpression()), !dbg !2433
  store i8 1, i8* %_9, align 1, !dbg !2444
  %_4 = bitcast [2 x [4 x i64]]** %b to %"alloc::alloc::Global"*, !dbg !2445, !rawptr !740
  store %"alloc::alloc::Global"* %_4, %"alloc::alloc::Global"** %src.dbg.spill, align 8, !dbg !2445
  call void @llvm.dbg.declare(metadata %"alloc::alloc::Global"** %src.dbg.spill, metadata !2394, metadata !DIExpression()), !dbg !2446
  %3 = bitcast %"core::mem::maybe_uninit::MaybeUninit<alloc::alloc::Global>"* %tmp to {}*, !dbg !2447
  store %"core::mem::maybe_uninit::MaybeUninit<alloc::alloc::Global>"* %tmp, %"core::mem::maybe_uninit::MaybeUninit<alloc::alloc::Global>"** %self.dbg.spill1, align 8, !dbg !2407
  call void @llvm.dbg.declare(metadata %"core::mem::maybe_uninit::MaybeUninit<alloc::alloc::Global>"** %self.dbg.spill1, metadata !2453, metadata !DIExpression()), !dbg !2461
  %_12 = bitcast %"core::mem::maybe_uninit::MaybeUninit<alloc::alloc::Global>"* %tmp to %"alloc::alloc::Global"*, !dbg !2461, !rawptr !740
  %4 = bitcast %"alloc::alloc::Global"* %_12 to i8*, !dbg !2407
  %5 = bitcast %"alloc::alloc::Global"* %_4 to i8*, !dbg !2407
  call void @llvm.memcpy.p0i8.p0i8.i64(i8* align 1 %4, i8* align 1 %5, i64 0, i1 false), !dbg !2407
  br label %bb6, !dbg !2416

bb6:                                              ; preds = %start
  store i8 0, i8* %_9, align 1, !dbg !2463
  %_7 = load [2 x [4 x i64]]*, [2 x [4 x i64]]** %b, align 8, !dbg !2463, !nonnull !14, !align !303, !noundef !14
; invoke alloc::boxed::Box<T,A>::leak
  %reference = invoke align 8 [2 x [4 x i64]]* @"_ZN5alloc5boxed16Box$LT$T$C$A$GT$4leak17hbea7e840de8db578E"([2 x [4 x i64]]* align 8 %_7)
          to label %bb1 unwind label %cleanup, !dbg !2464, !rawptr !740

bb2:                                              ; preds = %cleanup
  br label %bb5, !dbg !2465

cleanup:                                          ; preds = %bb6
  %6 = landingpad { i8*, i32 }
          cleanup
  %7 = extractvalue { i8*, i32 } %6, 0
  %8 = extractvalue { i8*, i32 } %6, 1
  %9 = getelementptr inbounds { i8*, i32 }, { i8*, i32 }* %1, i32 0, i32 0
  store i8* %7, i8** %9, align 8
  %10 = getelementptr inbounds { i8*, i32 }, { i8*, i32 }* %1, i32 0, i32 1
  store i32 %8, i32* %10, align 8
  br label %bb2

bb1:                                              ; preds = %bb6
  store [2 x [4 x i64]]* %reference, [2 x [4 x i64]]** %reference.dbg.spill, align 8, !dbg !2464
  call void @llvm.dbg.declare(metadata [2 x [4 x i64]]** %reference.dbg.spill, metadata !2441, metadata !DIExpression()), !dbg !2466
  store [2 x [4 x i64]]* %reference, [2 x [4 x i64]]** %reference.dbg.spill2, align 8, !dbg !2466
  call void @llvm.dbg.declare(metadata [2 x [4 x i64]]** %reference.dbg.spill2, metadata !2467, metadata !DIExpression()), !dbg !2474
  %11 = bitcast i64** %pointer to [2 x [4 x i64]]**, !dbg !2474, !rawptr !740
  store [2 x [4 x i64]]* %reference, [2 x [4 x i64]]** %11, align 8, !dbg !2474
  %_24 = load i64*, i64** %pointer, align 8, !dbg !2433, !nonnull !14, !noundef !14
  store i64* %_24, i64** %_5, align 8, !dbg !2433
  %12 = load i64*, i64** %_5, align 8, !dbg !2476, !nonnull !14, !noundef !14
  store i64* %12, i64** %2, align 8, !dbg !2476
  %13 = bitcast i64** %2 to i8*, !dbg !2476
  %14 = getelementptr i8, i8* %13, i64 8, !dbg !2476
  %15 = bitcast i8* %14 to %"alloc::alloc::Global"*, !dbg !2476
  %16 = load i64*, i64** %2, align 8, !dbg !2477, !nonnull !14, !noundef !14
  ret i64* %16, !dbg !2477

bb5:                                              ; preds = %bb2
  %17 = load i8, i8* %_9, align 1, !dbg !2465, !range !499, !noundef !14
  %18 = trunc i8 %17 to i1, !dbg !2465
  br i1 %18, label %bb4, label %bb3, !dbg !2465

bb3:                                              ; preds = %bb4, %bb5
  %19 = bitcast { i8*, i32 }* %1 to i8**, !dbg !2478
  %20 = load i8*, i8** %19, align 8, !dbg !2478
  %21 = getelementptr inbounds { i8*, i32 }, { i8*, i32 }* %1, i32 0, i32 1, !dbg !2478
  %22 = load i32, i32* %21, align 8, !dbg !2478
  %23 = insertvalue { i8*, i32 } undef, i8* %20, 0, !dbg !2478
  %24 = insertvalue { i8*, i32 } %23, i32 %22, 1, !dbg !2478
  resume { i8*, i32 } %24, !dbg !2478

bb4:                                              ; preds = %bb5
; invoke core::ptr::drop_in_place<alloc::boxed::Box<[[u64; 4]; 2]>>
  invoke void @"_ZN4core3ptr91drop_in_place$LT$alloc..boxed..Box$LT$$u5b$$u5b$u64$u3b$$u20$4$u5d$$u3b$$u20$2$u5d$$GT$$GT$17h42fe0c9e41057eb8E"([2 x [4 x i64]]** %b) #14
          to label %bb3 unwind label %abort, !dbg !2465

abort:                                            ; preds = %bb4
  %25 = landingpad { i8*, i32 }
          cleanup, !dbg !2478
; call core::panicking::panic_no_unwind
  call void @_ZN4core9panicking15panic_no_unwind17h57180e694165966aE() #15, !dbg !2478
  unreachable, !dbg !2478
}

; alloc::boxed::Box<T,A>::into_raw_with_allocator
; Function Attrs: inlinehint nonlazybind uwtable
define i64* @"_ZN5alloc5boxed16Box$LT$T$C$A$GT$23into_raw_with_allocator17hdb665690494e1296E"([2 x [4 x i64]]* align 8 %b) unnamed_addr #0 !dbg !2479 {
start:
  %self.dbg.spill1 = alloca i64*, align 8
  %self.dbg.spill = alloca i64*, align 8
  %leaked.dbg.spill = alloca i64*, align 8
  %alloc.dbg.spill = alloca %"alloc::alloc::Global", align 1
  %b.dbg.spill = alloca [2 x [4 x i64]]*, align 8
  %0 = alloca i64*, align 8
  store [2 x [4 x i64]]* %b, [2 x [4 x i64]]** %b.dbg.spill, align 8
  call void @llvm.dbg.declare(metadata [2 x [4 x i64]]** %b.dbg.spill, metadata !2487, metadata !DIExpression()), !dbg !2491
  call void @llvm.dbg.declare(metadata %"alloc::alloc::Global"* %alloc.dbg.spill, metadata !2490, metadata !DIExpression()), !dbg !2492
; call alloc::boxed::Box<T,A>::into_unique
  %_4 = call i64* @"_ZN5alloc5boxed16Box$LT$T$C$A$GT$11into_unique17h8a44426a5b6feceaE"([2 x [4 x i64]]* align 8 %b), !dbg !2493
  br label %bb1, !dbg !2493

bb1:                                              ; preds = %start
  store i64* %_4, i64** %leaked.dbg.spill, align 8, !dbg !2494
  call void @llvm.dbg.declare(metadata i64** %leaked.dbg.spill, metadata !2488, metadata !DIExpression()), !dbg !2495
  store i64* %_4, i64** %self.dbg.spill, align 8, !dbg !2496
  call void @llvm.dbg.declare(metadata i64** %self.dbg.spill, metadata !2497, metadata !DIExpression()), !dbg !2503
  store i64* %_4, i64** %self.dbg.spill1, align 8, !dbg !2503
  call void @llvm.dbg.declare(metadata i64** %self.dbg.spill1, metadata !2504, metadata !DIExpression()), !dbg !2508
  %_10 = bitcast i64* %_4 to [2 x [4 x i64]]*, !dbg !2508, !rawptr !740
  %1 = bitcast i64** %0 to [2 x [4 x i64]]**, !dbg !2510, !rawptr !740
  store [2 x [4 x i64]]* %_10, [2 x [4 x i64]]** %1, align 8, !dbg !2510
  %2 = bitcast i64** %0 to i8*, !dbg !2510
  %3 = getelementptr i8, i8* %2, i64 8, !dbg !2510
  %4 = bitcast i8* %3 to %"alloc::alloc::Global"*, !dbg !2510
  %5 = load i64*, i64** %0, align 8, !dbg !2511
  ret i64* %5, !dbg !2511
}

; alloc::boxed::Box<T,A>::leak
; Function Attrs: inlinehint nonlazybind uwtable
define align 8 [2 x [4 x i64]]* @"_ZN5alloc5boxed16Box$LT$T$C$A$GT$4leak17hbea7e840de8db578E"([2 x [4 x i64]]* align 8 %b) unnamed_addr #0 !dbg !2512 {
start:
  %self.dbg.spill2 = alloca i64*, align 8
  %self.dbg.spill1 = alloca i64*, align 8
  %self.dbg.spill = alloca i64**, align 8
  %value.dbg.spill = alloca [2 x [4 x i64]]*, align 8
  %b.dbg.spill = alloca [2 x [4 x i64]]*, align 8
  %_9 = alloca i64*, align 8
  store [2 x [4 x i64]]* %b, [2 x [4 x i64]]** %b.dbg.spill, align 8
  call void @llvm.dbg.declare(metadata [2 x [4 x i64]]** %b.dbg.spill, metadata !2516, metadata !DIExpression()), !dbg !2517
  store [2 x [4 x i64]]* %b, [2 x [4 x i64]]** %value.dbg.spill, align 8, !dbg !2518
  call void @llvm.dbg.declare(metadata [2 x [4 x i64]]** %value.dbg.spill, metadata !2519, metadata !DIExpression()), !dbg !2528
  %0 = bitcast i64** %_9 to [2 x [4 x i64]]**, !dbg !2528
  store [2 x [4 x i64]]* %b, [2 x [4 x i64]]** %0, align 8, !dbg !2528
  store i64** %_9, i64*** %self.dbg.spill, align 8, !dbg !2529
  call void @llvm.dbg.declare(metadata i64*** %self.dbg.spill, metadata !2530, metadata !DIExpression()), !dbg !2539
  %_7 = bitcast i64** %_9 to [2 x [4 x i64]]**, !dbg !2539
  %1 = bitcast [2 x [4 x i64]]** %_7 to i64**, !dbg !2529
  %self = load i64*, i64** %1, align 8, !dbg !2529, !nonnull !14, !noundef !14
  store i64* %self, i64** %self.dbg.spill1, align 8, !dbg !2529
  call void @llvm.dbg.declare(metadata i64** %self.dbg.spill1, metadata !2540, metadata !DIExpression()), !dbg !2544
  store i64* %self, i64** %self.dbg.spill2, align 8, !dbg !2544
  call void @llvm.dbg.declare(metadata i64** %self.dbg.spill2, metadata !2545, metadata !DIExpression()), !dbg !2549
  %_13 = bitcast i64* %self to [2 x [4 x i64]]*, !dbg !2549, !rawptr !740
  ret [2 x [4 x i64]]* %_13, !dbg !2551
}

; alloc::boxed::Box<T,A>::into_raw
; Function Attrs: inlinehint nonlazybind uwtable
define [2 x [4 x i64]]* @"_ZN5alloc5boxed16Box$LT$T$C$A$GT$8into_raw17h92bf4ab6cd2e0cd0E"([2 x [4 x i64]]* align 8 %b) unnamed_addr #0 !dbg !2552 {
start:
  %b.dbg.spill = alloca [2 x [4 x i64]]*, align 8
  store [2 x [4 x i64]]* %b, [2 x [4 x i64]]** %b.dbg.spill, align 8
  call void @llvm.dbg.declare(metadata [2 x [4 x i64]]** %b.dbg.spill, metadata !2556, metadata !DIExpression()), !dbg !2557
; call alloc::boxed::Box<T,A>::into_raw_with_allocator
  %_2 = call i64* @"_ZN5alloc5boxed16Box$LT$T$C$A$GT$23into_raw_with_allocator17hdb665690494e1296E"([2 x [4 x i64]]* align 8 %b), !dbg !2558
  br label %bb1, !dbg !2558

bb1:                                              ; preds = %start
  %0 = bitcast i64* %_2 to [2 x [4 x i64]]*, !dbg !2558, !rawptr !740
  br label %bb2, !dbg !2559

bb2:                                              ; preds = %bb1
  ret [2 x [4 x i64]]* %0, !dbg !2560
}

; <I as core::iter::traits::collect::IntoIterator>::into_iter
; Function Attrs: inlinehint nonlazybind uwtable
define { i64*, i64* } @"_ZN63_$LT$I$u20$as$u20$core..iter..traits..collect..IntoIterator$GT$9into_iter17h38af631aa6126880E"(i64* %self.0, i64* %self.1) unnamed_addr #0 !dbg !2561 {
start:
  %self.dbg.spill = alloca { i64*, i64* }, align 8
  %0 = getelementptr inbounds { i64*, i64* }, { i64*, i64* }* %self.dbg.spill, i32 0, i32 0
  store i64* %self.0, i64** %0, align 8
  %1 = getelementptr inbounds { i64*, i64* }, { i64*, i64* }* %self.dbg.spill, i32 0, i32 1
  store i64* %self.1, i64** %1, align 8
  call void @llvm.dbg.declare(metadata { i64*, i64* }* %self.dbg.spill, metadata !2570, metadata !DIExpression()), !dbg !2572
  %2 = insertvalue { i64*, i64* } undef, i64* %self.0, 0, !dbg !2573
  %3 = insertvalue { i64*, i64* } %2, i64* %self.1, 1, !dbg !2573
  ret { i64*, i64* } %3, !dbg !2573
}

; <alloc::alloc::Global as core::alloc::Allocator>::deallocate
; Function Attrs: inlinehint nonlazybind uwtable
define internal void @"_ZN63_$LT$alloc..alloc..Global$u20$as$u20$core..alloc..Allocator$GT$10deallocate17h762d1b9930869697E"(%"alloc::alloc::Global"* align 1 %self, i8* %ptr, i64 %0, i64 %1) unnamed_addr #0 !dbg !2574 {
start:
  %n.dbg.spill = alloca i64, align 8
  %self.dbg.spill8 = alloca { i64, i64 }*, align 8
  %self.dbg.spill7 = alloca { i64, i64 }*, align 8
  %ptr.dbg.spill6 = alloca i8*, align 8
  %self.dbg.spill5 = alloca i8*, align 8
  %self.dbg.spill4 = alloca { i64, i64 }*, align 8
  %ptr.dbg.spill = alloca i8*, align 8
  %self.dbg.spill = alloca %"alloc::alloc::Global"*, align 8
  %self3 = alloca i64, align 8
  %self2 = alloca i64, align 8
  %layout1 = alloca { i64, i64 }, align 8
  %layout = alloca { i64, i64 }, align 8
  %2 = getelementptr inbounds { i64, i64 }, { i64, i64 }* %layout, i32 0, i32 0
  store i64 %0, i64* %2, align 8
  %3 = getelementptr inbounds { i64, i64 }, { i64, i64 }* %layout, i32 0, i32 1
  store i64 %1, i64* %3, align 8
  store %"alloc::alloc::Global"* %self, %"alloc::alloc::Global"** %self.dbg.spill, align 8
  call void @llvm.dbg.declare(metadata %"alloc::alloc::Global"** %self.dbg.spill, metadata !2578, metadata !DIExpression()), !dbg !2581
  store i8* %ptr, i8** %ptr.dbg.spill, align 8
  call void @llvm.dbg.declare(metadata i8** %ptr.dbg.spill, metadata !2579, metadata !DIExpression()), !dbg !2582
  call void @llvm.dbg.declare(metadata { i64, i64 }* %layout, metadata !2580, metadata !DIExpression()), !dbg !2583
  call void @llvm.dbg.declare(metadata { i64, i64 }* %layout1, metadata !2584, metadata !DIExpression()), !dbg !2590
  call void @llvm.dbg.declare(metadata i64* %self2, metadata !2592, metadata !DIExpression()), !dbg !2596
  call void @llvm.dbg.declare(metadata i64* %self3, metadata !2603, metadata !DIExpression()), !dbg !2607
  store { i64, i64 }* %layout, { i64, i64 }** %self.dbg.spill4, align 8, !dbg !2608
  call void @llvm.dbg.declare(metadata { i64, i64 }** %self.dbg.spill4, metadata !2609, metadata !DIExpression()), !dbg !2613
  %4 = bitcast { i64, i64 }* %layout to i64*, !dbg !2613
  %_4 = load i64, i64* %4, align 8, !dbg !2613
  %5 = icmp eq i64 %_4, 0, !dbg !2608
  br i1 %5, label %bb2, label %bb1, !dbg !2608

bb2:                                              ; preds = %start
  br label %bb3, !dbg !2614

bb1:                                              ; preds = %start
  store i8* %ptr, i8** %self.dbg.spill5, align 8, !dbg !2615
  call void @llvm.dbg.declare(metadata i8** %self.dbg.spill5, metadata !2616, metadata !DIExpression()), !dbg !2620
  store i8* %ptr, i8** %ptr.dbg.spill6, align 8, !dbg !2620
  call void @llvm.dbg.declare(metadata i8** %ptr.dbg.spill6, metadata !2589, metadata !DIExpression()), !dbg !2590
  %6 = getelementptr inbounds { i64, i64 }, { i64, i64 }* %layout, i32 0, i32 0, !dbg !2621
  %7 = load i64, i64* %6, align 8, !dbg !2621
  %8 = getelementptr inbounds { i64, i64 }, { i64, i64 }* %layout, i32 0, i32 1, !dbg !2621
  %9 = load i64, i64* %8, align 8, !dbg !2621, !range !1387, !noundef !14
  %10 = getelementptr inbounds { i64, i64 }, { i64, i64 }* %layout1, i32 0, i32 0, !dbg !2621
  store i64 %7, i64* %10, align 8, !dbg !2621
  %11 = getelementptr inbounds { i64, i64 }, { i64, i64 }* %layout1, i32 0, i32 1, !dbg !2621
  store i64 %9, i64* %11, align 8, !dbg !2621
  store { i64, i64 }* %layout1, { i64, i64 }** %self.dbg.spill7, align 8, !dbg !2590
  call void @llvm.dbg.declare(metadata { i64, i64 }** %self.dbg.spill7, metadata !2622, metadata !DIExpression()), !dbg !2626
  %12 = bitcast { i64, i64 }* %layout1 to i64*, !dbg !2626
  %_11 = load i64, i64* %12, align 8, !dbg !2626
  store { i64, i64 }* %layout1, { i64, i64 }** %self.dbg.spill8, align 8, !dbg !2590
  call void @llvm.dbg.declare(metadata { i64, i64 }** %self.dbg.spill8, metadata !2600, metadata !DIExpression()), !dbg !2628
  %13 = getelementptr inbounds { i64, i64 }, { i64, i64 }* %layout1, i32 0, i32 1, !dbg !2628
  %14 = load i64, i64* %13, align 8, !dbg !2628, !range !1387, !noundef !14
  store i64 %14, i64* %self3, align 8, !dbg !2628
  %_18 = load i64, i64* %self3, align 8, !dbg !2607, !range !1387, !noundef !14
  store i64 %_18, i64* %n.dbg.spill, align 8, !dbg !2607
  call void @llvm.dbg.declare(metadata i64* %n.dbg.spill, metadata !2629, metadata !DIExpression()), !dbg !2636
  store i64 %_18, i64* %self2, align 8, !dbg !2636
  %_13 = load i64, i64* %self2, align 8, !dbg !2596
  call void @__rust_dealloc(i8* %ptr, i64 %_11, i64 %_13) #16, !dbg !2590
  br label %bb4, !dbg !2590

bb4:                                              ; preds = %bb1
  br label %bb3, !dbg !2614

bb3:                                              ; preds = %bb2, %bb4
  ret void, !dbg !2638
}

; <core::result::Result<T,E> as core::ops::try_trait::Try>::branch
; Function Attrs: inlinehint nonlazybind uwtable
define void @"_ZN79_$LT$core..result..Result$LT$T$C$E$GT$$u20$as$u20$core..ops..try_trait..Try$GT$6branch17h163706a8698851f6E"(%"core::ops::control_flow::ControlFlow<core::result::Result<core::convert::Infallible, getrandom::error::Error>, &mut [u8]>"* sret(%"core::ops::control_flow::ControlFlow<core::result::Result<core::convert::Infallible, getrandom::error::Error>, &mut [u8]>") %0, %"core::result::Result<&mut [u8], getrandom::error::Error>"* %self) unnamed_addr #0 !dbg !2639 {
start:
  %v.dbg.spill = alloca { [0 x i8]*, i64 }, align 8
  %e.dbg.spill = alloca i32, align 4
  %_6 = alloca i32, align 4
  call void @llvm.dbg.declare(metadata %"core::result::Result<&mut [u8], getrandom::error::Error>"* %self, metadata !2659, metadata !DIExpression()), !dbg !2664
  %1 = bitcast %"core::result::Result<&mut [u8], getrandom::error::Error>"* %self to i32*, !dbg !2665
  %2 = load i32, i32* %1, align 8, !dbg !2665, !range !2666, !noundef !14
  %_2 = zext i32 %2 to i64, !dbg !2665
  switch i64 %_2, label %bb2 [
    i64 0, label %bb3
    i64 1, label %bb1
  ], !dbg !2667

bb2:                                              ; preds = %start
  unreachable, !dbg !2665

bb3:                                              ; preds = %start
  %3 = bitcast %"core::result::Result<&mut [u8], getrandom::error::Error>"* %self to %"core::result::Result<&mut [u8], getrandom::error::Error>::Ok"*, !dbg !2668
  %4 = getelementptr inbounds %"core::result::Result<&mut [u8], getrandom::error::Error>::Ok", %"core::result::Result<&mut [u8], getrandom::error::Error>::Ok"* %3, i32 0, i32 1, !dbg !2668
  %5 = getelementptr inbounds { [0 x i8]*, i64 }, { [0 x i8]*, i64 }* %4, i32 0, i32 0, !dbg !2668
  %v.0 = load [0 x i8]*, [0 x i8]** %5, align 8, !dbg !2668, !nonnull !14, !align !2669, !noundef !14
  %6 = getelementptr inbounds { [0 x i8]*, i64 }, { [0 x i8]*, i64 }* %4, i32 0, i32 1, !dbg !2668
  %v.1 = load i64, i64* %6, align 8, !dbg !2668
  %7 = getelementptr inbounds { [0 x i8]*, i64 }, { [0 x i8]*, i64 }* %v.dbg.spill, i32 0, i32 0, !dbg !2668
  store [0 x i8]* %v.0, [0 x i8]** %7, align 8, !dbg !2668
  %8 = getelementptr inbounds { [0 x i8]*, i64 }, { [0 x i8]*, i64 }* %v.dbg.spill, i32 0, i32 1, !dbg !2668
  store i64 %v.1, i64* %8, align 8, !dbg !2668
  call void @llvm.dbg.declare(metadata { [0 x i8]*, i64 }* %v.dbg.spill, metadata !2660, metadata !DIExpression()), !dbg !2670
  %9 = bitcast %"core::ops::control_flow::ControlFlow<core::result::Result<core::convert::Infallible, getrandom::error::Error>, &mut [u8]>"* %0 to %"core::ops::control_flow::ControlFlow<core::result::Result<core::convert::Infallible, getrandom::error::Error>, &mut [u8]>::Continue"*, !dbg !2671
  %10 = getelementptr inbounds %"core::ops::control_flow::ControlFlow<core::result::Result<core::convert::Infallible, getrandom::error::Error>, &mut [u8]>::Continue", %"core::ops::control_flow::ControlFlow<core::result::Result<core::convert::Infallible, getrandom::error::Error>, &mut [u8]>::Continue"* %9, i32 0, i32 1, !dbg !2671
  %11 = getelementptr inbounds { [0 x i8]*, i64 }, { [0 x i8]*, i64 }* %10, i32 0, i32 0, !dbg !2671
  store [0 x i8]* %v.0, [0 x i8]** %11, align 8, !dbg !2671
  %12 = getelementptr inbounds { [0 x i8]*, i64 }, { [0 x i8]*, i64 }* %10, i32 0, i32 1, !dbg !2671
  store i64 %v.1, i64* %12, align 8, !dbg !2671
  %13 = bitcast %"core::ops::control_flow::ControlFlow<core::result::Result<core::convert::Infallible, getrandom::error::Error>, &mut [u8]>"* %0 to i32*, !dbg !2671
  store i32 0, i32* %13, align 8, !dbg !2671
  br label %bb4, !dbg !2672

bb1:                                              ; preds = %start
  %14 = bitcast %"core::result::Result<&mut [u8], getrandom::error::Error>"* %self to %"core::result::Result<&mut [u8], getrandom::error::Error>::Err"*, !dbg !2673
  %15 = getelementptr inbounds %"core::result::Result<&mut [u8], getrandom::error::Error>::Err", %"core::result::Result<&mut [u8], getrandom::error::Error>::Err"* %14, i32 0, i32 1, !dbg !2673
  %e = load i32, i32* %15, align 4, !dbg !2673, !range !348, !noundef !14
  store i32 %e, i32* %e.dbg.spill, align 4, !dbg !2673
  call void @llvm.dbg.declare(metadata i32* %e.dbg.spill, metadata !2662, metadata !DIExpression()), !dbg !2674
  store i32 %e, i32* %_6, align 4, !dbg !2675
  %16 = bitcast %"core::ops::control_flow::ControlFlow<core::result::Result<core::convert::Infallible, getrandom::error::Error>, &mut [u8]>"* %0 to %"core::ops::control_flow::ControlFlow<core::result::Result<core::convert::Infallible, getrandom::error::Error>, &mut [u8]>::Break"*, !dbg !2676
  %17 = getelementptr inbounds %"core::ops::control_flow::ControlFlow<core::result::Result<core::convert::Infallible, getrandom::error::Error>, &mut [u8]>::Break", %"core::ops::control_flow::ControlFlow<core::result::Result<core::convert::Infallible, getrandom::error::Error>, &mut [u8]>::Break"* %16, i32 0, i32 1, !dbg !2676
  %18 = load i32, i32* %_6, align 4, !dbg !2676, !range !348, !noundef !14
  store i32 %18, i32* %17, align 4, !dbg !2676
  %19 = bitcast %"core::ops::control_flow::ControlFlow<core::result::Result<core::convert::Infallible, getrandom::error::Error>, &mut [u8]>"* %0 to i32*, !dbg !2676
  store i32 1, i32* %19, align 8, !dbg !2676
  br label %bb4, !dbg !2677

bb4:                                              ; preds = %bb3, %bb1
  ret void, !dbg !2678
}

; <core::result::Result<T,E> as core::ops::try_trait::Try>::branch
; Function Attrs: inlinehint nonlazybind uwtable
define align 8 i64* @"_ZN79_$LT$core..result..Result$LT$T$C$E$GT$$u20$as$u20$core..ops..try_trait..Try$GT$6branch17hfab63f2459208254E"(i64* align 8 %0) unnamed_addr #0 !dbg !2679 {
start:
  %v.dbg.spill = alloca [2 x [4 x i64]]*, align 8
  %e.dbg.spill = alloca %"once_cell::race::once_box::OnceBox<T>::get_or_init::Void", align 1
  %_6 = alloca %"core::result::Result<core::convert::Infallible, once_cell::race::once_box::OnceBox<T>::get_or_init::Void>::Ok", align 1
  %1 = alloca i64*, align 8
  %self = alloca i64*, align 8
  store i64* %0, i64** %self, align 8
  call void @llvm.dbg.declare(metadata i64** %self, metadata !2711, metadata !DIExpression()), !dbg !2716
  call void @llvm.dbg.declare(metadata %"once_cell::race::once_box::OnceBox<T>::get_or_init::Void"* %e.dbg.spill, metadata !2714, metadata !DIExpression()), !dbg !2717
  switch i64 0, label %bb2 [
    i64 0, label %bb3
    i64 1, label %bb1
  ], !dbg !2718

bb2:                                              ; preds = %start
  unreachable, !dbg !2719

bb3:                                              ; preds = %start
  %2 = bitcast i64** %self to [2 x [4 x i64]]**, !dbg !2720
  %v = load [2 x [4 x i64]]*, [2 x [4 x i64]]** %2, align 8, !dbg !2720, !nonnull !14, !align !303, !noundef !14
  store [2 x [4 x i64]]* %v, [2 x [4 x i64]]** %v.dbg.spill, align 8, !dbg !2720
  call void @llvm.dbg.declare(metadata [2 x [4 x i64]]** %v.dbg.spill, metadata !2712, metadata !DIExpression()), !dbg !2721
  %3 = bitcast i64** %1 to [2 x [4 x i64]]**, !dbg !2722
  store [2 x [4 x i64]]* %v, [2 x [4 x i64]]** %3, align 8, !dbg !2722
  br label %bb4, !dbg !2723

bb1:                                              ; preds = %start
  %4 = bitcast %"core::result::Result<core::convert::Infallible, once_cell::race::once_box::OnceBox<T>::get_or_init::Void>::Ok"* %_6 to %"core::result::Result<core::convert::Infallible, once_cell::race::once_box::OnceBox<T>::get_or_init::Void>::Err"*, !dbg !2724
  %5 = bitcast %"core::result::Result<core::convert::Infallible, once_cell::race::once_box::OnceBox<T>::get_or_init::Void>::Err"* %4 to %"once_cell::race::once_box::OnceBox<T>::get_or_init::Void"*, !dbg !2724
  call void @llvm.trap(), !dbg !2724
  %6 = bitcast i64** %1 to %"core::ops::control_flow::ControlFlow<core::result::Result<core::convert::Infallible, once_cell::race::once_box::OnceBox<T>::get_or_init::Void>, alloc::boxed::Box<[[u64; 4]; 2]>>::Break"*, !dbg !2725
  %7 = bitcast %"core::ops::control_flow::ControlFlow<core::result::Result<core::convert::Infallible, once_cell::race::once_box::OnceBox<T>::get_or_init::Void>, alloc::boxed::Box<[[u64; 4]; 2]>>::Break"* %6 to %"core::result::Result<core::convert::Infallible, once_cell::race::once_box::OnceBox<T>::get_or_init::Void>::Ok"*, !dbg !2725
  call void @llvm.trap(), !dbg !2725
  br label %bb4, !dbg !2726

bb4:                                              ; preds = %bb3, %bb1
  %8 = load i64*, i64** %1, align 8, !dbg !2727, !nonnull !14, !align !303, !noundef !14
  ret i64* %8, !dbg !2727
}

; <once_cell::race::once_box::OnceBox<T> as core::ops::drop::Drop>::drop
; Function Attrs: nonlazybind uwtable
define void @"_ZN85_$LT$once_cell..race..once_box..OnceBox$LT$T$GT$$u20$as$u20$core..ops..drop..Drop$GT$4drop17h29827f698a62b81aE"(%"once_cell::race::once_box::OnceBox<alloc::boxed::Box<dyn random_state::RandomSource + core::marker::Send + core::marker::Sync>>"* align 8 %self) unnamed_addr #1 !dbg !2728 {
start:
  %ptr.dbg.spill = alloca { {}*, [3 x i64]* }*, align 8
  %self.dbg.spill = alloca %"once_cell::race::once_box::OnceBox<alloc::boxed::Box<dyn random_state::RandomSource + core::marker::Send + core::marker::Sync>>"*, align 8
  store %"once_cell::race::once_box::OnceBox<alloc::boxed::Box<dyn random_state::RandomSource + core::marker::Send + core::marker::Sync>>"* %self, %"once_cell::race::once_box::OnceBox<alloc::boxed::Box<dyn random_state::RandomSource + core::marker::Send + core::marker::Sync>>"** %self.dbg.spill, align 8
  call void @llvm.dbg.declare(metadata %"once_cell::race::once_box::OnceBox<alloc::boxed::Box<dyn random_state::RandomSource + core::marker::Send + core::marker::Sync>>"** %self.dbg.spill, metadata !2735, metadata !DIExpression()), !dbg !2738
  %_4 = bitcast %"once_cell::race::once_box::OnceBox<alloc::boxed::Box<dyn random_state::RandomSource + core::marker::Send + core::marker::Sync>>"* %self to %"core::sync::atomic::AtomicPtr<alloc::boxed::Box<dyn random_state::RandomSource + core::marker::Send + core::marker::Sync>>"*, !dbg !2739
; call core::sync::atomic::AtomicPtr<T>::get_mut
  %_3 = call align 8 { {}*, [3 x i64]* }** @"_ZN4core4sync6atomic18AtomicPtr$LT$T$GT$7get_mut17hce55bfbedb6c1ec9E"(%"core::sync::atomic::AtomicPtr<alloc::boxed::Box<dyn random_state::RandomSource + core::marker::Send + core::marker::Sync>>"* align 8 %_4), !dbg !2739
  br label %bb1, !dbg !2739

bb1:                                              ; preds = %start
  %ptr = load { {}*, [3 x i64]* }*, { {}*, [3 x i64]* }** %_3, align 8, !dbg !2740, !rawptr !740
  store { {}*, [3 x i64]* }* %ptr, { {}*, [3 x i64]* }** %ptr.dbg.spill, align 8, !dbg !2740
  call void @llvm.dbg.declare(metadata { {}*, [3 x i64]* }** %ptr.dbg.spill, metadata !2736, metadata !DIExpression()), !dbg !2741
; call core::ptr::mut_ptr::<impl *mut T>::is_null
  %_6 = call zeroext i1 @"_ZN4core3ptr7mut_ptr31_$LT$impl$u20$$BP$mut$u20$T$GT$7is_null17h02496b4f9444d7b6E"({ {}*, [3 x i64]* }* %ptr), !dbg !2742
  br label %bb2, !dbg !2742

bb2:                                              ; preds = %bb1
  %_5 = xor i1 %_6, true, !dbg !2743
  br i1 %_5, label %bb3, label %bb5, !dbg !2743

bb5:                                              ; preds = %bb4, %bb2
  ret void, !dbg !2744

bb3:                                              ; preds = %bb2
; call alloc::boxed::Box<T>::from_raw
  %_8 = call align 8 { {}*, [3 x i64]* }* @"_ZN5alloc5boxed12Box$LT$T$GT$8from_raw17h91ef33f4c80e7533E"({ {}*, [3 x i64]* }* %ptr), !dbg !2745
  br label %bb4, !dbg !2745

bb4:                                              ; preds = %bb3
; call core::mem::drop
  call void @_ZN4core3mem4drop17h3aecacc231594bfbE({ {}*, [3 x i64]* }* align 8 %_8), !dbg !2746
  br label %bb5, !dbg !2746
}

; <once_cell::race::once_box::OnceBox<T> as core::ops::drop::Drop>::drop
; Function Attrs: nonlazybind uwtable
define void @"_ZN85_$LT$once_cell..race..once_box..OnceBox$LT$T$GT$$u20$as$u20$core..ops..drop..Drop$GT$4drop17h2a2248215a874886E"(%"once_cell::race::once_box::OnceBox<[[u64; 4]; 2]>"* align 8 %self) unnamed_addr #1 !dbg !2747 {
start:
  %ptr.dbg.spill = alloca [2 x [4 x i64]]*, align 8
  %self.dbg.spill = alloca %"once_cell::race::once_box::OnceBox<[[u64; 4]; 2]>"*, align 8
  store %"once_cell::race::once_box::OnceBox<[[u64; 4]; 2]>"* %self, %"once_cell::race::once_box::OnceBox<[[u64; 4]; 2]>"** %self.dbg.spill, align 8
  call void @llvm.dbg.declare(metadata %"once_cell::race::once_box::OnceBox<[[u64; 4]; 2]>"** %self.dbg.spill, metadata !2752, metadata !DIExpression()), !dbg !2755
  %_4 = bitcast %"once_cell::race::once_box::OnceBox<[[u64; 4]; 2]>"* %self to %"core::sync::atomic::AtomicPtr<[[u64; 4]; 2]>"*, !dbg !2756
; call core::sync::atomic::AtomicPtr<T>::get_mut
  %_3 = call align 8 [2 x [4 x i64]]** @"_ZN4core4sync6atomic18AtomicPtr$LT$T$GT$7get_mut17heebd5bdd76a2ea58E"(%"core::sync::atomic::AtomicPtr<[[u64; 4]; 2]>"* align 8 %_4), !dbg !2756
  br label %bb1, !dbg !2756

bb1:                                              ; preds = %start
  %ptr = load [2 x [4 x i64]]*, [2 x [4 x i64]]** %_3, align 8, !dbg !2757, !rawptr !740
  store [2 x [4 x i64]]* %ptr, [2 x [4 x i64]]** %ptr.dbg.spill, align 8, !dbg !2757
  call void @llvm.dbg.declare(metadata [2 x [4 x i64]]** %ptr.dbg.spill, metadata !2753, metadata !DIExpression()), !dbg !2758
; call core::ptr::mut_ptr::<impl *mut T>::is_null
  %_6 = call zeroext i1 @"_ZN4core3ptr7mut_ptr31_$LT$impl$u20$$BP$mut$u20$T$GT$7is_null17h2003ae6a0b248336E"([2 x [4 x i64]]* %ptr), !dbg !2759
  br label %bb2, !dbg !2759

bb2:                                              ; preds = %bb1
  %_5 = xor i1 %_6, true, !dbg !2760
  br i1 %_5, label %bb3, label %bb5, !dbg !2760

bb5:                                              ; preds = %bb4, %bb2
  ret void, !dbg !2761

bb3:                                              ; preds = %bb2
; call alloc::boxed::Box<T>::from_raw
  %_8 = call align 8 [2 x [4 x i64]]* @"_ZN5alloc5boxed12Box$LT$T$GT$8from_raw17h0c67c011648bf991E"([2 x [4 x i64]]* %ptr), !dbg !2762
  br label %bb4, !dbg !2762

bb4:                                              ; preds = %bb3
; call core::mem::drop
  call void @_ZN4core3mem4drop17hde36bfd99ac82b35E([2 x [4 x i64]]* align 8 %_8), !dbg !2763
  br label %bb5, !dbg !2763
}

; <core::slice::iter::Iter<T> as core::iter::traits::iterator::Iterator>::next
; Function Attrs: inlinehint nonlazybind uwtable
define align 8 i64* @"_ZN91_$LT$core..slice..iter..Iter$LT$T$GT$$u20$as$u20$core..iter..traits..iterator..Iterator$GT$4next17hb7eb24d0e75cf949E"({ i64*, i64* }* align 8 %self) unnamed_addr #0 !dbg !2764 {
start:
  %self.dbg.spill26 = alloca i64*, align 8
  %0 = alloca i8*, align 8
  %self.dbg.spill24 = alloca i8*, align 8
  %ptr.dbg.spill = alloca i64*, align 8
  %1 = alloca i64*, align 8
  %self.dbg.spill22 = alloca i64*, align 8
  %self.dbg.spill21 = alloca i64*, align 8
  %old.dbg.spill = alloca i64*, align 8
  %self.dbg.spill19 = alloca i64*, align 8
  %self.dbg.spill17 = alloca { i64*, i64* }*, align 8
  %self.dbg.spill16 = alloca i64*, align 8
  %2 = alloca i8, align 1
  %other.dbg.spill14 = alloca i8*, align 8
  %data_address.dbg.spill12 = alloca {}*, align 8
  %3 = alloca {}*, align 8
  %self.dbg.spill10 = alloca i8*, align 8
  %self.dbg.spill8 = alloca i64*, align 8
  %4 = alloca i8, align 1
  %other.dbg.spill = alloca i8*, align 8
  %data_address.dbg.spill = alloca {}*, align 8
  %5 = alloca {}*, align 8
  %self.dbg.spill6 = alloca i8*, align 8
  %self.dbg.spill4 = alloca i64*, align 8
  %self.dbg.spill3 = alloca i64*, align 8
  %metadata.dbg.spill1 = alloca {}, align 1
  %metadata.dbg.spill = alloca {}, align 1
  %self.dbg.spill = alloca { i64*, i64* }*, align 8
  %_62 = alloca i64*, align 8, !rawptr !740
  %_47 = alloca %"core::ptr::metadata::PtrComponents<u8>", align 8
  %_46 = alloca %"core::ptr::metadata::PtrRepr<u8>", align 8
  %_30 = alloca %"core::ptr::metadata::PtrComponents<u8>", align 8
  %_29 = alloca %"core::ptr::metadata::PtrRepr<u8>", align 8
  %_19 = alloca i64*, align 8, !rawptr !740
  %6 = alloca i64*, align 8
  store { i64*, i64* }* %self, { i64*, i64* }** %self.dbg.spill, align 8
  call void @llvm.dbg.declare(metadata { i64*, i64* }** %self.dbg.spill, metadata !2782, metadata !DIExpression()), !dbg !2783
  call void @llvm.dbg.declare(metadata {}* %metadata.dbg.spill, metadata !2784, metadata !DIExpression()), !dbg !2789
  call void @llvm.dbg.declare(metadata {}* %metadata.dbg.spill1, metadata !2800, metadata !DIExpression()), !dbg !2805
  %7 = bitcast { i64*, i64* }* %self to i64**, !dbg !2799
  %self2 = load i64*, i64** %7, align 8, !dbg !2799, !nonnull !14, !noundef !14, !rawptr !740
  store i64* %self2, i64** %self.dbg.spill3, align 8, !dbg !2799
  call void @llvm.dbg.declare(metadata i64** %self.dbg.spill3, metadata !2814, metadata !DIExpression()), !dbg !2820
  store i64* %self2, i64** %self.dbg.spill4, align 8, !dbg !2820
  call void @llvm.dbg.declare(metadata i64** %self.dbg.spill4, metadata !2797, metadata !DIExpression()), !dbg !2821
  %self5 = bitcast i64* %self2 to i8*, !dbg !2821, !rawptr !740
  store i8* %self5, i8** %self.dbg.spill6, align 8, !dbg !2821
  call void @llvm.dbg.declare(metadata i8** %self.dbg.spill6, metadata !2822, metadata !DIExpression()), !dbg !2827
  %8 = bitcast {}** %5 to i64*, !dbg !2829
  store i64 0, i64* %8, align 8, !dbg !2829
  %data_address = load {}*, {}** %5, align 8, !dbg !2829, !rawptr !740
  store {}* %data_address, {}** %data_address.dbg.spill, align 8, !dbg !2829
  call void @llvm.dbg.declare(metadata {}** %data_address.dbg.spill, metadata !2788, metadata !DIExpression()), !dbg !2789
  br label %bb9, !dbg !2829

bb9:                                              ; preds = %start
  %9 = bitcast %"core::ptr::metadata::PtrComponents<u8>"* %_30 to {}**, !dbg !2789, !rawptr !740
  store {}* %data_address, {}** %9, align 8, !dbg !2789
  %10 = bitcast %"core::ptr::metadata::PtrRepr<u8>"* %_29 to %"core::ptr::metadata::PtrComponents<u8>"*, !dbg !2789
  %11 = bitcast %"core::ptr::metadata::PtrComponents<u8>"* %10 to i8*, !dbg !2789
  %12 = bitcast %"core::ptr::metadata::PtrComponents<u8>"* %_30 to i8*, !dbg !2789
  call void @llvm.memcpy.p0i8.p0i8.i64(i8* align 8 %11, i8* align 8 %12, i64 8, i1 false), !dbg !2789
  %13 = bitcast %"core::ptr::metadata::PtrRepr<u8>"* %_29 to i8**, !dbg !2789
  %other = load i8*, i8** %13, align 8, !dbg !2789, !rawptr !740
  store i8* %other, i8** %other.dbg.spill, align 8, !dbg !2789
  call void @llvm.dbg.declare(metadata i8** %other.dbg.spill, metadata !2826, metadata !DIExpression()), !dbg !2827
  %14 = icmp eq i8* %self5, %other, !dbg !2827
  %15 = zext i1 %14 to i8, !dbg !2827
  store i8 %15, i8* %4, align 1, !dbg !2827
  %16 = load i8, i8* %4, align 1, !dbg !2827, !range !499, !noundef !14
  %_4 = trunc i8 %16 to i1, !dbg !2827
  br label %bb10, !dbg !2827

bb10:                                             ; preds = %bb9
  %_3 = xor i1 %_4, true, !dbg !2835
  call void @llvm.assume(i1 %_3), !dbg !2836
  br label %bb1, !dbg !2836

bb1:                                              ; preds = %bb10
  br i1 false, label %bb4, label %bb2, !dbg !2837

bb4:                                              ; preds = %bb1
  br label %bb5, !dbg !2838

bb2:                                              ; preds = %bb1
  %17 = getelementptr inbounds { i64*, i64* }, { i64*, i64* }* %self, i32 0, i32 1, !dbg !2813
  %self7 = load i64*, i64** %17, align 8, !dbg !2813, !rawptr !740
  store i64* %self7, i64** %self.dbg.spill8, align 8, !dbg !2813
  call void @llvm.dbg.declare(metadata i64** %self.dbg.spill8, metadata !2811, metadata !DIExpression()), !dbg !2839
  %self9 = bitcast i64* %self7 to i8*, !dbg !2839, !rawptr !740
  store i8* %self9, i8** %self.dbg.spill10, align 8, !dbg !2839
  call void @llvm.dbg.declare(metadata i8** %self.dbg.spill10, metadata !2840, metadata !DIExpression()), !dbg !2845
  %18 = bitcast {}** %3 to i64*, !dbg !2847
  store i64 0, i64* %18, align 8, !dbg !2847
  %data_address11 = load {}*, {}** %3, align 8, !dbg !2847, !rawptr !740
  store {}* %data_address11, {}** %data_address.dbg.spill12, align 8, !dbg !2847
  call void @llvm.dbg.declare(metadata {}** %data_address.dbg.spill12, metadata !2804, metadata !DIExpression()), !dbg !2805
  br label %bb11, !dbg !2847

bb11:                                             ; preds = %bb2
  %19 = bitcast %"core::ptr::metadata::PtrComponents<u8>"* %_47 to {}**, !dbg !2805, !rawptr !740
  store {}* %data_address11, {}** %19, align 8, !dbg !2805
  %20 = bitcast %"core::ptr::metadata::PtrRepr<u8>"* %_46 to %"core::ptr::metadata::PtrComponents<u8>"*, !dbg !2805
  %21 = bitcast %"core::ptr::metadata::PtrComponents<u8>"* %20 to i8*, !dbg !2805
  %22 = bitcast %"core::ptr::metadata::PtrComponents<u8>"* %_47 to i8*, !dbg !2805
  call void @llvm.memcpy.p0i8.p0i8.i64(i8* align 8 %21, i8* align 8 %22, i64 8, i1 false), !dbg !2805
  %23 = bitcast %"core::ptr::metadata::PtrRepr<u8>"* %_46 to i8**, !dbg !2805
  %other13 = load i8*, i8** %23, align 8, !dbg !2805, !rawptr !740
  store i8* %other13, i8** %other.dbg.spill14, align 8, !dbg !2805
  call void @llvm.dbg.declare(metadata i8** %other.dbg.spill14, metadata !2844, metadata !DIExpression()), !dbg !2845
  %24 = icmp eq i8* %self9, %other13, !dbg !2845
  %25 = zext i1 %24 to i8, !dbg !2845
  store i8 %25, i8* %2, align 1, !dbg !2845
  %26 = load i8, i8* %2, align 1, !dbg !2845, !range !499, !noundef !14
  %_10 = trunc i8 %26 to i1, !dbg !2845
  br label %bb12, !dbg !2845

bb12:                                             ; preds = %bb11
  %_9 = xor i1 %_10, true, !dbg !2853
  call void @llvm.assume(i1 %_9), !dbg !2854
  br label %bb3, !dbg !2854

bb3:                                              ; preds = %bb12
  br label %bb5, !dbg !2838

bb5:                                              ; preds = %bb4, %bb3
  %27 = bitcast { i64*, i64* }* %self to i64**, !dbg !2855
  %self15 = load i64*, i64** %27, align 8, !dbg !2855, !nonnull !14, !noundef !14, !rawptr !740
  store i64* %self15, i64** %self.dbg.spill16, align 8, !dbg !2855
  call void @llvm.dbg.declare(metadata i64** %self.dbg.spill16, metadata !2856, metadata !DIExpression()), !dbg !2860
  %28 = getelementptr inbounds { i64*, i64* }, { i64*, i64* }* %self, i32 0, i32 1, !dbg !2855
  %_16 = load i64*, i64** %28, align 8, !dbg !2855, !rawptr !740
  %_12 = icmp eq i64* %self15, %_16, !dbg !2855
  br i1 %_12, label %bb6, label %bb7, !dbg !2855

bb7:                                              ; preds = %bb5
  store { i64*, i64* }* %self, { i64*, i64* }** %self.dbg.spill17, align 8, !dbg !2862
  call void @llvm.dbg.declare(metadata { i64*, i64* }** %self.dbg.spill17, metadata !2863, metadata !DIExpression()), !dbg !2871
  br i1 false, label %bb13, label %bb14, !dbg !2871

bb6:                                              ; preds = %bb5
  %29 = bitcast i64** %6 to {}**, !dbg !2873
  store {}* null, {}** %29, align 8, !dbg !2873
  br label %bb8, !dbg !2874

bb8:                                              ; preds = %bb15, %bb6
  %30 = load i64*, i64** %6, align 8, !dbg !2875, !align !303
  ret i64* %30, !dbg !2875

bb13:                                             ; preds = %bb7
  %31 = getelementptr inbounds { i64*, i64* }, { i64*, i64* }* %self, i32 0, i32 1, !dbg !2871
  %_56 = load i64*, i64** %31, align 8, !dbg !2871, !rawptr !740
  %self23 = bitcast i64* %_56 to i8*, !dbg !2871, !rawptr !740
  store i8* %self23, i8** %self.dbg.spill24, align 8, !dbg !2871
  call void @llvm.dbg.declare(metadata i8** %self.dbg.spill24, metadata !2876, metadata !DIExpression()), !dbg !2881
  %32 = getelementptr i8, i8* %self23, i64 -1, !dbg !2881
  store i8* %32, i8** %0, align 8, !dbg !2881
  %_54 = load i8*, i8** %0, align 8, !dbg !2881, !rawptr !740
  br label %bb16, !dbg !2881

bb14:                                             ; preds = %bb7
  %33 = bitcast { i64*, i64* }* %self to i64**, !dbg !2871
  %self18 = load i64*, i64** %33, align 8, !dbg !2871, !nonnull !14, !noundef !14, !rawptr !740
  store i64* %self18, i64** %self.dbg.spill19, align 8, !dbg !2871
  call void @llvm.dbg.declare(metadata i64** %self.dbg.spill19, metadata !2883, metadata !DIExpression()), !dbg !2887
  store i64* %self18, i64** %old.dbg.spill, align 8, !dbg !2887
  call void @llvm.dbg.declare(metadata i64** %old.dbg.spill, metadata !2869, metadata !DIExpression()), !dbg !2889
  %34 = bitcast { i64*, i64* }* %self to i64**, !dbg !2889
  %self20 = load i64*, i64** %34, align 8, !dbg !2889, !nonnull !14, !noundef !14, !rawptr !740
  store i64* %self20, i64** %self.dbg.spill21, align 8, !dbg !2889
  call void @llvm.dbg.declare(metadata i64** %self.dbg.spill21, metadata !2890, metadata !DIExpression()), !dbg !2894
  store i64* %self20, i64** %self.dbg.spill22, align 8, !dbg !2894
  call void @llvm.dbg.declare(metadata i64** %self.dbg.spill22, metadata !2896, metadata !DIExpression()), !dbg !2903
  %35 = getelementptr inbounds i64, i64* %self20, i64 1, !dbg !2903
  store i64* %35, i64** %1, align 8, !dbg !2903
  %_73 = load i64*, i64** %1, align 8, !dbg !2903, !rawptr !740
  br label %bb17, !dbg !2903

bb17:                                             ; preds = %bb14
  store i64* %_73, i64** %ptr.dbg.spill, align 8, !dbg !2903
  call void @llvm.dbg.declare(metadata i64** %ptr.dbg.spill, metadata !2904, metadata !DIExpression()), !dbg !2908
  store i64* %_73, i64** %_62, align 8, !dbg !2908
  %36 = bitcast { i64*, i64* }* %self to i64**, !dbg !2889
  %37 = load i64*, i64** %_62, align 8, !dbg !2889, !nonnull !14, !noundef !14
  store i64* %37, i64** %36, align 8, !dbg !2889
  store i64* %self18, i64** %_19, align 8, !dbg !2889
  br label %bb15, !dbg !2871

bb15:                                             ; preds = %bb16, %bb17
  %_18 = load i64*, i64** %_19, align 8, !dbg !2862
  store i64* %_18, i64** %6, align 8, !dbg !2910
  br label %bb8, !dbg !2874

bb16:                                             ; preds = %bb13
  %38 = getelementptr inbounds { i64*, i64* }, { i64*, i64* }* %self, i32 0, i32 1, !dbg !2871, !rawptr !740
  %39 = bitcast i8* %_54 to i64*, !dbg !2871
  store i64* %39, i64** %38, align 8, !dbg !2871
  %40 = bitcast { i64*, i64* }* %self to i64**, !dbg !2871
  %self25 = load i64*, i64** %40, align 8, !dbg !2871, !nonnull !14, !noundef !14, !rawptr !740
  store i64* %self25, i64** %self.dbg.spill26, align 8, !dbg !2871
  call void @llvm.dbg.declare(metadata i64** %self.dbg.spill26, metadata !2911, metadata !DIExpression()), !dbg !2915
  store i64* %self25, i64** %_19, align 8, !dbg !2871
  br label %bb15, !dbg !2871
}

; getrandom::getrandom_uninit
; Function Attrs: inlinehint nonlazybind uwtable
define internal void @_ZN9getrandom16getrandom_uninit17h6cc1d63be91496e7E(%"core::result::Result<&mut [u8], getrandom::error::Error>"* sret(%"core::result::Result<&mut [u8], getrandom::error::Error>") %0, [0 x i8]* align 1 %dest.0, i64 %dest.1) unnamed_addr #0 !dbg !2917 {
start:
  %slice.dbg.spill.i = alloca { [0 x i8]*, i64 }, align 8
  %residual.dbg.spill = alloca i32, align 4
  %val.dbg.spill = alloca {}, align 1
  %dest.dbg.spill = alloca { [0 x i8]*, i64 }, align 8
  %_5 = alloca i32, align 4
  %1 = getelementptr inbounds { [0 x i8]*, i64 }, { [0 x i8]*, i64 }* %dest.dbg.spill, i32 0, i32 0
  store [0 x i8]* %dest.0, [0 x i8]** %1, align 8
  %2 = getelementptr inbounds { [0 x i8]*, i64 }, { [0 x i8]*, i64 }* %dest.dbg.spill, i32 0, i32 1
  store i64 %dest.1, i64* %2, align 8
  call void @llvm.dbg.declare(metadata { [0 x i8]*, i64 }* %dest.dbg.spill, metadata !2934, metadata !DIExpression()), !dbg !2939
  call void @llvm.dbg.declare(metadata {}* %val.dbg.spill, metadata !2937, metadata !DIExpression()), !dbg !2940
; call core::slice::<impl [T]>::is_empty
  %_3 = call zeroext i1 @"_ZN4core5slice29_$LT$impl$u20$$u5b$T$u5d$$GT$8is_empty17h46cba06d32fba3b8E"([0 x i8]* align 1 %dest.0, i64 %dest.1), !dbg !2941
  br label %bb1, !dbg !2941

bb1:                                              ; preds = %start
  %_2 = xor i1 %_3, true, !dbg !2942
  br i1 %_2, label %bb2, label %bb7, !dbg !2942

bb7:                                              ; preds = %bb4, %bb1
  %3 = getelementptr inbounds { [0 x i8]*, i64 }, { [0 x i8]*, i64 }* %slice.dbg.spill.i, i32 0, i32 0
  store [0 x i8]* %dest.0, [0 x i8]** %3, align 8
  %4 = getelementptr inbounds { [0 x i8]*, i64 }, { [0 x i8]*, i64 }* %slice.dbg.spill.i, i32 0, i32 1
  store i64 %dest.1, i64* %4, align 8
  call void @llvm.dbg.declare(metadata { [0 x i8]*, i64 }* %slice.dbg.spill.i, metadata !2943, metadata !DIExpression()), !dbg !2950
  %5 = insertvalue { [0 x i8]*, i64 } undef, [0 x i8]* %dest.0, 0, !dbg !2952
  %6 = insertvalue { [0 x i8]*, i64 } %5, i64 %dest.1, 1, !dbg !2952
  %_14.0 = extractvalue { [0 x i8]*, i64 } %6, 0, !dbg !2953
  %_14.1 = extractvalue { [0 x i8]*, i64 } %6, 1, !dbg !2953
  br label %bb8, !dbg !2953

bb2:                                              ; preds = %bb1
; call getrandom::imp::getrandom_inner
  %_6 = call i32 @_ZN9getrandom3imp15getrandom_inner17h38037888659cd8cfE([0 x i8]* align 1 %dest.0, i64 %dest.1), !dbg !2954
  br label %bb3, !dbg !2954

bb3:                                              ; preds = %bb2
; call <core::result::Result<T,E> as core::ops::try_trait::Try>::branch
  %7 = call i32 @"_ZN79_$LT$core..result..Result$LT$T$C$E$GT$$u20$as$u20$core..ops..try_trait..Try$GT$6branch17h93f852bbc0fc46ffE"(i32 %_6), !dbg !2954
  store i32 %7, i32* %_5, align 4, !dbg !2954
  br label %bb4, !dbg !2954

bb4:                                              ; preds = %bb3
  %8 = load i32, i32* %_5, align 4, !dbg !2954
  %9 = icmp eq i32 %8, 0, !dbg !2954
  %_8 = select i1 %9, i64 0, i64 1, !dbg !2954
  switch i64 %_8, label %bb5 [
    i64 0, label %bb7
    i64 1, label %bb6
  ], !dbg !2954

bb5:                                              ; preds = %bb4
  unreachable, !dbg !2954

bb6:                                              ; preds = %bb4
  %residual = load i32, i32* %_5, align 4, !dbg !2955, !range !348, !noundef !14
  store i32 %residual, i32* %residual.dbg.spill, align 4, !dbg !2955
  call void @llvm.dbg.declare(metadata i32* %residual.dbg.spill, metadata !2935, metadata !DIExpression()), !dbg !2956
; call <core::result::Result<T,F> as core::ops::try_trait::FromResidual<core::result::Result<core::convert::Infallible,E>>>::from_residual
  call void @"_ZN153_$LT$core..result..Result$LT$T$C$F$GT$$u20$as$u20$core..ops..try_trait..FromResidual$LT$core..result..Result$LT$core..convert..Infallible$C$E$GT$$GT$$GT$13from_residual17ha2f3b66ad033c661E"(%"core::result::Result<&mut [u8], getrandom::error::Error>"* sret(%"core::result::Result<&mut [u8], getrandom::error::Error>") %0, i32 %residual, %"core::panic::location::Location"* align 8 bitcast (<{ i8*, [16 x i8] }>* @alloc766 to %"core::panic::location::Location"*)), !dbg !2957
  br label %bb9, !dbg !2957

bb9:                                              ; preds = %bb8, %bb6
  ret void, !dbg !2958

bb8:                                              ; preds = %bb7
  %10 = bitcast %"core::result::Result<&mut [u8], getrandom::error::Error>"* %0 to %"core::result::Result<&mut [u8], getrandom::error::Error>::Ok"*, !dbg !2959
  %11 = getelementptr inbounds %"core::result::Result<&mut [u8], getrandom::error::Error>::Ok", %"core::result::Result<&mut [u8], getrandom::error::Error>::Ok"* %10, i32 0, i32 1, !dbg !2959
  %12 = getelementptr inbounds { [0 x i8]*, i64 }, { [0 x i8]*, i64 }* %11, i32 0, i32 0, !dbg !2959
  store [0 x i8]* %_14.0, [0 x i8]** %12, align 8, !dbg !2959
  %13 = getelementptr inbounds { [0 x i8]*, i64 }, { [0 x i8]*, i64 }* %11, i32 0, i32 1, !dbg !2959
  store i64 %_14.1, i64* %13, align 8, !dbg !2959
  %14 = bitcast %"core::result::Result<&mut [u8], getrandom::error::Error>"* %0 to i32*, !dbg !2959
  store i32 0, i32* %14, align 8, !dbg !2959
  br label %bb9, !dbg !2958
}

; getrandom::getrandom
; Function Attrs: inlinehint nonlazybind uwtable
define internal i32 @_ZN9getrandom9getrandom17h401c5b329b821ffeE([0 x i8]* align 1 %dest.0, i64 %dest.1) unnamed_addr #0 !dbg !2960 {
start:
  %slice.dbg.spill.i = alloca { [0 x i8]*, i64 }, align 8
  %val.dbg.spill = alloca { [0 x i8]*, i64 }, align 8
  %residual.dbg.spill = alloca i32, align 4
  %dest.dbg.spill = alloca { [0 x i8]*, i64 }, align 8
  %_3 = alloca %"core::result::Result<&mut [u8], getrandom::error::Error>", align 8
  %_2 = alloca %"core::ops::control_flow::ControlFlow<core::result::Result<core::convert::Infallible, getrandom::error::Error>, &mut [u8]>", align 8
  %0 = alloca i32, align 4
  %1 = getelementptr inbounds { [0 x i8]*, i64 }, { [0 x i8]*, i64 }* %dest.dbg.spill, i32 0, i32 0
  store [0 x i8]* %dest.0, [0 x i8]** %1, align 8
  %2 = getelementptr inbounds { [0 x i8]*, i64 }, { [0 x i8]*, i64 }* %dest.dbg.spill, i32 0, i32 1
  store i64 %dest.1, i64* %2, align 8
  call void @llvm.dbg.declare(metadata { [0 x i8]*, i64 }* %dest.dbg.spill, metadata !2964, metadata !DIExpression()), !dbg !2969
  %3 = getelementptr inbounds { [0 x i8]*, i64 }, { [0 x i8]*, i64 }* %slice.dbg.spill.i, i32 0, i32 0
  store [0 x i8]* %dest.0, [0 x i8]** %3, align 8
  %4 = getelementptr inbounds { [0 x i8]*, i64 }, { [0 x i8]*, i64 }* %slice.dbg.spill.i, i32 0, i32 1
  store i64 %dest.1, i64* %4, align 8
  call void @llvm.dbg.declare(metadata { [0 x i8]*, i64 }* %slice.dbg.spill.i, metadata !2970, metadata !DIExpression()), !dbg !2975
  %5 = insertvalue { [0 x i8]*, i64 } undef, [0 x i8]* %dest.0, 0, !dbg !2977
  %6 = insertvalue { [0 x i8]*, i64 } %5, i64 %dest.1, 1, !dbg !2977
  %_6.0 = extractvalue { [0 x i8]*, i64 } %6, 0, !dbg !2978
  %_6.1 = extractvalue { [0 x i8]*, i64 } %6, 1, !dbg !2978
  br label %bb1, !dbg !2978

bb1:                                              ; preds = %start
; call getrandom::getrandom_uninit
  call void @_ZN9getrandom16getrandom_uninit17h6cc1d63be91496e7E(%"core::result::Result<&mut [u8], getrandom::error::Error>"* sret(%"core::result::Result<&mut [u8], getrandom::error::Error>") %_3, [0 x i8]* align 1 %_6.0, i64 %_6.1), !dbg !2979
  br label %bb2, !dbg !2979

bb2:                                              ; preds = %bb1
; call <core::result::Result<T,E> as core::ops::try_trait::Try>::branch
  call void @"_ZN79_$LT$core..result..Result$LT$T$C$E$GT$$u20$as$u20$core..ops..try_trait..Try$GT$6branch17h163706a8698851f6E"(%"core::ops::control_flow::ControlFlow<core::result::Result<core::convert::Infallible, getrandom::error::Error>, &mut [u8]>"* sret(%"core::ops::control_flow::ControlFlow<core::result::Result<core::convert::Infallible, getrandom::error::Error>, &mut [u8]>") %_2, %"core::result::Result<&mut [u8], getrandom::error::Error>"* %_3), !dbg !2979
  br label %bb3, !dbg !2979

bb3:                                              ; preds = %bb2
  %7 = bitcast %"core::ops::control_flow::ControlFlow<core::result::Result<core::convert::Infallible, getrandom::error::Error>, &mut [u8]>"* %_2 to i32*, !dbg !2979
  %8 = load i32, i32* %7, align 8, !dbg !2979, !range !2666, !noundef !14
  %_8 = zext i32 %8 to i64, !dbg !2979
  switch i64 %_8, label %bb5 [
    i64 0, label %bb4
    i64 1, label %bb6
  ], !dbg !2979

bb5:                                              ; preds = %bb3
  unreachable, !dbg !2979

bb4:                                              ; preds = %bb3
  %9 = bitcast %"core::ops::control_flow::ControlFlow<core::result::Result<core::convert::Infallible, getrandom::error::Error>, &mut [u8]>"* %_2 to %"core::ops::control_flow::ControlFlow<core::result::Result<core::convert::Infallible, getrandom::error::Error>, &mut [u8]>::Continue"*, !dbg !2979
  %10 = getelementptr inbounds %"core::ops::control_flow::ControlFlow<core::result::Result<core::convert::Infallible, getrandom::error::Error>, &mut [u8]>::Continue", %"core::ops::control_flow::ControlFlow<core::result::Result<core::convert::Infallible, getrandom::error::Error>, &mut [u8]>::Continue"* %9, i32 0, i32 1, !dbg !2979
  %11 = getelementptr inbounds { [0 x i8]*, i64 }, { [0 x i8]*, i64 }* %10, i32 0, i32 0, !dbg !2979
  %val.0 = load [0 x i8]*, [0 x i8]** %11, align 8, !dbg !2979, !nonnull !14, !align !2669, !noundef !14
  %12 = getelementptr inbounds { [0 x i8]*, i64 }, { [0 x i8]*, i64 }* %10, i32 0, i32 1, !dbg !2979
  %val.1 = load i64, i64* %12, align 8, !dbg !2979
  %13 = getelementptr inbounds { [0 x i8]*, i64 }, { [0 x i8]*, i64 }* %val.dbg.spill, i32 0, i32 0, !dbg !2979
  store [0 x i8]* %val.0, [0 x i8]** %13, align 8, !dbg !2979
  %14 = getelementptr inbounds { [0 x i8]*, i64 }, { [0 x i8]*, i64 }* %val.dbg.spill, i32 0, i32 1, !dbg !2979
  store i64 %val.1, i64* %14, align 8, !dbg !2979
  call void @llvm.dbg.declare(metadata { [0 x i8]*, i64 }* %val.dbg.spill, metadata !2967, metadata !DIExpression()), !dbg !2980
  store i32 0, i32* %0, align 4, !dbg !2981
  br label %bb7, !dbg !2982

bb6:                                              ; preds = %bb3
  %15 = bitcast %"core::ops::control_flow::ControlFlow<core::result::Result<core::convert::Infallible, getrandom::error::Error>, &mut [u8]>"* %_2 to %"core::ops::control_flow::ControlFlow<core::result::Result<core::convert::Infallible, getrandom::error::Error>, &mut [u8]>::Break"*, !dbg !2983
  %16 = getelementptr inbounds %"core::ops::control_flow::ControlFlow<core::result::Result<core::convert::Infallible, getrandom::error::Error>, &mut [u8]>::Break", %"core::ops::control_flow::ControlFlow<core::result::Result<core::convert::Infallible, getrandom::error::Error>, &mut [u8]>::Break"* %15, i32 0, i32 1, !dbg !2983
  %residual = load i32, i32* %16, align 4, !dbg !2983, !range !348, !noundef !14
  store i32 %residual, i32* %residual.dbg.spill, align 4, !dbg !2983
  call void @llvm.dbg.declare(metadata i32* %residual.dbg.spill, metadata !2965, metadata !DIExpression()), !dbg !2984
; call <core::result::Result<T,F> as core::ops::try_trait::FromResidual<core::result::Result<core::convert::Infallible,E>>>::from_residual
  %17 = call i32 @"_ZN153_$LT$core..result..Result$LT$T$C$F$GT$$u20$as$u20$core..ops..try_trait..FromResidual$LT$core..result..Result$LT$core..convert..Infallible$C$E$GT$$GT$$GT$13from_residual17h5adb134252c2789cE"(i32 %residual, %"core::panic::location::Location"* align 8 bitcast (<{ i8*, [16 x i8] }>* @alloc768 to %"core::panic::location::Location"*)), !dbg !2985
  store i32 %17, i32* %0, align 4, !dbg !2985
  br label %bb7, !dbg !2985

bb7:                                              ; preds = %bb4, %bb6
  %18 = load i32, i32* %0, align 4, !dbg !2982
  ret i32 %18, !dbg !2982
}

; once_cell::race::once_box::OnceBox<T>::get_or_init
; Function Attrs: nonlazybind uwtable
define align 8 [2 x [4 x i64]]* @"_ZN9once_cell4race8once_box16OnceBox$LT$T$GT$11get_or_init17hc67799460f2c6b2aE"(%"once_cell::race::once_box::OnceBox<[[u64; 4]; 2]>"* align 8 %self) unnamed_addr #1 !dbg !2986 {
start:
  %val.dbg.spill = alloca [2 x [4 x i64]]*, align 8
  %void.dbg.spill = alloca %"once_cell::race::once_box::OnceBox<T>::get_or_init::Void", align 1
  %f.dbg.spill = alloca %"[closure@/home/dy3199/.cargo/registry/src/github.com-1ecc6299db9ec823/ahash-0.7.7/src/random_state.rs:104:27: 108:10]", align 1
  %self.dbg.spill = alloca %"once_cell::race::once_box::OnceBox<[[u64; 4]; 2]>"*, align 8
  %_5 = alloca %"[closure@once_cell::race::once_box::OnceBox<[[u64; 4]; 2]>::get_or_init<[closure@/home/dy3199/.cargo/registry/src/github.com-1ecc6299db9ec823/ahash-0.7.7/src/random_state.rs:104:27: 108:10]>::{closure#0}]", align 1
  %_3 = alloca i64*, align 8
  store %"once_cell::race::once_box::OnceBox<[[u64; 4]; 2]>"* %self, %"once_cell::race::once_box::OnceBox<[[u64; 4]; 2]>"** %self.dbg.spill, align 8
  call void @llvm.dbg.declare(metadata %"once_cell::race::once_box::OnceBox<[[u64; 4]; 2]>"** %self.dbg.spill, metadata !2992, metadata !DIExpression()), !dbg !3000
  call void @llvm.dbg.declare(metadata %"[closure@/home/dy3199/.cargo/registry/src/github.com-1ecc6299db9ec823/ahash-0.7.7/src/random_state.rs:104:27: 108:10]"* %f.dbg.spill, metadata !2993, metadata !DIExpression()), !dbg !3001
  call void @llvm.dbg.declare(metadata %"once_cell::race::once_box::OnceBox<T>::get_or_init::Void"* %void.dbg.spill, metadata !2996, metadata !DIExpression()), !dbg !3002
  %0 = bitcast %"[closure@once_cell::race::once_box::OnceBox<[[u64; 4]; 2]>::get_or_init<[closure@/home/dy3199/.cargo/registry/src/github.com-1ecc6299db9ec823/ahash-0.7.7/src/random_state.rs:104:27: 108:10]>::{closure#0}]"* %_5 to %"[closure@/home/dy3199/.cargo/registry/src/github.com-1ecc6299db9ec823/ahash-0.7.7/src/random_state.rs:104:27: 108:10]"*, !dbg !3003
; call once_cell::race::once_box::OnceBox<T>::get_or_try_init
  %1 = call align 8 i64* @"_ZN9once_cell4race8once_box16OnceBox$LT$T$GT$15get_or_try_init17hd6d3303ff457c06cE"(%"once_cell::race::once_box::OnceBox<[[u64; 4]; 2]>"* align 8 %self), !dbg !3004
  store i64* %1, i64** %_3, align 8, !dbg !3004
  br label %bb1, !dbg !3004

bb1:                                              ; preds = %start
  br i1 true, label %bb3, label %bb2, !dbg !3005

bb3:                                              ; preds = %bb1
  %2 = bitcast i64** %_3 to [2 x [4 x i64]]**, !dbg !3006
  %val = load [2 x [4 x i64]]*, [2 x [4 x i64]]** %2, align 8, !dbg !3006, !nonnull !14, !align !303, !noundef !14
  store [2 x [4 x i64]]* %val, [2 x [4 x i64]]** %val.dbg.spill, align 8, !dbg !3006
  call void @llvm.dbg.declare(metadata [2 x [4 x i64]]** %val.dbg.spill, metadata !2994, metadata !DIExpression()), !dbg !3007
  ret [2 x [4 x i64]]* %val, !dbg !3008

bb2:                                              ; preds = %bb1
  unreachable, !dbg !3004
}

; once_cell::race::once_box::OnceBox<T>::get_or_init::{{closure}}
; Function Attrs: inlinehint nonlazybind uwtable
define align 8 i64* @"_ZN9once_cell4race8once_box16OnceBox$LT$T$GT$11get_or_init28_$u7b$$u7b$closure$u7d$$u7d$17h0638988005f666c3E"() unnamed_addr #0 !dbg !3009 {
start:
  %_1.dbg.spill = alloca %"[closure@once_cell::race::once_box::OnceBox<[[u64; 4]; 2]>::get_or_init<[closure@/home/dy3199/.cargo/registry/src/github.com-1ecc6299db9ec823/ahash-0.7.7/src/random_state.rs:104:27: 108:10]>::{closure#0}]", align 1
  %0 = alloca i64*, align 8
  %1 = bitcast %"[closure@once_cell::race::once_box::OnceBox<[[u64; 4]; 2]>::get_or_init<[closure@/home/dy3199/.cargo/registry/src/github.com-1ecc6299db9ec823/ahash-0.7.7/src/random_state.rs:104:27: 108:10]>::{closure#0}]"* %_1.dbg.spill to %"[closure@/home/dy3199/.cargo/registry/src/github.com-1ecc6299db9ec823/ahash-0.7.7/src/random_state.rs:104:27: 108:10]"*
  call void @llvm.dbg.declare(metadata %"[closure@once_cell::race::once_box::OnceBox<[[u64; 4]; 2]>::get_or_init<[closure@/home/dy3199/.cargo/registry/src/github.com-1ecc6299db9ec823/ahash-0.7.7/src/random_state.rs:104:27: 108:10]>::{closure#0}]"* %_1.dbg.spill, metadata !3016, metadata !DIExpression()), !dbg !3017
; call <ahash::random_state::DefaultRandomSource as ahash::random_state::RandomSource>::get_fixed_seeds::{{closure}}
  %_2 = call align 8 [2 x [4 x i64]]* @"_ZN94_$LT$ahash..random_state..DefaultRandomSource$u20$as$u20$ahash..random_state..RandomSource$GT$15get_fixed_seeds28_$u7b$$u7b$closure$u7d$$u7d$17h3ac1eccf11e0e744E"(), !dbg !3018
  br label %bb1, !dbg !3018

bb1:                                              ; preds = %start
  %2 = bitcast i64** %0 to [2 x [4 x i64]]**, !dbg !3019
  store [2 x [4 x i64]]* %_2, [2 x [4 x i64]]** %2, align 8, !dbg !3019
  %3 = load i64*, i64** %0, align 8, !dbg !3020, !nonnull !14, !align !303, !noundef !14
  ret i64* %3, !dbg !3020
}

; once_cell::race::once_box::OnceBox<T>::get_or_try_init
; Function Attrs: nonlazybind uwtable
define align 8 i64* @"_ZN9once_cell4race8once_box16OnceBox$LT$T$GT$15get_or_try_init17hd6d3303ff457c06cE"(%"once_cell::race::once_box::OnceBox<[[u64; 4]; 2]>"* align 8 %self) unnamed_addr #1 personality i32 (...)* @rust_eh_personality !dbg !3021 {
start:
  %data_address.dbg.spill.i = alloca {}*, align 8
  %0 = alloca {}*, align 8
  %_6.i = alloca %"core::ptr::metadata::PtrComponents<[[u64; 4]; 2]>", align 8
  %_5.i = alloca %"core::ptr::metadata::PtrRepr<[[u64; 4]; 2]>", align 8
  %old.dbg.spill = alloca [2 x [4 x i64]]*, align 8
  %val.dbg.spill = alloca [2 x [4 x i64]]*, align 8
  %1 = alloca { i8*, i32 }, align 8
  %residual.dbg.spill = alloca %"core::result::Result<core::convert::Infallible, once_cell::race::once_box::OnceBox<T>::get_or_init::Void>::Ok", align 1
  %f.dbg.spill = alloca %"[closure@once_cell::race::once_box::OnceBox<[[u64; 4]; 2]>::get_or_init<[closure@/home/dy3199/.cargo/registry/src/github.com-1ecc6299db9ec823/ahash-0.7.7/src/random_state.rs:104:27: 108:10]>::{closure#0}]", align 1
  %self.dbg.spill = alloca %"once_cell::race::once_box::OnceBox<[[u64; 4]; 2]>"*, align 8
  %_34 = alloca i8, align 1
  %_33 = alloca i8, align 1
  %_24 = alloca i8, align 1
  %_23 = alloca i8, align 1
  %exchange = alloca { i64, i8* }, align 8
  %_9 = alloca i64*, align 8
  %val = alloca [2 x [4 x i64]]*, align 8
  %_5 = alloca i8, align 1
  %ptr = alloca [2 x [4 x i64]]*, align 8, !rawptr !740
  %2 = alloca i64*, align 8
  store %"once_cell::race::once_box::OnceBox<[[u64; 4]; 2]>"* %self, %"once_cell::race::once_box::OnceBox<[[u64; 4]; 2]>"** %self.dbg.spill, align 8
  call void @llvm.dbg.declare(metadata %"once_cell::race::once_box::OnceBox<[[u64; 4]; 2]>"** %self.dbg.spill, metadata !3025, metadata !DIExpression()), !dbg !3041
  call void @llvm.dbg.declare(metadata %"[closure@once_cell::race::once_box::OnceBox<[[u64; 4]; 2]>::get_or_init<[closure@/home/dy3199/.cargo/registry/src/github.com-1ecc6299db9ec823/ahash-0.7.7/src/random_state.rs:104:27: 108:10]>::{closure#0}]"* %f.dbg.spill, metadata !3026, metadata !DIExpression()), !dbg !3042
  call void @llvm.dbg.declare(metadata [2 x [4 x i64]]** %ptr, metadata !3027, metadata !DIExpression()), !dbg !3043
  call void @llvm.dbg.declare(metadata [2 x [4 x i64]]** %val, metadata !3029, metadata !DIExpression()), !dbg !3044
  call void @llvm.dbg.declare(metadata %"core::result::Result<core::convert::Infallible, once_cell::race::once_box::OnceBox<T>::get_or_init::Void>::Ok"* %residual.dbg.spill, metadata !3031, metadata !DIExpression()), !dbg !3045
  call void @llvm.dbg.declare(metadata { i64, i8* }* %exchange, metadata !3035, metadata !DIExpression()), !dbg !3046
  store i8 0, i8* %_34, align 1, !dbg !3047
  store i8 0, i8* %_33, align 1, !dbg !3047
  store i8 1, i8* %_33, align 1, !dbg !3047
  %_4 = bitcast %"once_cell::race::once_box::OnceBox<[[u64; 4]; 2]>"* %self to %"core::sync::atomic::AtomicPtr<[[u64; 4]; 2]>"*, !dbg !3048, !rawptr !740
  store i8 2, i8* %_5, align 1, !dbg !3049
  %3 = load i8, i8* %_5, align 1, !dbg !3048, !range !873, !noundef !14, !rawptr !740
; invoke core::sync::atomic::AtomicPtr<T>::load
  %4 = invoke [2 x [4 x i64]]* @"_ZN4core4sync6atomic18AtomicPtr$LT$T$GT$4load17h3e3df37bffba2ba0E"(%"core::sync::atomic::AtomicPtr<[[u64; 4]; 2]>"* align 8 %_4, i8 %3)
          to label %bb1 unwind label %cleanup, !dbg !3048

bb25:                                             ; preds = %bb21, %bb22, %bb23, %cleanup
  %5 = load i8, i8* %_33, align 1, !dbg !3050, !range !499, !noundef !14
  %6 = trunc i8 %5 to i1, !dbg !3050
  br i1 %6, label %bb24, label %bb19, !dbg !3050

cleanup:                                          ; preds = %bb4, %bb3, %bb1, %start
  %7 = landingpad { i8*, i32 }
          cleanup
  %8 = extractvalue { i8*, i32 } %7, 0
  %9 = extractvalue { i8*, i32 } %7, 1
  %10 = getelementptr inbounds { i8*, i32 }, { i8*, i32 }* %1, i32 0, i32 0
  store i8* %8, i8** %10, align 8
  %11 = getelementptr inbounds { i8*, i32 }, { i8*, i32 }* %1, i32 0, i32 1
  store i32 %9, i32* %11, align 8
  br label %bb25

bb1:                                              ; preds = %start
  store [2 x [4 x i64]]* %4, [2 x [4 x i64]]** %ptr, align 8, !dbg !3048
  %_7 = load [2 x [4 x i64]]*, [2 x [4 x i64]]** %ptr, align 8, !dbg !3051, !rawptr !740
; invoke core::ptr::mut_ptr::<impl *mut T>::is_null
  %_6 = invoke zeroext i1 @"_ZN4core3ptr7mut_ptr31_$LT$impl$u20$$BP$mut$u20$T$GT$7is_null17h2003ae6a0b248336E"([2 x [4 x i64]]* %_7)
          to label %bb2 unwind label %cleanup, !dbg !3051

bb2:                                              ; preds = %bb1
  br i1 %_6, label %bb3, label %bb17, !dbg !3051

bb17:                                             ; preds = %bb16, %bb2
  %_32 = load [2 x [4 x i64]]*, [2 x [4 x i64]]** %ptr, align 8, !dbg !3052
  %12 = bitcast i64** %2 to [2 x [4 x i64]]**, !dbg !3053
  store [2 x [4 x i64]]* %_32, [2 x [4 x i64]]** %12, align 8, !dbg !3053
  %13 = load i8, i8* %_33, align 1, !dbg !3050, !range !499, !noundef !14
  %14 = trunc i8 %13 to i1, !dbg !3050
  br i1 %14, label %bb20, label %bb18, !dbg !3050

bb3:                                              ; preds = %bb2
  store i8 0, i8* %_33, align 1, !dbg !3054
; invoke once_cell::race::once_box::OnceBox<T>::get_or_init::{{closure}}
  %_10 = invoke align 8 i64* @"_ZN9once_cell4race8once_box16OnceBox$LT$T$GT$11get_or_init28_$u7b$$u7b$closure$u7d$$u7d$17h0638988005f666c3E"()
          to label %bb4 unwind label %cleanup, !dbg !3054

bb4:                                              ; preds = %bb3
; invoke <core::result::Result<T,E> as core::ops::try_trait::Try>::branch
  %15 = invoke align 8 i64* @"_ZN79_$LT$core..result..Result$LT$T$C$E$GT$$u20$as$u20$core..ops..try_trait..Try$GT$6branch17hfab63f2459208254E"(i64* align 8 %_10)
          to label %bb5 unwind label %cleanup, !dbg !3054

bb5:                                              ; preds = %bb4
  store i64* %15, i64** %_9, align 8, !dbg !3054
  switch i64 0, label %bb7 [
    i64 0, label %bb6
    i64 1, label %bb8
  ], !dbg !3054

bb7:                                              ; preds = %bb5
  unreachable, !dbg !3054

bb6:                                              ; preds = %bb5
  %16 = bitcast i64** %_9 to [2 x [4 x i64]]**, !dbg !3054
  %val2 = load [2 x [4 x i64]]*, [2 x [4 x i64]]** %16, align 8, !dbg !3054, !nonnull !14, !align !303, !noundef !14
  store [2 x [4 x i64]]* %val2, [2 x [4 x i64]]** %val.dbg.spill, align 8, !dbg !3054
  call void @llvm.dbg.declare(metadata [2 x [4 x i64]]** %val.dbg.spill, metadata !3033, metadata !DIExpression()), !dbg !3055
  store i8 1, i8* %_34, align 1, !dbg !3055
  store [2 x [4 x i64]]* %val2, [2 x [4 x i64]]** %val, align 8, !dbg !3055
  store i8 0, i8* %_34, align 1, !dbg !3056
  %_18 = load [2 x [4 x i64]]*, [2 x [4 x i64]]** %val, align 8, !dbg !3056, !nonnull !14, !align !303, !noundef !14, !rawptr !740
; invoke alloc::boxed::Box<T,A>::into_raw
  %_17 = invoke [2 x [4 x i64]]* @"_ZN5alloc5boxed16Box$LT$T$C$A$GT$8into_raw17h92bf4ab6cd2e0cd0E"([2 x [4 x i64]]* align 8 %_18)
          to label %bb10 unwind label %cleanup3, !dbg !3057, !rawptr !740

bb8:                                              ; preds = %bb5
