; ModuleID = 'getrandom.4ce49bd4-cgu.0'
source_filename = "getrandom.4ce49bd4-cgu.0"
target datalayout = "e-m:e-p270:32:32-p271:32:32-p272:64:64-i64:64-f80:128-n8:16:32:64-S128"
target triple = "x86_64-unknown-linux-gnu"

%"core::ptr::metadata::PtrRepr<[u8]>" = type { [2 x i64] }
%"[closure@<core::ops::range::Range<usize> as core::slice::index::SliceIndex<[u8]>>::get_unchecked::{closure#0}]" = type { i64*, i64*, { [0 x i8]*, i64 }* }
%"core::ptr::metadata::PtrRepr<[core::mem::maybe_uninit::MaybeUninit<u8>]>" = type { [2 x i64] }
%"[closure@<core::ops::range::Range<usize> as core::slice::index::SliceIndex<[core::mem::maybe_uninit::MaybeUninit<u8>]>>::get_unchecked_mut::{closure#0}]" = type { i64*, i64*, { [0 x i8]*, i64 }* }
%"core::panic::location::Location" = type { { [0 x i8]*, i64 }, i32, i32 }
%"core::result::Result<i32, error::Error>" = type { i32, [1 x i32] }
%"core::result::Result<i32, error::Error>::Err" = type { [1 x i32], i32 }
%"core::fmt::Formatter" = type { { i64, i64 }, { i64, i64 }, { {}*, [3 x i64]* }, i32, i32, i8, [7 x i8] }
%"core::fmt::Opaque" = type {}
%"core::fmt::Arguments" = type { { [0 x { [0 x i8]*, i64 }]*, i64 }, { i64*, i64 }, { [0 x { i8*, i64* }]*, i64 } }
%"use_file::DropGuard<[closure@/home/dy3199/.cargo/registry/src/github.com-1ecc6299db9ec823/getrandom-0.2.12/src/use_file.rs:58:28: 58:56]>" = type { %"[closure@/home/dy3199/.cargo/registry/src/github.com-1ecc6299db9ec823/getrandom-0.2.12/src/use_file.rs:58:28: 58:56]" }
%"[closure@/home/dy3199/.cargo/registry/src/github.com-1ecc6299db9ec823/getrandom-0.2.12/src/use_file.rs:58:28: 58:56]" = type {}
%"core::sync::atomic::AtomicUsize" = type { i64 }
%"core::ptr::metadata::PtrComponents<u8>" = type { {}*, {} }
%"core::ptr::metadata::PtrRepr<u8>" = type { [1 x i64] }
%"core::result::Result<&mut [core::mem::maybe_uninit::MaybeUninit<u8>], error::Error>" = type { i32, [5 x i32] }
%"core::result::Result<&mut [core::mem::maybe_uninit::MaybeUninit<u8>], error::Error>::Err" = type { [1 x i32], i32 }
%"core::result::Result<&mut [core::mem::maybe_uninit::MaybeUninit<u8>], error::Error>::Ok" = type { [1 x i64], { [0 x i8]*, i64 } }
%"core::result::Result<&str, core::str::error::Utf8Error>" = type { i64, [2 x i64] }
%"core::str::error::Utf8Error" = type { i64, { i8, i8 }, [6 x i8] }
%"core::result::Result<&str, core::str::error::Utf8Error>::Ok" = type { [1 x i64], { [0 x i8]*, i64 } }
%"core::result::Result<&str, core::str::error::Utf8Error>::Err" = type { [1 x i64], %"core::str::error::Utf8Error" }
%"core::option::Option<core::fmt::Arguments>" = type { {}*, [5 x i64] }
%"core::ops::control_flow::ControlFlow<core::result::Result<core::convert::Infallible, error::Error>>::Continue" = type { {} }
%"core::ops::control_flow::ControlFlow<core::result::Result<core::convert::Infallible, error::Error>, i32>" = type { i32, [1 x i32] }
%"core::result::Result<i32, error::Error>::Ok" = type { [1 x i32], i32 }
%"core::ops::control_flow::ControlFlow<core::result::Result<core::convert::Infallible, error::Error>, i32>::Continue" = type { [1 x i32], i32 }
%"core::ops::control_flow::ControlFlow<core::result::Result<core::convert::Infallible, error::Error>, i32>::Break" = type { [1 x i32], i32 }
%"core::ops::control_flow::ControlFlow<core::result::Result<core::convert::Infallible, error::Error>, &mut [core::mem::maybe_uninit::MaybeUninit<u8>]>" = type { i32, [5 x i32] }
%"core::ops::control_flow::ControlFlow<core::result::Result<core::convert::Infallible, error::Error>, &mut [core::mem::maybe_uninit::MaybeUninit<u8>]>::Continue" = type { [1 x i64], { [0 x i8]*, i64 } }
%"core::ops::control_flow::ControlFlow<core::result::Result<core::convert::Infallible, error::Error>, &mut [core::mem::maybe_uninit::MaybeUninit<u8>]>::Break" = type { [1 x i32], i32 }
%"[closure@/home/dy3199/.cargo/registry/src/github.com-1ecc6299db9ec823/getrandom-0.2.12/src/error.rs:109:43: 109:54]" = type {}
%"core::fmt::builders::DebugStruct" = type { %"core::fmt::Formatter"*, i8, i8, [6 x i8] }
%"[closure@/home/dy3199/.cargo/registry/src/github.com-1ecc6299db9ec823/getrandom-0.2.12/src/linux_android.rs:13:30: 15:10]" = type {}
%"use_file::Mutex" = type { %"core::cell::UnsafeCell<libc::unix::linux_like::linux::pthread_mutex_t>" }
%"core::cell::UnsafeCell<libc::unix::linux_like::linux::pthread_mutex_t>" = type { %"libc::unix::linux_like::linux::pthread_mutex_t" }
%"libc::unix::linux_like::linux::pthread_mutex_t" = type { [40 x i8] }
%"libc::unix::pollfd" = type { i32, i16, i16 }
%"lazy::LazyUsize" = type { %"core::sync::atomic::AtomicUsize" }
%"[closure@/home/dy3199/.cargo/registry/src/github.com-1ecc6299db9ec823/getrandom-0.2.12/src/lazy.rs:54:28: 54:46]" = type { {} }
%"lazy::LazyBool" = type { %"lazy::LazyUsize" }
%"core::ptr::metadata::PtrComponents<core::ffi::c_void>" = type { {}*, {} }
%"core::ptr::metadata::PtrRepr<core::ffi::c_void>" = type { [1 x i64] }

@alloc218 = private unnamed_addr constant <{ [12 x i8] }> <{ [12 x i8] c"invalid args" }>, align 1
@alloc219 = private unnamed_addr constant <{ i8*, [8 x i8] }> <{ i8* getelementptr inbounds (<{ [12 x i8] }>, <{ [12 x i8] }>* @alloc218, i32 0, i32 0, i32 0), [8 x i8] c"\0C\00\00\00\00\00\00\00" }>, align 8
@alloc245 = private unnamed_addr constant <{}> zeroinitializer, align 8
@alloc476 = private unnamed_addr constant <{ [60 x i8] }> <{ [60 x i8] c"/home/dy3199/s2fuzz/scripts/rust/library/core/src/fmt/mod.rs" }>, align 1
@alloc477 = private unnamed_addr constant <{ i8*, [16 x i8] }> <{ i8* getelementptr inbounds (<{ [60 x i8] }>, <{ [60 x i8] }>* @alloc476, i32 0, i32 0, i32 0), [16 x i8] c"<\00\00\00\00\00\00\00\88\01\00\00\0D\00\00\00" }>, align 8
@alloc208 = private unnamed_addr constant <{ [49 x i8] }> <{ [49 x i8] c"there is no such thing as an acquire-release load" }>, align 1
@alloc209 = private unnamed_addr constant <{ i8*, [8 x i8] }> <{ i8* getelementptr inbounds (<{ [49 x i8] }>, <{ [49 x i8] }>* @alloc208, i32 0, i32 0, i32 0), [8 x i8] c"1\00\00\00\00\00\00\00" }>, align 8
@alloc484 = private unnamed_addr constant <{ [64 x i8] }> <{ [64 x i8] c"/home/dy3199/s2fuzz/scripts/rust/library/core/src/sync/atomic.rs" }>, align 1
@alloc479 = private unnamed_addr constant <{ i8*, [16 x i8] }> <{ i8* getelementptr inbounds (<{ [64 x i8] }>, <{ [64 x i8] }>* @alloc484, i32 0, i32 0, i32 0), [16 x i8] c"@\00\00\00\00\00\00\00H\0A\00\00\17\00\00\00" }>, align 8
@alloc213 = private unnamed_addr constant <{ [40 x i8] }> <{ [40 x i8] c"there is no such thing as a release load" }>, align 1
@alloc214 = private unnamed_addr constant <{ i8*, [8 x i8] }> <{ i8* getelementptr inbounds (<{ [40 x i8] }>, <{ [40 x i8] }>* @alloc213, i32 0, i32 0, i32 0), [8 x i8] c"(\00\00\00\00\00\00\00" }>, align 8
@alloc481 = private unnamed_addr constant <{ i8*, [16 x i8] }> <{ i8* getelementptr inbounds (<{ [64 x i8] }>, <{ [64 x i8] }>* @alloc484, i32 0, i32 0, i32 0), [16 x i8] c"@\00\00\00\00\00\00\00G\0A\00\00\18\00\00\00" }>, align 8
@alloc237 = private unnamed_addr constant <{ [50 x i8] }> <{ [50 x i8] c"there is no such thing as an acquire-release store" }>, align 1
@alloc238 = private unnamed_addr constant <{ i8*, [8 x i8] }> <{ i8* getelementptr inbounds (<{ [50 x i8] }>, <{ [50 x i8] }>* @alloc237, i32 0, i32 0, i32 0), [8 x i8] c"2\00\00\00\00\00\00\00" }>, align 8
@alloc483 = private unnamed_addr constant <{ i8*, [16 x i8] }> <{ i8* getelementptr inbounds (<{ [64 x i8] }>, <{ [64 x i8] }>* @alloc484, i32 0, i32 0, i32 0), [16 x i8] c"@\00\00\00\00\00\00\00:\0A\00\00\17\00\00\00" }>, align 8
@alloc242 = private unnamed_addr constant <{ [42 x i8] }> <{ [42 x i8] c"there is no such thing as an acquire store" }>, align 1
@alloc243 = private unnamed_addr constant <{ i8*, [8 x i8] }> <{ i8* getelementptr inbounds (<{ [42 x i8] }>, <{ [42 x i8] }>* @alloc242, i32 0, i32 0, i32 0), [8 x i8] c"*\00\00\00\00\00\00\00" }>, align 8
@alloc485 = private unnamed_addr constant <{ i8*, [16 x i8] }> <{ i8* getelementptr inbounds (<{ [64 x i8] }>, <{ [64 x i8] }>* @alloc484, i32 0, i32 0, i32 0), [16 x i8] c"@\00\00\00\00\00\00\009\0A\00\00\18\00\00\00" }>, align 8
@alloc486 = private unnamed_addr constant <{ [43 x i8] }> <{ [43 x i8] c"called `Option::unwrap()` on a `None` value" }>, align 1
@vtable.0 = private unnamed_addr constant <{ i8*, [16 x i8], i8* }> <{ i8* bitcast (void (i32**)* @"_ZN4core3ptr28drop_in_place$LT$$RF$i32$GT$17h76da04544d23bfa4E" to i8*), [16 x i8] c"\08\00\00\00\00\00\00\00\08\00\00\00\00\00\00\00", i8* bitcast (i1 (i32**, %"core::fmt::Formatter"*)* @"_ZN42_$LT$$RF$T$u20$as$u20$core..fmt..Debug$GT$3fmt17h62ca58d32a1488dfE" to i8*) }>, align 8, !dbg !0
@vtable.1 = private unnamed_addr constant <{ i8*, [16 x i8], i8* }> <{ i8* bitcast (void (i8***)* @"_ZN4core3ptr59drop_in_place$LT$$RF$core..option..Option$LT$$RF$u8$GT$$GT$17h40b8904daa997f0fE" to i8*), [16 x i8] c"\08\00\00\00\00\00\00\00\08\00\00\00\00\00\00\00", i8* bitcast (i1 (i8***, %"core::fmt::Formatter"*)* @"_ZN42_$LT$$RF$T$u20$as$u20$core..fmt..Debug$GT$3fmt17h944f6a510380f761E" to i8*) }>, align 8, !dbg !15
@alloc493 = private unnamed_addr constant <{ [4 x i8] }> <{ [4 x i8] c"Some" }>, align 1
@vtable.2 = private unnamed_addr constant <{ i8*, [16 x i8], i8* }> <{ i8* bitcast (void (i8***)* @"_ZN4core3ptr31drop_in_place$LT$$RF$$RF$u8$GT$17hb66363af6df6b951E" to i8*), [16 x i8] c"\08\00\00\00\00\00\00\00\08\00\00\00\00\00\00\00", i8* bitcast (i1 (i8***, %"core::fmt::Formatter"*)* @"_ZN42_$LT$$RF$T$u20$as$u20$core..fmt..Debug$GT$3fmt17h7e996fa1da7a195cE" to i8*) }>, align 8, !dbg !42
@alloc497 = private unnamed_addr constant <{ [4 x i8] }> <{ [4 x i8] c"None" }>, align 1
@alloc498 = private unnamed_addr constant <{ [63 x i8] }> <{ [63 x i8] c"/home/dy3199/s2fuzz/scripts/rust/library/core/src/slice/iter.rs" }>, align 1
@alloc499 = private unnamed_addr constant <{ i8*, [16 x i8] }> <{ i8* getelementptr inbounds (<{ [63 x i8] }>, <{ [63 x i8] }>* @alloc498, i32 0, i32 0, i32 0), [16 x i8] c"?\00\00\00\00\00\00\00\87\00\00\00\01\00\00\00" }>, align 8
@str.3 = internal constant [28 x i8] c"attempt to add with overflow"
@alloc530 = private unnamed_addr constant <{ [90 x i8] }> <{ [90 x i8] c"/home/dy3199/.cargo/registry/src/github.com-1ecc6299db9ec823/getrandom-0.2.12/src/error.rs" }>, align 1
@alloc501 = private unnamed_addr constant <{ i8*, [16 x i8] }> <{ i8* getelementptr inbounds (<{ [90 x i8] }>, <{ [90 x i8] }>* @alloc530, i32 0, i32 0, i32 0), [16 x i8] c"Z\00\00\00\00\00\00\00\16\00\00\00\10\00\00\00" }>, align 8
@alloc502 = private unnamed_addr constant <{ [5 x i8] }> <{ [5 x i8] c"Error" }>, align 1
@alloc503 = private unnamed_addr constant <{ [12 x i8] }> <{ [12 x i8] c"unknown_code" }>, align 1
@vtable.4 = private unnamed_addr constant <{ i8*, [16 x i8], i8* }> <{ i8* bitcast (void (i32*)* @"_ZN4core3ptr24drop_in_place$LT$u32$GT$17h78d3eb013156d9feE" to i8*), [16 x i8] c"\04\00\00\00\00\00\00\00\04\00\00\00\00\00\00\00", i8* bitcast (i1 (i32*, %"core::fmt::Formatter"*)* @"_ZN4core3fmt3num50_$LT$impl$u20$core..fmt..Debug$u20$for$u20$u32$GT$3fmt17ha39c3876fa88cd61E" to i8*) }>, align 8, !dbg !51
@alloc507 = private unnamed_addr constant <{ [13 x i8] }> <{ [13 x i8] c"internal_code" }>, align 1
@alloc516 = private unnamed_addr constant <{ [11 x i8] }> <{ [11 x i8] c"description" }>, align 1
@vtable.5 = private unnamed_addr constant <{ i8*, [16 x i8], i8* }> <{ i8* bitcast (void ({ [0 x i8]*, i64 }*)* @"_ZN4core3ptr28drop_in_place$LT$$RF$str$GT$17h060d2585bf47b5feE" to i8*), [16 x i8] c"\10\00\00\00\00\00\00\00\08\00\00\00\00\00\00\00", i8* bitcast (i1 ({ [0 x i8]*, i64 }*, %"core::fmt::Formatter"*)* @"_ZN42_$LT$$RF$T$u20$as$u20$core..fmt..Debug$GT$3fmt17h4c0ec8bd4d63c06bE" to i8*) }>, align 8, !dbg !60
@alloc512 = private unnamed_addr constant <{ [8 x i8] }> <{ [8 x i8] c"os_error" }>, align 1
@vtable.6 = private unnamed_addr constant <{ i8*, [16 x i8], i8* }> <{ i8* bitcast (void (i32*)* @"_ZN4core3ptr24drop_in_place$LT$i32$GT$17h1a8cb7c596225aa9E" to i8*), [16 x i8] c"\04\00\00\00\00\00\00\00\04\00\00\00\00\00\00\00", i8* bitcast (i1 (i32*, %"core::fmt::Formatter"*)* @"_ZN4core3fmt3num50_$LT$impl$u20$core..fmt..Debug$u20$for$u20$i32$GT$3fmt17hf8296b14d5bd5665E" to i8*) }>, align 8, !dbg !73
@alloc473 = private unnamed_addr constant <{ [15 x i8] }> <{ [15 x i8] c"Unknown Error: " }>, align 1
@alloc474 = private unnamed_addr constant <{ i8*, [8 x i8] }> <{ i8* getelementptr inbounds (<{ [15 x i8] }>, <{ [15 x i8] }>* @alloc473, i32 0, i32 0, i32 0), [8 x i8] c"\0F\00\00\00\00\00\00\00" }>, align 8
@alloc470 = private unnamed_addr constant <{ [10 x i8] }> <{ [10 x i8] c"OS Error: " }>, align 1
@alloc471 = private unnamed_addr constant <{ i8*, [8 x i8] }> <{ i8* getelementptr inbounds (<{ [10 x i8] }>, <{ [10 x i8] }>* @alloc470, i32 0, i32 0, i32 0), [8 x i8] c"\0A\00\00\00\00\00\00\00" }>, align 8
@alloc517 = private unnamed_addr constant <{ [101 x i8] }> <{ [101 x i8] c"Node.js ES modules are not directly supported, see https://docs.rs/getrandom#nodejs-es-module-support" }>, align 1
@alloc518 = private unnamed_addr constant <{ [48 x i8] }> <{ [48 x i8] c"Calling Node.js API crypto.randomFillSync failed" }>, align 1
@alloc519 = private unnamed_addr constant <{ [45 x i8] }> <{ [45 x i8] c"Node.js crypto CommonJS module is unavailable" }>, align 1
@alloc520 = private unnamed_addr constant <{ [49 x i8] }> <{ [49 x i8] c"randSecure: VxWorks RNG module is not initialized" }>, align 1
@alloc521 = private unnamed_addr constant <{ [45 x i8] }> <{ [45 x i8] c"Calling Web API crypto.getRandomValues failed" }>, align 1
@alloc522 = private unnamed_addr constant <{ [29 x i8] }> <{ [29 x i8] c"Web Crypto API is unavailable" }>, align 1
@alloc523 = private unnamed_addr constant <{ [33 x i8] }> <{ [33 x i8] c"RDRAND: instruction not supported" }>, align 1
@alloc524 = private unnamed_addr constant <{ [47 x i8] }> <{ [47 x i8] c"RDRAND: failed multiple times: CPU issue likely" }>, align 1
@alloc525 = private unnamed_addr constant <{ [45 x i8] }> <{ [45 x i8] c"RtlGenRandom: Windows system function failure" }>, align 1
@alloc526 = private unnamed_addr constant <{ [50 x i8] }> <{ [50 x i8] c"SecRandomCopyBytes: iOS Security framework failure" }>, align 1
@alloc527 = private unnamed_addr constant <{ [20 x i8] }> <{ [20 x i8] c"unexpected situation" }>, align 1
@alloc528 = private unnamed_addr constant <{ [38 x i8] }> <{ [38 x i8] c"errno: did not return a positive value" }>, align 1
@alloc529 = private unnamed_addr constant <{ [39 x i8] }> <{ [39 x i8] c"getrandom: this target is not supported" }>, align 1
@alloc531 = private unnamed_addr constant <{ i8*, [16 x i8] }> <{ i8* getelementptr inbounds (<{ [90 x i8] }>, <{ [90 x i8] }>* @alloc530, i32 0, i32 0, i32 0), [16 x i8] c"Z\00\00\00\00\00\00\00n\00\00\00#\00\00\00" }>, align 8
@alloc536 = private unnamed_addr constant <{ [94 x i8] }> <{ [94 x i8] c"/home/dy3199/.cargo/registry/src/github.com-1ecc6299db9ec823/getrandom-0.2.12/src/util_libc.rs" }>, align 1
@alloc533 = private unnamed_addr constant <{ i8*, [16 x i8] }> <{ i8* getelementptr inbounds (<{ [94 x i8] }>, <{ [94 x i8] }>* @alloc536, i32 0, i32 0, i32 0), [16 x i8] c"^\00\00\00\00\00\00\002\00\00\003\00\00\00" }>, align 8
@alloc535 = private unnamed_addr constant <{ i8*, [16 x i8] }> <{ i8* getelementptr inbounds (<{ [94 x i8] }>, <{ [94 x i8] }>* @alloc536, i32 0, i32 0, i32 0), [16 x i8] c"^\00\00\00\00\00\00\00B\00\00\00%\00\00\00" }>, align 8
@alloc328 = private unnamed_addr constant <{ [8 x i8] }> <{ [8 x i8] c"\01\00\00\00\04\00\00\00" }>, align 4
@alloc317 = private unnamed_addr constant <{ [1 x i8] }> zeroinitializer, align 1
@alloc318 = private unnamed_addr constant <{ i8* }> <{ i8* getelementptr inbounds (<{ [1 x i8] }>, <{ [1 x i8] }>* @alloc317, i32 0, i32 0, i32 0) }>, align 8
@alloc537 = private unnamed_addr constant <{ i8*, [16 x i8] }> <{ i8* getelementptr inbounds (<{ [94 x i8] }>, <{ [94 x i8] }>* @alloc536, i32 0, i32 0, i32 0), [16 x i8] c"^\00\00\00\00\00\00\00\8D\00\00\00\05\00\00\00" }>, align 8
@alloc555 = private unnamed_addr constant <{ [93 x i8] }> <{ [93 x i8] c"/home/dy3199/.cargo/registry/src/github.com-1ecc6299db9ec823/getrandom-0.2.12/src/use_file.rs" }>, align 1
@alloc539 = private unnamed_addr constant <{ i8*, [16 x i8] }> <{ i8* getelementptr inbounds (<{ [93 x i8] }>, <{ [93 x i8] }>* @alloc555, i32 0, i32 0, i32 0), [16 x i8] c"]\00\00\00\00\00\00\00\1F\00\00\00\0E\00\00\00" }>, align 8
@alloc541 = private unnamed_addr constant <{ i8*, [16 x i8] }> <{ i8* getelementptr inbounds (<{ [93 x i8] }>, <{ [93 x i8] }>* @alloc555, i32 0, i32 0, i32 0), [16 x i8] c"]\00\00\00\00\00\00\00B\00\00\00\05\00\00\00" }>, align 8
@alloc542 = private unnamed_addr constant <{ [13 x i8] }> <{ [13 x i8] c"/dev/urandom\00" }>, align 1
@alloc544 = private unnamed_addr constant <{ i8*, [16 x i8] }> <{ i8* getelementptr inbounds (<{ [93 x i8] }>, <{ [93 x i8] }>* @alloc555, i32 0, i32 0, i32 0), [16 x i8] c"]\00\00\00\00\00\00\00D\00\00\00\17\00\00\00" }>, align 8
@alloc545 = private unnamed_addr constant <{ [54 x i8] }> <{ [54 x i8] c"assertion failed: fd >= 0 && (fd as usize) < FD_UNINIT" }>, align 1
@alloc547 = private unnamed_addr constant <{ i8*, [16 x i8] }> <{ i8* getelementptr inbounds (<{ [93 x i8] }>, <{ [93 x i8] }>* @alloc555, i32 0, i32 0, i32 0), [16 x i8] c"]\00\00\00\00\00\00\00F\00\00\00\05\00\00\00" }>, align 8
@_ZN9getrandom8use_file10get_rng_fd2FD17ha0eb6fdf255b619fE = internal global <{ [8 x i8] }> <{ [8 x i8] c"\FF\FF\FF\FF\FF\FF\FF\FF" }>, align 8, !dbg !81
@_ZN9getrandom8use_file10get_rng_fd5MUTEX17hf654e78fcce2fce8E = internal global <{ [40 x i8] }> zeroinitializer, align 8, !dbg !98
@alloc548 = private unnamed_addr constant <{ [12 x i8] }> <{ [12 x i8] c"/dev/random\00" }>, align 1
@alloc550 = private unnamed_addr constant <{ i8*, [16 x i8] }> <{ i8* getelementptr inbounds (<{ [93 x i8] }>, <{ [93 x i8] }>* @alloc555, i32 0, i32 0, i32 0), [16 x i8] c"]\00\00\00\00\00\00\00P\00\00\00\17\00\00\00" }>, align 8
@alloc298 = private unnamed_addr constant <{ [4 x i8] }> <{ [4 x i8] c"\01\00\00\00" }>, align 4
@alloc552 = private unnamed_addr constant <{ i8*, [16 x i8] }> <{ i8* getelementptr inbounds (<{ [93 x i8] }>, <{ [93 x i8] }>* @alloc555, i32 0, i32 0, i32 0), [16 x i8] c"]\00\00\00\00\00\00\00^\00\00\00\0D\00\00\00" }>, align 8
@alloc342 = private unnamed_addr constant <{ [4 x i8] }> zeroinitializer, align 4
@alloc554 = private unnamed_addr constant <{ i8*, [16 x i8] }> <{ i8* getelementptr inbounds (<{ [93 x i8] }>, <{ [93 x i8] }>* @alloc555, i32 0, i32 0, i32 0), [16 x i8] c"]\00\00\00\00\00\00\00q\00\00\00\09\00\00\00" }>, align 8
@alloc556 = private unnamed_addr constant <{ i8*, [16 x i8] }> <{ i8* getelementptr inbounds (<{ [93 x i8] }>, <{ [93 x i8] }>* @alloc555, i32 0, i32 0, i32 0), [16 x i8] c"]\00\00\00\00\00\00\00u\00\00\00\09\00\00\00" }>, align 8
@_ZN9getrandom3imp15getrandom_inner13HAS_GETRANDOM17h12563d3fcca70151E = internal global <{ [8 x i8] }> <{ [8 x i8] c"\FF\FF\FF\FF\FF\FF\FF\FF" }>, align 8, !dbg !118

; <core::ops::range::Range<usize> as core::slice::index::SliceIndex<[T]>>::get_unchecked
; Function Attrs: inlinehint nonlazybind uwtable
define { [0 x i8]*, i64 } @"_ZN106_$LT$core..ops..range..Range$LT$usize$GT$$u20$as$u20$core..slice..index..SliceIndex$LT$$u5b$T$u5d$$GT$$GT$13get_unchecked17h46d3e53f4e2e4f4cE"(i64 %self.0, i64 %self.1, [0 x i8]* %slice.0, i64 %slice.1) unnamed_addr #0 !dbg !164 {
start:
  %metadata.dbg.spill = alloca i64, align 8
  %data_address.dbg.spill = alloca {}*, align 8
  %self.dbg.spill5 = alloca i8*, align 8
  %len.dbg.spill = alloca i64, align 8
  %data.dbg.spill = alloca i8*, align 8
  %0 = alloca i8*, align 8
  %count.dbg.spill4 = alloca i64, align 8
  %self.dbg.spill3 = alloca i8*, align 8
  %count.dbg.spill = alloca i64, align 8
  %self.dbg.spill2 = alloca i8*, align 8
  %self.dbg.spill1 = alloca { [0 x i8]*, i64 }, align 8
  %slice.dbg.spill = alloca { [0 x i8]*, i64 }, align 8
  %self.dbg.spill = alloca { i64, i64 }, align 8
  %_22 = alloca { i8*, i64 }, align 8
  %_21 = alloca %"core::ptr::metadata::PtrRepr<[u8]>", align 8
  %runtime = alloca %"[closure@<core::ops::range::Range<usize> as core::slice::index::SliceIndex<[u8]>>::get_unchecked::{closure#0}]", align 8
  %1 = getelementptr inbounds { i64, i64 }, { i64, i64 }* %self.dbg.spill, i32 0, i32 0
  store i64 %self.0, i64* %1, align 8
  %2 = getelementptr inbounds { i64, i64 }, { i64, i64 }* %self.dbg.spill, i32 0, i32 1
  store i64 %self.1, i64* %2, align 8
  call void @llvm.dbg.declare(metadata { i64, i64 }* %self.dbg.spill, metadata !184, metadata !DIExpression()), !dbg !200
  %3 = getelementptr inbounds { [0 x i8]*, i64 }, { [0 x i8]*, i64 }* %slice.dbg.spill, i32 0, i32 0
  store [0 x i8]* %slice.0, [0 x i8]** %3, align 8
  %4 = getelementptr inbounds { [0 x i8]*, i64 }, { [0 x i8]*, i64 }* %slice.dbg.spill, i32 0, i32 1
  store i64 %slice.1, i64* %4, align 8
  call void @llvm.dbg.declare(metadata { [0 x i8]*, i64 }* %slice.dbg.spill, metadata !185, metadata !DIExpression()), !dbg !201
  call void @llvm.dbg.declare(metadata %"[closure@<core::ops::range::Range<usize> as core::slice::index::SliceIndex<[u8]>>::get_unchecked::{closure#0}]"* %runtime, metadata !186, metadata !DIExpression()), !dbg !202
  %5 = getelementptr inbounds { [0 x i8]*, i64 }, { [0 x i8]*, i64 }* %self.dbg.spill1, i32 0, i32 0, !dbg !203
  store [0 x i8]* %slice.0, [0 x i8]** %5, align 8, !dbg !203
  %6 = getelementptr inbounds { [0 x i8]*, i64 }, { [0 x i8]*, i64 }* %self.dbg.spill1, i32 0, i32 1, !dbg !203
  store i64 %slice.1, i64* %6, align 8, !dbg !203
  call void @llvm.dbg.declare(metadata { [0 x i8]*, i64 }* %self.dbg.spill1, metadata !204, metadata !DIExpression()), !dbg !215
  %self = bitcast [0 x i8]* %slice.0 to i8*, !dbg !215, !rawptr !216
  store i8* %self, i8** %self.dbg.spill2, align 8, !dbg !215
  call void @llvm.dbg.declare(metadata i8** %self.dbg.spill2, metadata !217, metadata !DIExpression()), !dbg !225
  store i64 %self.0, i64* %count.dbg.spill, align 8, !dbg !226
  call void @llvm.dbg.declare(metadata i64* %count.dbg.spill, metadata !224, metadata !DIExpression()), !dbg !225
  store i8* %self, i8** %self.dbg.spill3, align 8, !dbg !225
  call void @llvm.dbg.declare(metadata i8** %self.dbg.spill3, metadata !227, metadata !DIExpression()), !dbg !235
  store i64 %self.0, i64* %count.dbg.spill4, align 8, !dbg !225
  call void @llvm.dbg.declare(metadata i64* %count.dbg.spill4, metadata !234, metadata !DIExpression()), !dbg !235
  %7 = getelementptr inbounds i8, i8* %self, i64 %self.0, !dbg !235
  store i8* %7, i8** %0, align 8, !dbg !235
  %data = load i8*, i8** %0, align 8, !dbg !235, !rawptr !216
  store i8* %data, i8** %data.dbg.spill, align 8, !dbg !235
  call void @llvm.dbg.declare(metadata i8** %data.dbg.spill, metadata !237, metadata !DIExpression()), !dbg !245
  br label %bb1, !dbg !235

bb1:                                              ; preds = %start
  %len = sub i64 %self.1, %self.0, !dbg !247
  store i64 %len, i64* %len.dbg.spill, align 8, !dbg !247
  call void @llvm.dbg.declare(metadata i64* %len.dbg.spill, metadata !244, metadata !DIExpression()), !dbg !245
  store i8* %data, i8** %self.dbg.spill5, align 8, !dbg !245
  call void @llvm.dbg.declare(metadata i8** %self.dbg.spill5, metadata !248, metadata !DIExpression()), !dbg !256
  %data_address = bitcast i8* %data to {}*, !dbg !256, !rawptr !216
  store {}* %data_address, {}** %data_address.dbg.spill, align 8, !dbg !256
  call void @llvm.dbg.declare(metadata {}** %data_address.dbg.spill, metadata !258, metadata !DIExpression()), !dbg !267
  store i64 %len, i64* %metadata.dbg.spill, align 8, !dbg !245
  call void @llvm.dbg.declare(metadata i64* %metadata.dbg.spill, metadata !266, metadata !DIExpression()), !dbg !267
  %8 = bitcast { i8*, i64 }* %_22 to {}**, !dbg !267, !rawptr !216
  store {}* %data_address, {}** %8, align 8, !dbg !267
  %9 = getelementptr inbounds { i8*, i64 }, { i8*, i64 }* %_22, i32 0, i32 1, !dbg !267
  store i64 %len, i64* %9, align 8, !dbg !267
  %10 = bitcast %"core::ptr::metadata::PtrRepr<[u8]>"* %_21 to { i8*, i64 }*, !dbg !267
  %11 = getelementptr inbounds { i8*, i64 }, { i8*, i64 }* %_22, i32 0, i32 0, !dbg !267
  %12 = load i8*, i8** %11, align 8, !dbg !267
  %13 = getelementptr inbounds { i8*, i64 }, { i8*, i64 }* %_22, i32 0, i32 1, !dbg !267
  %14 = load i64, i64* %13, align 8, !dbg !267
  %15 = getelementptr inbounds { i8*, i64 }, { i8*, i64 }* %10, i32 0, i32 0, !dbg !267
  store i8* %12, i8** %15, align 8, !dbg !267
  %16 = getelementptr inbounds { i8*, i64 }, { i8*, i64 }* %10, i32 0, i32 1, !dbg !267
  store i64 %14, i64* %16, align 8, !dbg !267
  %17 = bitcast %"core::ptr::metadata::PtrRepr<[u8]>"* %_21 to { [0 x i8]*, i64 }*, !dbg !267
  %18 = getelementptr inbounds { [0 x i8]*, i64 }, { [0 x i8]*, i64 }* %17, i32 0, i32 0, !dbg !267
  %19 = load [0 x i8]*, [0 x i8]** %18, align 8, !dbg !267, !rawptr !216
  %20 = getelementptr inbounds { [0 x i8]*, i64 }, { [0 x i8]*, i64 }* %17, i32 0, i32 1, !dbg !267
  %21 = load i64, i64* %20, align 8, !dbg !267, !rawptr !216
  %22 = insertvalue { [0 x i8]*, i64 } undef, [0 x i8]* %19, 0, !dbg !269
  %23 = insertvalue { [0 x i8]*, i64 } %22, i64 %21, 1, !dbg !269
  ret { [0 x i8]*, i64 } %23, !dbg !269
}

; <core::ops::range::Range<usize> as core::slice::index::SliceIndex<[T]>>::get_unchecked_mut
; Function Attrs: inlinehint nonlazybind uwtable
define { [0 x i8]*, i64 } @"_ZN106_$LT$core..ops..range..Range$LT$usize$GT$$u20$as$u20$core..slice..index..SliceIndex$LT$$u5b$T$u5d$$GT$$GT$17get_unchecked_mut17h3e61a3a4d1351000E"(i64 %self.0, i64 %self.1, [0 x i8]* %slice.0, i64 %slice.1) unnamed_addr #0 !dbg !270 {
start:
  %metadata.dbg.spill = alloca i64, align 8
  %data_address.dbg.spill = alloca {}*, align 8
  %self.dbg.spill5 = alloca i8*, align 8
  %len.dbg.spill = alloca i64, align 8
  %data.dbg.spill = alloca i8*, align 8
  %0 = alloca i8*, align 8
  %count.dbg.spill4 = alloca i64, align 8
  %self.dbg.spill3 = alloca i8*, align 8
  %count.dbg.spill = alloca i64, align 8
  %self.dbg.spill2 = alloca i8*, align 8
  %self.dbg.spill1 = alloca { [0 x i8]*, i64 }, align 8
  %slice.dbg.spill = alloca { [0 x i8]*, i64 }, align 8
  %self.dbg.spill = alloca { i64, i64 }, align 8
  %_24 = alloca { i8*, i64 }, align 8
  %_23 = alloca %"core::ptr::metadata::PtrRepr<[core::mem::maybe_uninit::MaybeUninit<u8>]>", align 8
  %runtime = alloca %"[closure@<core::ops::range::Range<usize> as core::slice::index::SliceIndex<[core::mem::maybe_uninit::MaybeUninit<u8>]>>::get_unchecked_mut::{closure#0}]", align 8
  %1 = getelementptr inbounds { i64, i64 }, { i64, i64 }* %self.dbg.spill, i32 0, i32 0
  store i64 %self.0, i64* %1, align 8
  %2 = getelementptr inbounds { i64, i64 }, { i64, i64 }* %self.dbg.spill, i32 0, i32 1
  store i64 %self.1, i64* %2, align 8
  call void @llvm.dbg.declare(metadata { i64, i64 }* %self.dbg.spill, metadata !289, metadata !DIExpression()), !dbg !303
  %3 = getelementptr inbounds { [0 x i8]*, i64 }, { [0 x i8]*, i64 }* %slice.dbg.spill, i32 0, i32 0
  store [0 x i8]* %slice.0, [0 x i8]** %3, align 8
  %4 = getelementptr inbounds { [0 x i8]*, i64 }, { [0 x i8]*, i64 }* %slice.dbg.spill, i32 0, i32 1
  store i64 %slice.1, i64* %4, align 8
  call void @llvm.dbg.declare(metadata { [0 x i8]*, i64 }* %slice.dbg.spill, metadata !290, metadata !DIExpression()), !dbg !304
  call void @llvm.dbg.declare(metadata %"[closure@<core::ops::range::Range<usize> as core::slice::index::SliceIndex<[core::mem::maybe_uninit::MaybeUninit<u8>]>>::get_unchecked_mut::{closure#0}]"* %runtime, metadata !291, metadata !DIExpression()), !dbg !305
  %5 = getelementptr inbounds { [0 x i8]*, i64 }, { [0 x i8]*, i64 }* %self.dbg.spill1, i32 0, i32 0, !dbg !306
  store [0 x i8]* %slice.0, [0 x i8]** %5, align 8, !dbg !306
  %6 = getelementptr inbounds { [0 x i8]*, i64 }, { [0 x i8]*, i64 }* %self.dbg.spill1, i32 0, i32 1, !dbg !306
  store i64 %slice.1, i64* %6, align 8, !dbg !306
  call void @llvm.dbg.declare(metadata { [0 x i8]*, i64 }* %self.dbg.spill1, metadata !307, metadata !DIExpression()), !dbg !317
  %self = bitcast [0 x i8]* %slice.0 to i8*, !dbg !317, !rawptr !216
  store i8* %self, i8** %self.dbg.spill2, align 8, !dbg !317
  call void @llvm.dbg.declare(metadata i8** %self.dbg.spill2, metadata !318, metadata !DIExpression()), !dbg !326
  store i64 %self.0, i64* %count.dbg.spill, align 8, !dbg !327
  call void @llvm.dbg.declare(metadata i64* %count.dbg.spill, metadata !325, metadata !DIExpression()), !dbg !326
  store i8* %self, i8** %self.dbg.spill3, align 8, !dbg !326
  call void @llvm.dbg.declare(metadata i8** %self.dbg.spill3, metadata !328, metadata !DIExpression()), !dbg !335
  store i64 %self.0, i64* %count.dbg.spill4, align 8, !dbg !326
  call void @llvm.dbg.declare(metadata i64* %count.dbg.spill4, metadata !334, metadata !DIExpression()), !dbg !335
  %7 = getelementptr inbounds i8, i8* %self, i64 %self.0, !dbg !335
  store i8* %7, i8** %0, align 8, !dbg !335
  %_15 = load i8*, i8** %0, align 8, !dbg !335, !rawptr !216
  br label %bb1, !dbg !335

bb1:                                              ; preds = %start
  store i8* %_15, i8** %data.dbg.spill, align 8, !dbg !335
  call void @llvm.dbg.declare(metadata i8** %data.dbg.spill, metadata !337, metadata !DIExpression()), !dbg !344
  %len = sub i64 %self.1, %self.0, !dbg !346
  store i64 %len, i64* %len.dbg.spill, align 8, !dbg !346
  call void @llvm.dbg.declare(metadata i64* %len.dbg.spill, metadata !343, metadata !DIExpression()), !dbg !344
  store i8* %_15, i8** %self.dbg.spill5, align 8, !dbg !344
  call void @llvm.dbg.declare(metadata i8** %self.dbg.spill5, metadata !347, metadata !DIExpression()), !dbg !355
  %data_address = bitcast i8* %_15 to {}*, !dbg !355, !rawptr !216
  store {}* %data_address, {}** %data_address.dbg.spill, align 8, !dbg !355
  call void @llvm.dbg.declare(metadata {}** %data_address.dbg.spill, metadata !357, metadata !DIExpression()), !dbg !364
  store i64 %len, i64* %metadata.dbg.spill, align 8, !dbg !344
  call void @llvm.dbg.declare(metadata i64* %metadata.dbg.spill, metadata !363, metadata !DIExpression()), !dbg !364
  %8 = bitcast { i8*, i64 }* %_24 to {}**, !dbg !364, !rawptr !216
  store {}* %data_address, {}** %8, align 8, !dbg !364
  %9 = getelementptr inbounds { i8*, i64 }, { i8*, i64 }* %_24, i32 0, i32 1, !dbg !364
  store i64 %len, i64* %9, align 8, !dbg !364
  %10 = bitcast %"core::ptr::metadata::PtrRepr<[core::mem::maybe_uninit::MaybeUninit<u8>]>"* %_23 to { i8*, i64 }*, !dbg !364
  %11 = getelementptr inbounds { i8*, i64 }, { i8*, i64 }* %_24, i32 0, i32 0, !dbg !364
  %12 = load i8*, i8** %11, align 8, !dbg !364
  %13 = getelementptr inbounds { i8*, i64 }, { i8*, i64 }* %_24, i32 0, i32 1, !dbg !364
  %14 = load i64, i64* %13, align 8, !dbg !364
  %15 = getelementptr inbounds { i8*, i64 }, { i8*, i64 }* %10, i32 0, i32 0, !dbg !364
  store i8* %12, i8** %15, align 8, !dbg !364
  %16 = getelementptr inbounds { i8*, i64 }, { i8*, i64 }* %10, i32 0, i32 1, !dbg !364
  store i64 %14, i64* %16, align 8, !dbg !364
  %17 = bitcast %"core::ptr::metadata::PtrRepr<[core::mem::maybe_uninit::MaybeUninit<u8>]>"* %_23 to { [0 x i8]*, i64 }*, !dbg !364
  %18 = getelementptr inbounds { [0 x i8]*, i64 }, { [0 x i8]*, i64 }* %17, i32 0, i32 0, !dbg !364
  %19 = load [0 x i8]*, [0 x i8]** %18, align 8, !dbg !364, !rawptr !216
  %20 = getelementptr inbounds { [0 x i8]*, i64 }, { [0 x i8]*, i64 }* %17, i32 0, i32 1, !dbg !364
  %21 = load i64, i64* %20, align 8, !dbg !364, !rawptr !216
  %22 = insertvalue { [0 x i8]*, i64 } undef, [0 x i8]* %19, 0, !dbg !366
  %23 = insertvalue { [0 x i8]*, i64 } %22, i64 %21, 1, !dbg !366
  ret { [0 x i8]*, i64 } %23, !dbg !366
}

; <core::ops::range::Range<usize> as core::slice::index::SliceIndex<[T]>>::index
; Function Attrs: inlinehint nonlazybind uwtable
define { [0 x i8]*, i64 } @"_ZN106_$LT$core..ops..range..Range$LT$usize$GT$$u20$as$u20$core..slice..index..SliceIndex$LT$$u5b$T$u5d$$GT$$GT$5index17h8795355c9d3a823eE"(i64 %self.0, i64 %self.1, [0 x i8]* align 1 %slice.0, i64 %slice.1, %"core::panic::location::Location"* align 8 %0) unnamed_addr #0 !dbg !367 {
start:
  %slice.dbg.spill = alloca { [0 x i8]*, i64 }, align 8
  %self.dbg.spill = alloca { i64, i64 }, align 8
  %1 = getelementptr inbounds { i64, i64 }, { i64, i64 }* %self.dbg.spill, i32 0, i32 0
  store i64 %self.0, i64* %1, align 8
  %2 = getelementptr inbounds { i64, i64 }, { i64, i64 }* %self.dbg.spill, i32 0, i32 1
  store i64 %self.1, i64* %2, align 8
  call void @llvm.dbg.declare(metadata { i64, i64 }* %self.dbg.spill, metadata !383, metadata !DIExpression()), !dbg !385
  %3 = getelementptr inbounds { [0 x i8]*, i64 }, { [0 x i8]*, i64 }* %slice.dbg.spill, i32 0, i32 0
  store [0 x i8]* %slice.0, [0 x i8]** %3, align 8
  %4 = getelementptr inbounds { [0 x i8]*, i64 }, { [0 x i8]*, i64 }* %slice.dbg.spill, i32 0, i32 1
  store i64 %slice.1, i64* %4, align 8
  call void @llvm.dbg.declare(metadata { [0 x i8]*, i64 }* %slice.dbg.spill, metadata !384, metadata !DIExpression()), !dbg !386
  %_3 = icmp ugt i64 %self.0, %self.1, !dbg !387
  br i1 %_3, label %bb1, label %bb2, !dbg !387

bb2:                                              ; preds = %start
  %_9 = icmp ugt i64 %self.1, %slice.1, !dbg !388
  br i1 %_9, label %bb3, label %bb4, !dbg !388

bb1:                                              ; preds = %start
; call core::slice::index::slice_index_order_fail
  call void @_ZN4core5slice5index22slice_index_order_fail17h2fa68cd22f1dfc6cE(i64 %self.0, i64 %self.1, %"core::panic::location::Location"* align 8 %0) #12, !dbg !389
  unreachable, !dbg !389

bb4:                                              ; preds = %bb2
; call <core::ops::range::Range<usize> as core::slice::index::SliceIndex<[T]>>::get_unchecked
  %5 = call { [0 x i8]*, i64 } @"_ZN106_$LT$core..ops..range..Range$LT$usize$GT$$u20$as$u20$core..slice..index..SliceIndex$LT$$u5b$T$u5d$$GT$$GT$13get_unchecked17h46d3e53f4e2e4f4cE"(i64 %self.0, i64 %self.1, [0 x i8]* %slice.0, i64 %slice.1), !dbg !390
  %_17.0 = extractvalue { [0 x i8]*, i64 } %5, 0, !dbg !390
  %_17.1 = extractvalue { [0 x i8]*, i64 } %5, 1, !dbg !390
  br label %bb5, !dbg !390

bb3:                                              ; preds = %bb2
; call core::slice::index::slice_end_index_len_fail
  call void @_ZN4core5slice5index24slice_end_index_len_fail17he222ce128646632bE(i64 %self.1, i64 %slice.1, %"core::panic::location::Location"* align 8 %0) #12, !dbg !391
  unreachable, !dbg !391

bb5:                                              ; preds = %bb4
  %6 = insertvalue { [0 x i8]*, i64 } undef, [0 x i8]* %_17.0, 0, !dbg !392
  %7 = insertvalue { [0 x i8]*, i64 } %6, i64 %_17.1, 1, !dbg !392
  ret { [0 x i8]*, i64 } %7, !dbg !392
}

; <core::ops::range::Range<usize> as core::slice::index::SliceIndex<[T]>>::get_mut
; Function Attrs: inlinehint nonlazybind uwtable
define { i8*, i64 } @"_ZN106_$LT$core..ops..range..Range$LT$usize$GT$$u20$as$u20$core..slice..index..SliceIndex$LT$$u5b$T$u5d$$GT$$GT$7get_mut17hd1d92fee70ebff0cE"(i64 %self.0, i64 %self.1, [0 x i8]* align 1 %slice.0, i64 %slice.1) unnamed_addr #0 !dbg !393 {
start:
  %slice.dbg.spill = alloca { [0 x i8]*, i64 }, align 8
  %self.dbg.spill = alloca { i64, i64 }, align 8
  %_3 = alloca i8, align 1
  %0 = alloca { i8*, i64 }, align 8
  %1 = getelementptr inbounds { i64, i64 }, { i64, i64 }* %self.dbg.spill, i32 0, i32 0
  store i64 %self.0, i64* %1, align 8
  %2 = getelementptr inbounds { i64, i64 }, { i64, i64 }* %self.dbg.spill, i32 0, i32 1
  store i64 %self.1, i64* %2, align 8
  call void @llvm.dbg.declare(metadata { i64, i64 }* %self.dbg.spill, metadata !414, metadata !DIExpression()), !dbg !416
  %3 = getelementptr inbounds { [0 x i8]*, i64 }, { [0 x i8]*, i64 }* %slice.dbg.spill, i32 0, i32 0
  store [0 x i8]* %slice.0, [0 x i8]** %3, align 8
  %4 = getelementptr inbounds { [0 x i8]*, i64 }, { [0 x i8]*, i64 }* %slice.dbg.spill, i32 0, i32 1
  store i64 %slice.1, i64* %4, align 8
  call void @llvm.dbg.declare(metadata { [0 x i8]*, i64 }* %slice.dbg.spill, metadata !415, metadata !DIExpression()), !dbg !417
  %_4 = icmp ugt i64 %self.0, %self.1, !dbg !418
  br i1 %_4, label %bb1, label %bb2, !dbg !418

bb2:                                              ; preds = %start
  %_7 = icmp ugt i64 %self.1, %slice.1, !dbg !419
  %5 = zext i1 %_7 to i8, !dbg !418
  store i8 %5, i8* %_3, align 1, !dbg !418
  br label %bb3, !dbg !418

bb1:                                              ; preds = %start
  store i8 1, i8* %_3, align 1, !dbg !418
  br label %bb3, !dbg !418

bb3:                                              ; preds = %bb2, %bb1
  %6 = load i8, i8* %_3, align 1, !dbg !418, !range !420, !noundef !14
  %7 = trunc i8 %6 to i1, !dbg !418
  br i1 %7, label %bb4, label %bb5, !dbg !418

bb5:                                              ; preds = %bb3
; call <core::ops::range::Range<usize> as core::slice::index::SliceIndex<[T]>>::get_unchecked_mut
  %8 = call { [0 x i8]*, i64 } @"_ZN106_$LT$core..ops..range..Range$LT$usize$GT$$u20$as$u20$core..slice..index..SliceIndex$LT$$u5b$T$u5d$$GT$$GT$17get_unchecked_mut17h3e61a3a4d1351000E"(i64 %self.0, i64 %self.1, [0 x i8]* %slice.0, i64 %slice.1), !dbg !421
  %_13.0 = extractvalue { [0 x i8]*, i64 } %8, 0, !dbg !421
  %_13.1 = extractvalue { [0 x i8]*, i64 } %8, 1, !dbg !421
  br label %bb6, !dbg !421

bb4:                                              ; preds = %bb3
  %9 = bitcast { i8*, i64 }* %0 to {}**, !dbg !422
  store {}* null, {}** %9, align 8, !dbg !422
  br label %bb7, !dbg !423

bb7:                                              ; preds = %bb6, %bb4
  %10 = getelementptr inbounds { i8*, i64 }, { i8*, i64 }* %0, i32 0, i32 0, !dbg !424
  %11 = load i8*, i8** %10, align 8, !dbg !424, !align !425
  %12 = getelementptr inbounds { i8*, i64 }, { i8*, i64 }* %0, i32 0, i32 1, !dbg !424
  %13 = load i64, i64* %12, align 8, !dbg !424
  %14 = insertvalue { i8*, i64 } undef, i8* %11, 0, !dbg !424
  %15 = insertvalue { i8*, i64 } %14, i64 %13, 1, !dbg !424
  ret { i8*, i64 } %15, !dbg !424

bb6:                                              ; preds = %bb5
  %16 = bitcast { i8*, i64 }* %0 to { [0 x i8]*, i64 }*, !dbg !426
  %17 = getelementptr inbounds { [0 x i8]*, i64 }, { [0 x i8]*, i64 }* %16, i32 0, i32 0, !dbg !426
  store [0 x i8]* %_13.0, [0 x i8]** %17, align 8, !dbg !426
  %18 = getelementptr inbounds { [0 x i8]*, i64 }, { [0 x i8]*, i64 }* %16, i32 0, i32 1, !dbg !426
  store i64 %_13.1, i64* %18, align 8, !dbg !426
  br label %bb7, !dbg !423
}

; <core::ops::range::RangeTo<usize> as core::slice::index::SliceIndex<[T]>>::index
; Function Attrs: inlinehint nonlazybind uwtable
define { [0 x i8]*, i64 } @"_ZN108_$LT$core..ops..range..RangeTo$LT$usize$GT$$u20$as$u20$core..slice..index..SliceIndex$LT$$u5b$T$u5d$$GT$$GT$5index17hc37b594fc9eb606aE"(i64 %self, [0 x i8]* align 1 %slice.0, i64 %slice.1, %"core::panic::location::Location"* align 8 %0) unnamed_addr #0 !dbg !427 {
start:
  %slice.dbg.spill = alloca { [0 x i8]*, i64 }, align 8
  %self.dbg.spill = alloca i64, align 8
  %_3 = alloca { i64, i64 }, align 8
  store i64 %self, i64* %self.dbg.spill, align 8
  call void @llvm.dbg.declare(metadata i64* %self.dbg.spill, metadata !435, metadata !DIExpression()), !dbg !437
  %1 = getelementptr inbounds { [0 x i8]*, i64 }, { [0 x i8]*, i64 }* %slice.dbg.spill, i32 0, i32 0
  store [0 x i8]* %slice.0, [0 x i8]** %1, align 8
  %2 = getelementptr inbounds { [0 x i8]*, i64 }, { [0 x i8]*, i64 }* %slice.dbg.spill, i32 0, i32 1
  store i64 %slice.1, i64* %2, align 8
  call void @llvm.dbg.declare(metadata { [0 x i8]*, i64 }* %slice.dbg.spill, metadata !436, metadata !DIExpression()), !dbg !438
  %3 = bitcast { i64, i64 }* %_3 to i64*, !dbg !439
  store i64 0, i64* %3, align 8, !dbg !439
  %4 = getelementptr inbounds { i64, i64 }, { i64, i64 }* %_3, i32 0, i32 1, !dbg !439
  store i64 %self, i64* %4, align 8, !dbg !439
  %5 = getelementptr inbounds { i64, i64 }, { i64, i64 }* %_3, i32 0, i32 0, !dbg !439
  %6 = load i64, i64* %5, align 8, !dbg !439
  %7 = getelementptr inbounds { i64, i64 }, { i64, i64 }* %_3, i32 0, i32 1, !dbg !439
  %8 = load i64, i64* %7, align 8, !dbg !439
; call <core::ops::range::Range<usize> as core::slice::index::SliceIndex<[T]>>::index
  %9 = call { [0 x i8]*, i64 } @"_ZN106_$LT$core..ops..range..Range$LT$usize$GT$$u20$as$u20$core..slice..index..SliceIndex$LT$$u5b$T$u5d$$GT$$GT$5index17h8795355c9d3a823eE"(i64 %6, i64 %8, [0 x i8]* align 1 %slice.0, i64 %slice.1, %"core::panic::location::Location"* align 8 %0), !dbg !439
  %10 = extractvalue { [0 x i8]*, i64 } %9, 0, !dbg !439
  %11 = extractvalue { [0 x i8]*, i64 } %9, 1, !dbg !439
  br label %bb1, !dbg !439

bb1:                                              ; preds = %start
  %12 = insertvalue { [0 x i8]*, i64 } undef, [0 x i8]* %10, 0, !dbg !440
  %13 = insertvalue { [0 x i8]*, i64 } %12, i64 %11, 1, !dbg !440
  ret { [0 x i8]*, i64 } %13, !dbg !440
}

; <core::ops::range::RangeFrom<usize> as core::slice::index::SliceIndex<[T]>>::get_mut
; Function Attrs: inlinehint nonlazybind uwtable
define { i8*, i64 } @"_ZN110_$LT$core..ops..range..RangeFrom$LT$usize$GT$$u20$as$u20$core..slice..index..SliceIndex$LT$$u5b$T$u5d$$GT$$GT$7get_mut17hf87198b0652b67a9E"(i64 %self, [0 x i8]* align 1 %slice.0, i64 %slice.1) unnamed_addr #0 !dbg !441 {
start:
  %slice.dbg.spill = alloca { [0 x i8]*, i64 }, align 8
  %self.dbg.spill = alloca i64, align 8
  %_3 = alloca { i64, i64 }, align 8
  store i64 %self, i64* %self.dbg.spill, align 8
  call void @llvm.dbg.declare(metadata i64* %self.dbg.spill, metadata !449, metadata !DIExpression()), !dbg !451
  %0 = getelementptr inbounds { [0 x i8]*, i64 }, { [0 x i8]*, i64 }* %slice.dbg.spill, i32 0, i32 0
  store [0 x i8]* %slice.0, [0 x i8]** %0, align 8
  %1 = getelementptr inbounds { [0 x i8]*, i64 }, { [0 x i8]*, i64 }* %slice.dbg.spill, i32 0, i32 1
  store i64 %slice.1, i64* %1, align 8
  call void @llvm.dbg.declare(metadata { [0 x i8]*, i64 }* %slice.dbg.spill, metadata !450, metadata !DIExpression()), !dbg !452
  %2 = bitcast { i64, i64 }* %_3 to i64*, !dbg !453
  store i64 %self, i64* %2, align 8, !dbg !453
  %3 = getelementptr inbounds { i64, i64 }, { i64, i64 }* %_3, i32 0, i32 1, !dbg !453
  store i64 %slice.1, i64* %3, align 8, !dbg !453
  %4 = getelementptr inbounds { i64, i64 }, { i64, i64 }* %_3, i32 0, i32 0, !dbg !453
  %5 = load i64, i64* %4, align 8, !dbg !453
  %6 = getelementptr inbounds { i64, i64 }, { i64, i64 }* %_3, i32 0, i32 1, !dbg !453
  %7 = load i64, i64* %6, align 8, !dbg !453
; call <core::ops::range::Range<usize> as core::slice::index::SliceIndex<[T]>>::get_mut
  %8 = call { i8*, i64 } @"_ZN106_$LT$core..ops..range..Range$LT$usize$GT$$u20$as$u20$core..slice..index..SliceIndex$LT$$u5b$T$u5d$$GT$$GT$7get_mut17hd1d92fee70ebff0cE"(i64 %5, i64 %7, [0 x i8]* align 1 %slice.0, i64 %slice.1), !dbg !453
  %9 = extractvalue { i8*, i64 } %8, 0, !dbg !453
  %10 = extractvalue { i8*, i64 } %8, 1, !dbg !453
  br label %bb1, !dbg !453

bb1:                                              ; preds = %start
  %11 = insertvalue { i8*, i64 } undef, i8* %9, 0, !dbg !454
  %12 = insertvalue { i8*, i64 } %11, i64 %10, 1, !dbg !454
  ret { i8*, i64 } %12, !dbg !454
}

; <core::result::Result<T,F> as core::ops::try_trait::FromResidual<core::result::Result<core::convert::Infallible,E>>>::from_residual
; Function Attrs: inlinehint nonlazybind uwtable
define i32 @"_ZN153_$LT$core..result..Result$LT$T$C$F$GT$$u20$as$u20$core..ops..try_trait..FromResidual$LT$core..result..Result$LT$core..convert..Infallible$C$E$GT$$GT$$GT$13from_residual17h5adb134252c2789cE"(i32 %0, %"core::panic::location::Location"* align 8 %1) unnamed_addr #0 !dbg !455 {
start:
  %e.dbg.spill = alloca i32, align 4
  %2 = alloca i32, align 4
  %residual = alloca i32, align 4
  store i32 %0, i32* %residual, align 4
  call void @llvm.dbg.declare(metadata i32* %residual, metadata !505, metadata !DIExpression()), !dbg !510
  %e = load i32, i32* %residual, align 4, !dbg !511, !range !512, !noundef !14
  store i32 %e, i32* %e.dbg.spill, align 4, !dbg !511
  call void @llvm.dbg.declare(metadata i32* %e.dbg.spill, metadata !506, metadata !DIExpression()), !dbg !513
; call <T as core::convert::From<T>>::from
  %_3 = call i32 @"_ZN50_$LT$T$u20$as$u20$core..convert..From$LT$T$GT$$GT$4from17h9fe4dc2a99c0ab3dE"(i32 %e), !dbg !514, !range !512
  br label %bb1, !dbg !514

bb1:                                              ; preds = %start
  store i32 %_3, i32* %2, align 4, !dbg !515
  %3 = load i32, i32* %2, align 4, !dbg !516
  ret i32 %3, !dbg !516
}

; <core::result::Result<T,F> as core::ops::try_trait::FromResidual<core::result::Result<core::convert::Infallible,E>>>::from_residual
; Function Attrs: inlinehint nonlazybind uwtable
define i64 @"_ZN153_$LT$core..result..Result$LT$T$C$F$GT$$u20$as$u20$core..ops..try_trait..FromResidual$LT$core..result..Result$LT$core..convert..Infallible$C$E$GT$$GT$$GT$13from_residual17he4e63b993ddc6589E"(i32 %0, %"core::panic::location::Location"* align 8 %1) unnamed_addr #0 !dbg !517 {
start:
  %e.dbg.spill = alloca i32, align 4
  %2 = alloca %"core::result::Result<i32, error::Error>", align 4
  %residual = alloca i32, align 4
  store i32 %0, i32* %residual, align 4
  call void @llvm.dbg.declare(metadata i32* %residual, metadata !536, metadata !DIExpression()), !dbg !540
  %e = load i32, i32* %residual, align 4, !dbg !541, !range !512, !noundef !14
  store i32 %e, i32* %e.dbg.spill, align 4, !dbg !541
  call void @llvm.dbg.declare(metadata i32* %e.dbg.spill, metadata !537, metadata !DIExpression()), !dbg !542
; call <T as core::convert::From<T>>::from
  %_3 = call i32 @"_ZN50_$LT$T$u20$as$u20$core..convert..From$LT$T$GT$$GT$4from17h9fe4dc2a99c0ab3dE"(i32 %e), !dbg !543, !range !512
  br label %bb1, !dbg !543

bb1:                                              ; preds = %start
  %3 = bitcast %"core::result::Result<i32, error::Error>"* %2 to %"core::result::Result<i32, error::Error>::Err"*, !dbg !544
  %4 = getelementptr inbounds %"core::result::Result<i32, error::Error>::Err", %"core::result::Result<i32, error::Error>::Err"* %3, i32 0, i32 1, !dbg !544
  store i32 %_3, i32* %4, align 4, !dbg !544
  %5 = bitcast %"core::result::Result<i32, error::Error>"* %2 to i32*, !dbg !544
  store i32 1, i32* %5, align 4, !dbg !544
  %6 = bitcast %"core::result::Result<i32, error::Error>"* %2 to i64*, !dbg !545
  %7 = load i64, i64* %6, align 4, !dbg !545
  ret i64 %7, !dbg !545
}

; <&T as core::fmt::Debug>::fmt
; Function Attrs: nonlazybind uwtable
define zeroext i1 @"_ZN42_$LT$$RF$T$u20$as$u20$core..fmt..Debug$GT$3fmt17h0fe0270c5c154cd4E"(i8** align 8 %self, %"core::fmt::Formatter"* align 8 %f) unnamed_addr #1 !dbg !546 {
start:
  %f.dbg.spill = alloca %"core::fmt::Formatter"*, align 8
  %self.dbg.spill = alloca i8**, align 8
  store i8** %self, i8*** %self.dbg.spill, align 8
  call void @llvm.dbg.declare(metadata i8*** %self.dbg.spill, metadata !599, metadata !DIExpression()), !dbg !601
  store %"core::fmt::Formatter"* %f, %"core::fmt::Formatter"** %f.dbg.spill, align 8
  call void @llvm.dbg.declare(metadata %"core::fmt::Formatter"** %f.dbg.spill, metadata !600, metadata !DIExpression()), !dbg !602
  %_6 = load i8*, i8** %self, align 8, !dbg !603, !nonnull !14, !align !425, !noundef !14
; call core::fmt::num::<impl core::fmt::Debug for u8>::fmt
  %0 = call zeroext i1 @"_ZN4core3fmt3num49_$LT$impl$u20$core..fmt..Debug$u20$for$u20$u8$GT$3fmt17hf55cb5b68afc02d4E"(i8* align 1 %_6, %"core::fmt::Formatter"* align 8 %f), !dbg !604
  br label %bb1, !dbg !604

bb1:                                              ; preds = %start
  ret i1 %0, !dbg !605
}

; <&T as core::fmt::Debug>::fmt
; Function Attrs: nonlazybind uwtable
define zeroext i1 @"_ZN42_$LT$$RF$T$u20$as$u20$core..fmt..Debug$GT$3fmt17h4c0ec8bd4d63c06bE"({ [0 x i8]*, i64 }* align 8 %self, %"core::fmt::Formatter"* align 8 %f) unnamed_addr #1 !dbg !606 {
start:
  %f.dbg.spill = alloca %"core::fmt::Formatter"*, align 8
  %self.dbg.spill = alloca { [0 x i8]*, i64 }*, align 8
  store { [0 x i8]*, i64 }* %self, { [0 x i8]*, i64 }** %self.dbg.spill, align 8
  call void @llvm.dbg.declare(metadata { [0 x i8]*, i64 }** %self.dbg.spill, metadata !611, metadata !DIExpression()), !dbg !613
  store %"core::fmt::Formatter"* %f, %"core::fmt::Formatter"** %f.dbg.spill, align 8
  call void @llvm.dbg.declare(metadata %"core::fmt::Formatter"** %f.dbg.spill, metadata !612, metadata !DIExpression()), !dbg !614
  %0 = getelementptr inbounds { [0 x i8]*, i64 }, { [0 x i8]*, i64 }* %self, i32 0, i32 0, !dbg !615
  %_6.0 = load [0 x i8]*, [0 x i8]** %0, align 8, !dbg !615, !nonnull !14, !align !425, !noundef !14
  %1 = getelementptr inbounds { [0 x i8]*, i64 }, { [0 x i8]*, i64 }* %self, i32 0, i32 1, !dbg !615
  %_6.1 = load i64, i64* %1, align 8, !dbg !615
; call <str as core::fmt::Debug>::fmt
  %2 = call zeroext i1 @"_ZN40_$LT$str$u20$as$u20$core..fmt..Debug$GT$3fmt17h6abbd8cd3e4aad5fE"([0 x i8]* align 1 %_6.0, i64 %_6.1, %"core::fmt::Formatter"* align 8 %f), !dbg !616
  br label %bb1, !dbg !616

bb1:                                              ; preds = %start
  ret i1 %2, !dbg !617
}

; <&T as core::fmt::Debug>::fmt
; Function Attrs: nonlazybind uwtable
define zeroext i1 @"_ZN42_$LT$$RF$T$u20$as$u20$core..fmt..Debug$GT$3fmt17h62ca58d32a1488dfE"(i32** align 8 %self, %"core::fmt::Formatter"* align 8 %f) unnamed_addr #1 !dbg !618 {
start:
  %f.dbg.spill = alloca %"core::fmt::Formatter"*, align 8
  %self.dbg.spill = alloca i32**, align 8
  store i32** %self, i32*** %self.dbg.spill, align 8
  call void @llvm.dbg.declare(metadata i32*** %self.dbg.spill, metadata !623, metadata !DIExpression()), !dbg !626
  store %"core::fmt::Formatter"* %f, %"core::fmt::Formatter"** %f.dbg.spill, align 8
  call void @llvm.dbg.declare(metadata %"core::fmt::Formatter"** %f.dbg.spill, metadata !624, metadata !DIExpression()), !dbg !627
  %_6 = load i32*, i32** %self, align 8, !dbg !628, !nonnull !14, !align !629, !noundef !14
; call core::fmt::num::<impl core::fmt::Debug for i32>::fmt
  %0 = call zeroext i1 @"_ZN4core3fmt3num50_$LT$impl$u20$core..fmt..Debug$u20$for$u20$i32$GT$3fmt17hf8296b14d5bd5665E"(i32* align 4 %_6, %"core::fmt::Formatter"* align 8 %f), !dbg !630
  br label %bb1, !dbg !630

bb1:                                              ; preds = %start
  ret i1 %0, !dbg !631
}

; <&T as core::fmt::Debug>::fmt
; Function Attrs: nonlazybind uwtable
define zeroext i1 @"_ZN42_$LT$$RF$T$u20$as$u20$core..fmt..Debug$GT$3fmt17h7e996fa1da7a195cE"(i8*** align 8 %self, %"core::fmt::Formatter"* align 8 %f) unnamed_addr #1 !dbg !632 {
start:
  %f.dbg.spill = alloca %"core::fmt::Formatter"*, align 8
  %self.dbg.spill = alloca i8***, align 8
  store i8*** %self, i8**** %self.dbg.spill, align 8
  call void @llvm.dbg.declare(metadata i8**** %self.dbg.spill, metadata !637, metadata !DIExpression()), !dbg !639
  store %"core::fmt::Formatter"* %f, %"core::fmt::Formatter"** %f.dbg.spill, align 8
  call void @llvm.dbg.declare(metadata %"core::fmt::Formatter"** %f.dbg.spill, metadata !638, metadata !DIExpression()), !dbg !640
  %_6 = load i8**, i8*** %self, align 8, !dbg !641, !nonnull !14, !align !642, !noundef !14
; call <&T as core::fmt::Debug>::fmt
  %0 = call zeroext i1 @"_ZN42_$LT$$RF$T$u20$as$u20$core..fmt..Debug$GT$3fmt17h0fe0270c5c154cd4E"(i8** align 8 %_6, %"core::fmt::Formatter"* align 8 %f), !dbg !643
  br label %bb1, !dbg !643

bb1:                                              ; preds = %start
  ret i1 %0, !dbg !644
}

; <&T as core::fmt::Debug>::fmt
; Function Attrs: nonlazybind uwtable
define zeroext i1 @"_ZN42_$LT$$RF$T$u20$as$u20$core..fmt..Debug$GT$3fmt17h944f6a510380f761E"(i8*** align 8 %self, %"core::fmt::Formatter"* align 8 %f) unnamed_addr #1 !dbg !645 {
start:
  %f.dbg.spill = alloca %"core::fmt::Formatter"*, align 8
  %self.dbg.spill = alloca i8***, align 8
  store i8*** %self, i8**** %self.dbg.spill, align 8
  call void @llvm.dbg.declare(metadata i8**** %self.dbg.spill, metadata !650, metadata !DIExpression()), !dbg !654
  store %"core::fmt::Formatter"* %f, %"core::fmt::Formatter"** %f.dbg.spill, align 8
  call void @llvm.dbg.declare(metadata %"core::fmt::Formatter"** %f.dbg.spill, metadata !651, metadata !DIExpression()), !dbg !655
  %_6 = load i8**, i8*** %self, align 8, !dbg !656, !nonnull !14, !align !642, !noundef !14
; call <core::option::Option<T> as core::fmt::Debug>::fmt
  %0 = call zeroext i1 @"_ZN66_$LT$core..option..Option$LT$T$GT$$u20$as$u20$core..fmt..Debug$GT$3fmt17h532a8ed1b9e40f2eE"(i8** align 8 %_6, %"core::fmt::Formatter"* align 8 %f), !dbg !657
  br label %bb1, !dbg !657

bb1:                                              ; preds = %start
  ret i1 %0, !dbg !658
}

; core::cmp::impls::<impl core::cmp::PartialEq for u8>::eq
; Function Attrs: inlinehint nonlazybind uwtable
define internal zeroext i1 @"_ZN4core3cmp5impls53_$LT$impl$u20$core..cmp..PartialEq$u20$for$u20$u8$GT$2eq17h7c278dd2f7f83bacE"(i8* align 1 %self, i8* align 1 %other) unnamed_addr #0 !dbg !659 {
start:
  %other.dbg.spill = alloca i8*, align 8
  %self.dbg.spill = alloca i8*, align 8
  store i8* %self, i8** %self.dbg.spill, align 8
  call void @llvm.dbg.declare(metadata i8** %self.dbg.spill, metadata !668, metadata !DIExpression()), !dbg !670
  store i8* %other, i8** %other.dbg.spill, align 8
  call void @llvm.dbg.declare(metadata i8** %other.dbg.spill, metadata !669, metadata !DIExpression()), !dbg !671
  %_3 = load i8, i8* %self, align 1, !dbg !672
  %_4 = load i8, i8* %other, align 1, !dbg !673
  %0 = icmp eq i8 %_3, %_4, !dbg !672
  ret i1 %0, !dbg !674
}

; core::cmp::impls::<impl core::cmp::PartialEq for i32>::ne
; Function Attrs: inlinehint nonlazybind uwtable
define internal zeroext i1 @"_ZN4core3cmp5impls54_$LT$impl$u20$core..cmp..PartialEq$u20$for$u20$i32$GT$2ne17hf8bb558efd6cd409E"(i32* align 4 %self, i32* align 4 %other) unnamed_addr #0 !dbg !675 {
start:
  %other.dbg.spill = alloca i32*, align 8
  %self.dbg.spill = alloca i32*, align 8
  store i32* %self, i32** %self.dbg.spill, align 8
  call void @llvm.dbg.declare(metadata i32** %self.dbg.spill, metadata !680, metadata !DIExpression()), !dbg !682
  store i32* %other, i32** %other.dbg.spill, align 8
  call void @llvm.dbg.declare(metadata i32** %other.dbg.spill, metadata !681, metadata !DIExpression()), !dbg !683
  %_3 = load i32, i32* %self, align 4, !dbg !684
  %_4 = load i32, i32* %other, align 4, !dbg !685
  %0 = icmp ne i32 %_3, %_4, !dbg !684
  ret i1 %0, !dbg !686
}

; core::cmp::impls::<impl core::cmp::PartialEq<&B> for &A>::eq
; Function Attrs: inlinehint nonlazybind uwtable
define zeroext i1 @"_ZN4core3cmp5impls69_$LT$impl$u20$core..cmp..PartialEq$LT$$RF$B$GT$$u20$for$u20$$RF$A$GT$2eq17h193696f9b4d62323E"(i8** align 8 %self, i8** align 8 %other) unnamed_addr #0 !dbg !687 {
start:
  %other.dbg.spill = alloca i8**, align 8
  %self.dbg.spill = alloca i8**, align 8
  store i8** %self, i8*** %self.dbg.spill, align 8
  call void @llvm.dbg.declare(metadata i8*** %self.dbg.spill, metadata !692, metadata !DIExpression()), !dbg !697
  store i8** %other, i8*** %other.dbg.spill, align 8
  call void @llvm.dbg.declare(metadata i8*** %other.dbg.spill, metadata !693, metadata !DIExpression()), !dbg !698
  %_5 = load i8*, i8** %self, align 8, !dbg !699, !nonnull !14, !align !425, !noundef !14
  %_6 = load i8*, i8** %other, align 8, !dbg !700, !nonnull !14, !align !425, !noundef !14
; call core::cmp::impls::<impl core::cmp::PartialEq for u8>::eq
  %0 = call zeroext i1 @"_ZN4core3cmp5impls53_$LT$impl$u20$core..cmp..PartialEq$u20$for$u20$u8$GT$2eq17h7c278dd2f7f83bacE"(i8* align 1 %_5, i8* align 1 %_6), !dbg !701
  br label %bb1, !dbg !701

bb1:                                              ; preds = %start
  ret i1 %0, !dbg !702
}

; core::fmt::ArgumentV1::new_display
; Function Attrs: inlinehint nonlazybind uwtable
define { i8*, i64* } @_ZN4core3fmt10ArgumentV111new_display17h24112d95923e3864E(i32* align 4 %x) unnamed_addr #0 !dbg !703 {
start:
  %0 = alloca %"core::fmt::Opaque"*, align 8
  %1 = alloca i1 (%"core::fmt::Opaque"*, %"core::fmt::Formatter"*)*, align 8
  %f.dbg.spill = alloca i1 (i32*, %"core::fmt::Formatter"*)*, align 8
  %x.dbg.spill1 = alloca i32*, align 8
  %x.dbg.spill = alloca i32*, align 8
  %2 = alloca { i8*, i64* }, align 8
  store i32* %x, i32** %x.dbg.spill, align 8
  call void @llvm.dbg.declare(metadata i32** %x.dbg.spill, metadata !717, metadata !DIExpression()), !dbg !718
  store i32* %x, i32** %x.dbg.spill1, align 8, !dbg !719
  call void @llvm.dbg.declare(metadata i32** %x.dbg.spill1, metadata !720, metadata !DIExpression()), !dbg !729
  store i1 (i32*, %"core::fmt::Formatter"*)* @"_ZN4core3fmt3num3imp52_$LT$impl$u20$core..fmt..Display$u20$for$u20$i32$GT$3fmt17hc9d48b60a3d759fdE", i1 (i32*, %"core::fmt::Formatter"*)** %f.dbg.spill, align 8, !dbg !731
  call void @llvm.dbg.declare(metadata i1 (i32*, %"core::fmt::Formatter"*)** %f.dbg.spill, metadata !728, metadata !DIExpression()), !dbg !729
  store i1 (%"core::fmt::Opaque"*, %"core::fmt::Formatter"*)* bitcast (i1 (i32*, %"core::fmt::Formatter"*)* @"_ZN4core3fmt3num3imp52_$LT$impl$u20$core..fmt..Display$u20$for$u20$i32$GT$3fmt17hc9d48b60a3d759fdE" to i1 (%"core::fmt::Opaque"*, %"core::fmt::Formatter"*)*), i1 (%"core::fmt::Opaque"*, %"core::fmt::Formatter"*)** %1, align 8, !dbg !729
  %_4 = load i1 (%"core::fmt::Opaque"*, %"core::fmt::Formatter"*)*, i1 (%"core::fmt::Opaque"*, %"core::fmt::Formatter"*)** %1, align 8, !dbg !729, !nonnull !14, !noundef !14
  br label %bb1, !dbg !729

bb1:                                              ; preds = %start
  %3 = bitcast i32* %x to %"core::fmt::Opaque"*, !dbg !729
  store %"core::fmt::Opaque"* %3, %"core::fmt::Opaque"** %0, align 8, !dbg !729
  %_6 = load %"core::fmt::Opaque"*, %"core::fmt::Opaque"** %0, align 8, !dbg !729, !nonnull !14, !align !425, !noundef !14
  br label %bb2, !dbg !729

bb2:                                              ; preds = %bb1
  %4 = bitcast { i8*, i64* }* %2 to %"core::fmt::Opaque"**, !dbg !729
  store %"core::fmt::Opaque"* %_6, %"core::fmt::Opaque"** %4, align 8, !dbg !729
  %5 = getelementptr inbounds { i8*, i64* }, { i8*, i64* }* %2, i32 0, i32 1, !dbg !729
  %6 = bitcast i64** %5 to i1 (%"core::fmt::Opaque"*, %"core::fmt::Formatter"*)**, !dbg !729
  store i1 (%"core::fmt::Opaque"*, %"core::fmt::Formatter"*)* %_4, i1 (%"core::fmt::Opaque"*, %"core::fmt::Formatter"*)** %6, align 8, !dbg !729
  %7 = getelementptr inbounds { i8*, i64* }, { i8*, i64* }* %2, i32 0, i32 0, !dbg !732
  %8 = load i8*, i8** %7, align 8, !dbg !732, !nonnull !14, !align !425, !noundef !14
  %9 = getelementptr inbounds { i8*, i64* }, { i8*, i64* }* %2, i32 0, i32 1, !dbg !732
  %10 = load i64*, i64** %9, align 8, !dbg !732, !nonnull !14, !noundef !14
  %11 = insertvalue { i8*, i64* } undef, i8* %8, 0, !dbg !732
  %12 = insertvalue { i8*, i64* } %11, i64* %10, 1, !dbg !732
  ret { i8*, i64* } %12, !dbg !732
}

; core::fmt::ArgumentV1::new_display
; Function Attrs: inlinehint nonlazybind uwtable
define { i8*, i64* } @_ZN4core3fmt10ArgumentV111new_display17heb85d6a984daa1beE(i32* align 4 %x) unnamed_addr #0 !dbg !733 {
start:
  %0 = alloca %"core::fmt::Opaque"*, align 8
  %1 = alloca i1 (%"core::fmt::Opaque"*, %"core::fmt::Formatter"*)*, align 8
  %f.dbg.spill = alloca i1 (i32*, %"core::fmt::Formatter"*)*, align 8
  %x.dbg.spill1 = alloca i32*, align 8
  %x.dbg.spill = alloca i32*, align 8
  %2 = alloca { i8*, i64* }, align 8
  store i32* %x, i32** %x.dbg.spill, align 8
  call void @llvm.dbg.declare(metadata i32** %x.dbg.spill, metadata !738, metadata !DIExpression()), !dbg !741
  store i32* %x, i32** %x.dbg.spill1, align 8, !dbg !742
  call void @llvm.dbg.declare(metadata i32** %x.dbg.spill1, metadata !743, metadata !DIExpression()), !dbg !752
  store i1 (i32*, %"core::fmt::Formatter"*)* @"_ZN4core3fmt3num3imp52_$LT$impl$u20$core..fmt..Display$u20$for$u20$u32$GT$3fmt17heac27e0cb9c778adE", i1 (i32*, %"core::fmt::Formatter"*)** %f.dbg.spill, align 8, !dbg !754
  call void @llvm.dbg.declare(metadata i1 (i32*, %"core::fmt::Formatter"*)** %f.dbg.spill, metadata !751, metadata !DIExpression()), !dbg !752
  store i1 (%"core::fmt::Opaque"*, %"core::fmt::Formatter"*)* bitcast (i1 (i32*, %"core::fmt::Formatter"*)* @"_ZN4core3fmt3num3imp52_$LT$impl$u20$core..fmt..Display$u20$for$u20$u32$GT$3fmt17heac27e0cb9c778adE" to i1 (%"core::fmt::Opaque"*, %"core::fmt::Formatter"*)*), i1 (%"core::fmt::Opaque"*, %"core::fmt::Formatter"*)** %1, align 8, !dbg !752
  %_4 = load i1 (%"core::fmt::Opaque"*, %"core::fmt::Formatter"*)*, i1 (%"core::fmt::Opaque"*, %"core::fmt::Formatter"*)** %1, align 8, !dbg !752, !nonnull !14, !noundef !14
  br label %bb1, !dbg !752

bb1:                                              ; preds = %start
  %3 = bitcast i32* %x to %"core::fmt::Opaque"*, !dbg !752
  store %"core::fmt::Opaque"* %3, %"core::fmt::Opaque"** %0, align 8, !dbg !752
  %_6 = load %"core::fmt::Opaque"*, %"core::fmt::Opaque"** %0, align 8, !dbg !752, !nonnull !14, !align !425, !noundef !14
  br label %bb2, !dbg !752

bb2:                                              ; preds = %bb1
  %4 = bitcast { i8*, i64* }* %2 to %"core::fmt::Opaque"**, !dbg !752
  store %"core::fmt::Opaque"* %_6, %"core::fmt::Opaque"** %4, align 8, !dbg !752
  %5 = getelementptr inbounds { i8*, i64* }, { i8*, i64* }* %2, i32 0, i32 1, !dbg !752
  %6 = bitcast i64** %5 to i1 (%"core::fmt::Opaque"*, %"core::fmt::Formatter"*)**, !dbg !752
  store i1 (%"core::fmt::Opaque"*, %"core::fmt::Formatter"*)* %_4, i1 (%"core::fmt::Opaque"*, %"core::fmt::Formatter"*)** %6, align 8, !dbg !752
  %7 = getelementptr inbounds { i8*, i64* }, { i8*, i64* }* %2, i32 0, i32 0, !dbg !755
  %8 = load i8*, i8** %7, align 8, !dbg !755, !nonnull !14, !align !425, !noundef !14
  %9 = getelementptr inbounds { i8*, i64* }, { i8*, i64* }* %2, i32 0, i32 1, !dbg !755
  %10 = load i64*, i64** %9, align 8, !dbg !755, !nonnull !14, !noundef !14
  %11 = insertvalue { i8*, i64* } undef, i8* %8, 0, !dbg !755
  %12 = insertvalue { i8*, i64* } %11, i64* %10, 1, !dbg !755
  ret { i8*, i64* } %12, !dbg !755
}

; core::fmt::num::<impl core::fmt::Debug for u8>::fmt
; Function Attrs: inlinehint nonlazybind uwtable
define internal zeroext i1 @"_ZN4core3fmt3num49_$LT$impl$u20$core..fmt..Debug$u20$for$u20$u8$GT$3fmt17hf55cb5b68afc02d4E"(i8* align 1 %self, %"core::fmt::Formatter"* align 8 %f) unnamed_addr #0 !dbg !756 {
start:
  %f.dbg.spill = alloca %"core::fmt::Formatter"*, align 8
  %self.dbg.spill = alloca i8*, align 8
  %0 = alloca i8, align 1
  store i8* %self, i8** %self.dbg.spill, align 8
  call void @llvm.dbg.declare(metadata i8** %self.dbg.spill, metadata !763, metadata !DIExpression()), !dbg !765
  store %"core::fmt::Formatter"* %f, %"core::fmt::Formatter"** %f.dbg.spill, align 8
  call void @llvm.dbg.declare(metadata %"core::fmt::Formatter"** %f.dbg.spill, metadata !764, metadata !DIExpression()), !dbg !766
; call core::fmt::Formatter::debug_lower_hex
  %_3 = call zeroext i1 @_ZN4core3fmt9Formatter15debug_lower_hex17hc8ac7c8a90f4e775E(%"core::fmt::Formatter"* align 8 %f), !dbg !767
  br label %bb1, !dbg !767

bb1:                                              ; preds = %start
  br i1 %_3, label %bb2, label %bb4, !dbg !767

bb4:                                              ; preds = %bb1
; call core::fmt::Formatter::debug_upper_hex
  %_7 = call zeroext i1 @_ZN4core3fmt9Formatter15debug_upper_hex17h2e305ce0426e4484E(%"core::fmt::Formatter"* align 8 %f), !dbg !768
  br label %bb5, !dbg !768

bb2:                                              ; preds = %bb1
; call core::fmt::num::<impl core::fmt::LowerHex for u8>::fmt
  %1 = call zeroext i1 @"_ZN4core3fmt3num52_$LT$impl$u20$core..fmt..LowerHex$u20$for$u20$u8$GT$3fmt17hd5d53dd806991a8bE"(i8* align 1 %self, %"core::fmt::Formatter"* align 8 %f), !dbg !769
  %2 = zext i1 %1 to i8, !dbg !769
  store i8 %2, i8* %0, align 1, !dbg !769
  br label %bb3, !dbg !769

bb3:                                              ; preds = %bb2
  br label %bb11, !dbg !770

bb11:                                             ; preds = %bb10, %bb3
  %3 = load i8, i8* %0, align 1, !dbg !771, !range !420, !noundef !14
  %4 = trunc i8 %3 to i1, !dbg !771
  ret i1 %4, !dbg !771

bb5:                                              ; preds = %bb4
  br i1 %_7, label %bb6, label %bb8, !dbg !768

bb8:                                              ; preds = %bb5
; call core::fmt::num::imp::<impl core::fmt::Display for u8>::fmt
  %5 = call zeroext i1 @"_ZN4core3fmt3num3imp51_$LT$impl$u20$core..fmt..Display$u20$for$u20$u8$GT$3fmt17h32dc6f47c7d2b16eE"(i8* align 1 %self, %"core::fmt::Formatter"* align 8 %f), !dbg !772
  %6 = zext i1 %5 to i8, !dbg !772
  store i8 %6, i8* %0, align 1, !dbg !772
  br label %bb9, !dbg !772

bb6:                                              ; preds = %bb5
; call core::fmt::num::<impl core::fmt::UpperHex for u8>::fmt
  %7 = call zeroext i1 @"_ZN4core3fmt3num52_$LT$impl$u20$core..fmt..UpperHex$u20$for$u20$u8$GT$3fmt17h8b0c85f66c3a100fE"(i8* align 1 %self, %"core::fmt::Formatter"* align 8 %f), !dbg !773
  %8 = zext i1 %7 to i8, !dbg !773
  store i8 %8, i8* %0, align 1, !dbg !773
  br label %bb7, !dbg !773

bb7:                                              ; preds = %bb6
  br label %bb10, !dbg !774

bb10:                                             ; preds = %bb9, %bb7
  br label %bb11, !dbg !770

bb9:                                              ; preds = %bb8
  br label %bb10, !dbg !774
}

; core::fmt::num::<impl core::fmt::Debug for i32>::fmt
; Function Attrs: inlinehint nonlazybind uwtable
define internal zeroext i1 @"_ZN4core3fmt3num50_$LT$impl$u20$core..fmt..Debug$u20$for$u20$i32$GT$3fmt17hf8296b14d5bd5665E"(i32* align 4 %self, %"core::fmt::Formatter"* align 8 %f) unnamed_addr #0 !dbg !775 {
start:
  %f.dbg.spill = alloca %"core::fmt::Formatter"*, align 8
  %self.dbg.spill = alloca i32*, align 8
  %0 = alloca i8, align 1
  store i32* %self, i32** %self.dbg.spill, align 8
  call void @llvm.dbg.declare(metadata i32** %self.dbg.spill, metadata !778, metadata !DIExpression()), !dbg !780
  store %"core::fmt::Formatter"* %f, %"core::fmt::Formatter"** %f.dbg.spill, align 8
  call void @llvm.dbg.declare(metadata %"core::fmt::Formatter"** %f.dbg.spill, metadata !779, metadata !DIExpression()), !dbg !781
; call core::fmt::Formatter::debug_lower_hex
  %_3 = call zeroext i1 @_ZN4core3fmt9Formatter15debug_lower_hex17hc8ac7c8a90f4e775E(%"core::fmt::Formatter"* align 8 %f), !dbg !782
  br label %bb1, !dbg !782

bb1:                                              ; preds = %start
  br i1 %_3, label %bb2, label %bb4, !dbg !782

bb4:                                              ; preds = %bb1
; call core::fmt::Formatter::debug_upper_hex
  %_7 = call zeroext i1 @_ZN4core3fmt9Formatter15debug_upper_hex17h2e305ce0426e4484E(%"core::fmt::Formatter"* align 8 %f), !dbg !783
  br label %bb5, !dbg !783

bb2:                                              ; preds = %bb1
; call core::fmt::num::<impl core::fmt::LowerHex for i32>::fmt
  %1 = call zeroext i1 @"_ZN4core3fmt3num53_$LT$impl$u20$core..fmt..LowerHex$u20$for$u20$i32$GT$3fmt17h42da6517bb41426aE"(i32* align 4 %self, %"core::fmt::Formatter"* align 8 %f), !dbg !784
  %2 = zext i1 %1 to i8, !dbg !784
  store i8 %2, i8* %0, align 1, !dbg !784
  br label %bb3, !dbg !784

bb3:                                              ; preds = %bb2
  br label %bb11, !dbg !785

bb11:                                             ; preds = %bb10, %bb3
  %3 = load i8, i8* %0, align 1, !dbg !786, !range !420, !noundef !14
  %4 = trunc i8 %3 to i1, !dbg !786
  ret i1 %4, !dbg !786

bb5:                                              ; preds = %bb4
  br i1 %_7, label %bb6, label %bb8, !dbg !783

bb8:                                              ; preds = %bb5
; call core::fmt::num::imp::<impl core::fmt::Display for i32>::fmt
  %5 = call zeroext i1 @"_ZN4core3fmt3num3imp52_$LT$impl$u20$core..fmt..Display$u20$for$u20$i32$GT$3fmt17hc9d48b60a3d759fdE"(i32* align 4 %self, %"core::fmt::Formatter"* align 8 %f), !dbg !787
  %6 = zext i1 %5 to i8, !dbg !787
  store i8 %6, i8* %0, align 1, !dbg !787
  br label %bb9, !dbg !787

bb6:                                              ; preds = %bb5
; call core::fmt::num::<impl core::fmt::UpperHex for i32>::fmt
  %7 = call zeroext i1 @"_ZN4core3fmt3num53_$LT$impl$u20$core..fmt..UpperHex$u20$for$u20$i32$GT$3fmt17hd8522bc1de69cacbE"(i32* align 4 %self, %"core::fmt::Formatter"* align 8 %f), !dbg !788
  %8 = zext i1 %7 to i8, !dbg !788
  store i8 %8, i8* %0, align 1, !dbg !788
  br label %bb7, !dbg !788

bb7:                                              ; preds = %bb6
  br label %bb10, !dbg !789

bb10:                                             ; preds = %bb9, %bb7
  br label %bb11, !dbg !785

bb9:                                              ; preds = %bb8
  br label %bb10, !dbg !789
}

; core::fmt::num::<impl core::fmt::Debug for u32>::fmt
; Function Attrs: inlinehint nonlazybind uwtable
define internal zeroext i1 @"_ZN4core3fmt3num50_$LT$impl$u20$core..fmt..Debug$u20$for$u20$u32$GT$3fmt17ha39c3876fa88cd61E"(i32* align 4 %self, %"core::fmt::Formatter"* align 8 %f) unnamed_addr #0 !dbg !790 {
start:
  %f.dbg.spill = alloca %"core::fmt::Formatter"*, align 8
  %self.dbg.spill = alloca i32*, align 8
  %0 = alloca i8, align 1
  store i32* %self, i32** %self.dbg.spill, align 8
  call void @llvm.dbg.declare(metadata i32** %self.dbg.spill, metadata !793, metadata !DIExpression()), !dbg !795
  store %"core::fmt::Formatter"* %f, %"core::fmt::Formatter"** %f.dbg.spill, align 8
  call void @llvm.dbg.declare(metadata %"core::fmt::Formatter"** %f.dbg.spill, metadata !794, metadata !DIExpression()), !dbg !796
; call core::fmt::Formatter::debug_lower_hex
  %_3 = call zeroext i1 @_ZN4core3fmt9Formatter15debug_lower_hex17hc8ac7c8a90f4e775E(%"core::fmt::Formatter"* align 8 %f), !dbg !797
  br label %bb1, !dbg !797

bb1:                                              ; preds = %start
  br i1 %_3, label %bb2, label %bb4, !dbg !797

bb4:                                              ; preds = %bb1
; call core::fmt::Formatter::debug_upper_hex
  %_7 = call zeroext i1 @_ZN4core3fmt9Formatter15debug_upper_hex17h2e305ce0426e4484E(%"core::fmt::Formatter"* align 8 %f), !dbg !798
  br label %bb5, !dbg !798

bb2:                                              ; preds = %bb1
; call core::fmt::num::<impl core::fmt::LowerHex for u32>::fmt
  %1 = call zeroext i1 @"_ZN4core3fmt3num53_$LT$impl$u20$core..fmt..LowerHex$u20$for$u20$u32$GT$3fmt17h425a7c86372f0d5cE"(i32* align 4 %self, %"core::fmt::Formatter"* align 8 %f), !dbg !799
  %2 = zext i1 %1 to i8, !dbg !799
  store i8 %2, i8* %0, align 1, !dbg !799
  br label %bb3, !dbg !799

bb3:                                              ; preds = %bb2
  br label %bb11, !dbg !800

bb11:                                             ; preds = %bb10, %bb3
  %3 = load i8, i8* %0, align 1, !dbg !801, !range !420, !noundef !14
  %4 = trunc i8 %3 to i1, !dbg !801
  ret i1 %4, !dbg !801

bb5:                                              ; preds = %bb4
  br i1 %_7, label %bb6, label %bb8, !dbg !798

bb8:                                              ; preds = %bb5
; call core::fmt::num::imp::<impl core::fmt::Display for u32>::fmt
  %5 = call zeroext i1 @"_ZN4core3fmt3num3imp52_$LT$impl$u20$core..fmt..Display$u20$for$u20$u32$GT$3fmt17heac27e0cb9c778adE"(i32* align 4 %self, %"core::fmt::Formatter"* align 8 %f), !dbg !802
  %6 = zext i1 %5 to i8, !dbg !802
  store i8 %6, i8* %0, align 1, !dbg !802
  br label %bb9, !dbg !802

bb6:                                              ; preds = %bb5
; call core::fmt::num::<impl core::fmt::UpperHex for u32>::fmt
  %7 = call zeroext i1 @"_ZN4core3fmt3num53_$LT$impl$u20$core..fmt..UpperHex$u20$for$u20$u32$GT$3fmt17h827c8d2c4f363944E"(i32* align 4 %self, %"core::fmt::Formatter"* align 8 %f), !dbg !803
  %8 = zext i1 %7 to i8, !dbg !803
  store i8 %8, i8* %0, align 1, !dbg !803
  br label %bb7, !dbg !803

bb7:                                              ; preds = %bb6
  br label %bb10, !dbg !804

bb10:                                             ; preds = %bb9, %bb7
  br label %bb11, !dbg !800

bb9:                                              ; preds = %bb8
  br label %bb10, !dbg !804
}

; core::fmt::Arguments::new_v1
; Function Attrs: inlinehint nonlazybind uwtable
define internal void @_ZN4core3fmt9Arguments6new_v117h99be3332c30ef80dE(%"core::fmt::Arguments"* sret(%"core::fmt::Arguments") %0, [0 x { [0 x i8]*, i64 }]* align 8 %pieces.0, i64 %pieces.1, [0 x { i8*, i64* }]* align 8 %args.0, i64 %args.1) unnamed_addr #0 !dbg !805 {
start:
  %args.dbg.spill = alloca { [0 x { i8*, i64* }]*, i64 }, align 8
  %pieces.dbg.spill = alloca { [0 x { [0 x i8]*, i64 }]*, i64 }, align 8
  %_24 = alloca { i64*, i64 }, align 8
  %_16 = alloca %"core::fmt::Arguments", align 8
  %_3 = alloca i8, align 1
  %1 = getelementptr inbounds { [0 x { [0 x i8]*, i64 }]*, i64 }, { [0 x { [0 x i8]*, i64 }]*, i64 }* %pieces.dbg.spill, i32 0, i32 0
  store [0 x { [0 x i8]*, i64 }]* %pieces.0, [0 x { [0 x i8]*, i64 }]** %1, align 8
  %2 = getelementptr inbounds { [0 x { [0 x i8]*, i64 }]*, i64 }, { [0 x { [0 x i8]*, i64 }]*, i64 }* %pieces.dbg.spill, i32 0, i32 1
  store i64 %pieces.1, i64* %2, align 8
  call void @llvm.dbg.declare(metadata { [0 x { [0 x i8]*, i64 }]*, i64 }* %pieces.dbg.spill, metadata !868, metadata !DIExpression()), !dbg !870
  %3 = getelementptr inbounds { [0 x { i8*, i64* }]*, i64 }, { [0 x { i8*, i64* }]*, i64 }* %args.dbg.spill, i32 0, i32 0
  store [0 x { i8*, i64* }]* %args.0, [0 x { i8*, i64* }]** %3, align 8
  %4 = getelementptr inbounds { [0 x { i8*, i64* }]*, i64 }, { [0 x { i8*, i64* }]*, i64 }* %args.dbg.spill, i32 0, i32 1
  store i64 %args.1, i64* %4, align 8
  call void @llvm.dbg.declare(metadata { [0 x { i8*, i64* }]*, i64 }* %args.dbg.spill, metadata !869, metadata !DIExpression()), !dbg !871
  %_4 = icmp ult i64 %pieces.1, %args.1, !dbg !872
  br i1 %_4, label %bb1, label %bb2, !dbg !872

bb2:                                              ; preds = %start
  %_12 = add i64 %args.1, 1, !dbg !873
  %_9 = icmp ugt i64 %pieces.1, %_12, !dbg !874
  %5 = zext i1 %_9 to i8, !dbg !872
  store i8 %5, i8* %_3, align 1, !dbg !872
  br label %bb3, !dbg !872

bb1:                                              ; preds = %start
  store i8 1, i8* %_3, align 1, !dbg !872
  br label %bb3, !dbg !872

bb3:                                              ; preds = %bb2, %bb1
  %6 = load i8, i8* %_3, align 1, !dbg !872, !range !420, !noundef !14
  %7 = trunc i8 %6 to i1, !dbg !872
  br i1 %7, label %bb4, label %bb6, !dbg !872

bb6:                                              ; preds = %bb3
  %8 = bitcast { i64*, i64 }* %_24 to {}**, !dbg !875
  store {}* null, {}** %8, align 8, !dbg !875
  %9 = bitcast %"core::fmt::Arguments"* %0 to { [0 x { [0 x i8]*, i64 }]*, i64 }*, !dbg !876
  %10 = getelementptr inbounds { [0 x { [0 x i8]*, i64 }]*, i64 }, { [0 x { [0 x i8]*, i64 }]*, i64 }* %9, i32 0, i32 0, !dbg !876
  store [0 x { [0 x i8]*, i64 }]* %pieces.0, [0 x { [0 x i8]*, i64 }]** %10, align 8, !dbg !876
  %11 = getelementptr inbounds { [0 x { [0 x i8]*, i64 }]*, i64 }, { [0 x { [0 x i8]*, i64 }]*, i64 }* %9, i32 0, i32 1, !dbg !876
  store i64 %pieces.1, i64* %11, align 8, !dbg !876
  %12 = getelementptr inbounds %"core::fmt::Arguments", %"core::fmt::Arguments"* %0, i32 0, i32 1, !dbg !876
  %13 = getelementptr inbounds { i64*, i64 }, { i64*, i64 }* %_24, i32 0, i32 0, !dbg !876
  %14 = load i64*, i64** %13, align 8, !dbg !876, !align !642
  %15 = getelementptr inbounds { i64*, i64 }, { i64*, i64 }* %_24, i32 0, i32 1, !dbg !876
  %16 = load i64, i64* %15, align 8, !dbg !876
  %17 = getelementptr inbounds { i64*, i64 }, { i64*, i64 }* %12, i32 0, i32 0, !dbg !876
  store i64* %14, i64** %17, align 8, !dbg !876
  %18 = getelementptr inbounds { i64*, i64 }, { i64*, i64 }* %12, i32 0, i32 1, !dbg !876
  store i64 %16, i64* %18, align 8, !dbg !876
  %19 = getelementptr inbounds %"core::fmt::Arguments", %"core::fmt::Arguments"* %0, i32 0, i32 2, !dbg !876
  %20 = getelementptr inbounds { [0 x { i8*, i64* }]*, i64 }, { [0 x { i8*, i64* }]*, i64 }* %19, i32 0, i32 0, !dbg !876
  store [0 x { i8*, i64* }]* %args.0, [0 x { i8*, i64* }]** %20, align 8, !dbg !876
  %21 = getelementptr inbounds { [0 x { i8*, i64* }]*, i64 }, { [0 x { i8*, i64* }]*, i64 }* %19, i32 0, i32 1, !dbg !876
  store i64 %args.1, i64* %21, align 8, !dbg !876
  ret void, !dbg !877

bb4:                                              ; preds = %bb3
; call core::fmt::Arguments::new_v1
  call void @_ZN4core3fmt9Arguments6new_v117h99be3332c30ef80dE(%"core::fmt::Arguments"* sret(%"core::fmt::Arguments") %_16, [0 x { [0 x i8]*, i64 }]* align 8 bitcast (<{ i8*, [8 x i8] }>* @alloc219 to [0 x { [0 x i8]*, i64 }]*), i64 1, [0 x { i8*, i64* }]* align 8 bitcast (<{}>* @alloc245 to [0 x { i8*, i64* }]*), i64 0), !dbg !878
  br label %bb5, !dbg !878

bb5:                                              ; preds = %bb4
; call core::panicking::panic_fmt
  call void @_ZN4core9panicking9panic_fmt17h8b6ce72891ae5e4fE(%"core::fmt::Arguments"* %_16, %"core::panic::location::Location"* align 8 bitcast (<{ i8*, [16 x i8] }>* @alloc477 to %"core::panic::location::Location"*)) #12, !dbg !878
  unreachable, !dbg !878
}

; core::num::nonzero::NonZeroU32::new_unchecked
; Function Attrs: inlinehint nonlazybind uwtable
define internal i32 @_ZN4core3num7nonzero10NonZeroU3213new_unchecked17h79cfb156bef2252aE(i32 %n) unnamed_addr #0 !dbg !879 {
start:
  %n.dbg.spill = alloca i32, align 4
  %0 = alloca i32, align 4
  store i32 %n, i32* %n.dbg.spill, align 4
  call void @llvm.dbg.declare(metadata i32* %n.dbg.spill, metadata !884, metadata !DIExpression()), !dbg !893
  store i32 %n, i32* %0, align 4, !dbg !894
  %1 = load i32, i32* %0, align 4, !dbg !895, !range !512, !noundef !14
  ret i32 %1, !dbg !895
}

; core::num::nonzero::NonZeroU32::get
; Function Attrs: inlinehint nonlazybind uwtable
define internal i32 @_ZN4core3num7nonzero10NonZeroU323get17h314ef246cfaf6da7E(i32 %self) unnamed_addr #0 !dbg !896 {
start:
  %self.dbg.spill = alloca i32, align 4
  store i32 %self, i32* %self.dbg.spill, align 4
  call void @llvm.dbg.declare(metadata i32* %self.dbg.spill, metadata !900, metadata !DIExpression()), !dbg !901
  ret i32 %self, !dbg !902
}

; core::num::nonzero::NonZeroU32::new
; Function Attrs: inlinehint nonlazybind uwtable
define internal i32 @_ZN4core3num7nonzero10NonZeroU323new17h3d281125d7b2b545E(i32 %n) unnamed_addr #0 !dbg !903 {
start:
  %n.dbg.spill = alloca i32, align 4
  %_3 = alloca i32, align 4
  %0 = alloca i32, align 4
  store i32 %n, i32* %n.dbg.spill, align 4
  call void @llvm.dbg.declare(metadata i32* %n.dbg.spill, metadata !920, metadata !DIExpression()), !dbg !921
  %1 = icmp eq i32 %n, 0, !dbg !922
  br i1 %1, label %bb2, label %bb1, !dbg !922

bb2:                                              ; preds = %start
  store i32 0, i32* %0, align 4, !dbg !923
  br label %bb3, !dbg !924

bb1:                                              ; preds = %start
  store i32 %n, i32* %_3, align 4, !dbg !925
  %2 = load i32, i32* %_3, align 4, !dbg !926, !range !512, !noundef !14
  store i32 %2, i32* %0, align 4, !dbg !926
  br label %bb3, !dbg !924

bb3:                                              ; preds = %bb2, %bb1
  %3 = load i32, i32* %0, align 4, !dbg !927
  ret i32 %3, !dbg !927
}

; core::ops::function::FnOnce::call_once
; Function Attrs: inlinehint nonlazybind uwtable
define internal zeroext i1 @_ZN4core3ops8function6FnOnce9call_once17h1ba00c7159b750d3E() unnamed_addr #0 !dbg !928 {
start:
  %_1.dbg.spill = alloca {}, align 1
  %_2 = alloca {}, align 1
  call void @llvm.dbg.declare(metadata {}* %_1.dbg.spill, metadata !938, metadata !DIExpression()), !dbg !943
  call void @llvm.dbg.declare(metadata {}* %_2, metadata !939, metadata !DIExpression()), !dbg !943
; call getrandom::imp::is_getrandom_available
  %0 = call zeroext i1 @_ZN9getrandom3imp22is_getrandom_available17h41631bdf9b2b9fa9E(), !dbg !943
  br label %bb1, !dbg !943

bb1:                                              ; preds = %start
  ret i1 %0, !dbg !943
}

; core::ptr::drop_in_place<getrandom::use_file::DropGuard<getrandom::use_file::get_rng_fd::{{closure}}>>
; Function Attrs: nonlazybind uwtable
define void @"_ZN4core3ptr119drop_in_place$LT$getrandom..use_file..DropGuard$LT$getrandom..use_file..get_rng_fd..$u7b$$u7b$closure$u7d$$u7d$$GT$$GT$17h7cdd4a952ce9a733E"(%"use_file::DropGuard<[closure@/home/dy3199/.cargo/registry/src/github.com-1ecc6299db9ec823/getrandom-0.2.12/src/use_file.rs:58:28: 58:56]>"* %_1) unnamed_addr #1 !dbg !944 {
start:
  %_1.dbg.spill = alloca %"use_file::DropGuard<[closure@/home/dy3199/.cargo/registry/src/github.com-1ecc6299db9ec823/getrandom-0.2.12/src/use_file.rs:58:28: 58:56]>"*, align 8
  store %"use_file::DropGuard<[closure@/home/dy3199/.cargo/registry/src/github.com-1ecc6299db9ec823/getrandom-0.2.12/src/use_file.rs:58:28: 58:56]>"* %_1, %"use_file::DropGuard<[closure@/home/dy3199/.cargo/registry/src/github.com-1ecc6299db9ec823/getrandom-0.2.12/src/use_file.rs:58:28: 58:56]>"** %_1.dbg.spill, align 8
  call void @llvm.dbg.declare(metadata %"use_file::DropGuard<[closure@/home/dy3199/.cargo/registry/src/github.com-1ecc6299db9ec823/getrandom-0.2.12/src/use_file.rs:58:28: 58:56]>"** %_1.dbg.spill, metadata !955, metadata !DIExpression()), !dbg !958
; call <getrandom::use_file::DropGuard<F> as core::ops::drop::Drop>::drop
  call void @"_ZN81_$LT$getrandom..use_file..DropGuard$LT$F$GT$$u20$as$u20$core..ops..drop..Drop$GT$4drop17h9306c6d803b091adE"(%"use_file::DropGuard<[closure@/home/dy3199/.cargo/registry/src/github.com-1ecc6299db9ec823/getrandom-0.2.12/src/use_file.rs:58:28: 58:56]>"* align 1 %_1), !dbg !958
  br label %bb1, !dbg !958

bb1:                                              ; preds = %start
  ret void, !dbg !958
}

; core::ptr::drop_in_place<getrandom::use_file::DropGuard<getrandom::use_file::wait_until_rng_ready::{{closure}}>>
; Function Attrs: nonlazybind uwtable
define void @"_ZN4core3ptr129drop_in_place$LT$getrandom..use_file..DropGuard$LT$getrandom..use_file..wait_until_rng_ready..$u7b$$u7b$closure$u7d$$u7d$$GT$$GT$17h65ae1243c5c261b3E"(i32** %_1) unnamed_addr #1 !dbg !959 {
start:
  %_1.dbg.spill = alloca i32**, align 8
  store i32** %_1, i32*** %_1.dbg.spill, align 8
  call void @llvm.dbg.declare(metadata i32*** %_1.dbg.spill, metadata !973, metadata !DIExpression()), !dbg !976
; call <getrandom::use_file::DropGuard<F> as core::ops::drop::Drop>::drop
  call void @"_ZN81_$LT$getrandom..use_file..DropGuard$LT$F$GT$$u20$as$u20$core..ops..drop..Drop$GT$4drop17h9d65460c7e318551E"(i32** align 8 %_1), !dbg !976
  br label %bb1, !dbg !976

bb1:                                              ; preds = %start
  ret void, !dbg !976
}

; core::ptr::drop_in_place<i32>
; Function Attrs: inlinehint nonlazybind uwtable
define internal void @"_ZN4core3ptr24drop_in_place$LT$i32$GT$17h1a8cb7c596225aa9E"(i32* %_1) unnamed_addr #0 !dbg !977 {
start:
  %_1.dbg.spill = alloca i32*, align 8
  store i32* %_1, i32** %_1.dbg.spill, align 8
  call void @llvm.dbg.declare(metadata i32** %_1.dbg.spill, metadata !982, metadata !DIExpression()), !dbg !983
  ret void, !dbg !983
}

; core::ptr::drop_in_place<u32>
; Function Attrs: inlinehint nonlazybind uwtable
define internal void @"_ZN4core3ptr24drop_in_place$LT$u32$GT$17h78d3eb013156d9feE"(i32* %_1) unnamed_addr #0 !dbg !984 {
start:
  %_1.dbg.spill = alloca i32*, align 8
  store i32* %_1, i32** %_1.dbg.spill, align 8
  call void @llvm.dbg.declare(metadata i32** %_1.dbg.spill, metadata !989, metadata !DIExpression()), !dbg !990
  ret void, !dbg !990
}

; core::ptr::drop_in_place<&i32>
; Function Attrs: inlinehint nonlazybind uwtable
define internal void @"_ZN4core3ptr28drop_in_place$LT$$RF$i32$GT$17h76da04544d23bfa4E"(i32** %_1) unnamed_addr #0 !dbg !991 {
start:
  %_1.dbg.spill = alloca i32**, align 8
  store i32** %_1, i32*** %_1.dbg.spill, align 8
  call void @llvm.dbg.declare(metadata i32*** %_1.dbg.spill, metadata !996, metadata !DIExpression()), !dbg !999
  ret void, !dbg !999
}

; core::ptr::drop_in_place<&str>
; Function Attrs: inlinehint nonlazybind uwtable
define internal void @"_ZN4core3ptr28drop_in_place$LT$$RF$str$GT$17h060d2585bf47b5feE"({ [0 x i8]*, i64 }* %_1) unnamed_addr #0 !dbg !1000 {
start:
  %_1.dbg.spill = alloca { [0 x i8]*, i64 }*, align 8
  store { [0 x i8]*, i64 }* %_1, { [0 x i8]*, i64 }** %_1.dbg.spill, align 8
  call void @llvm.dbg.declare(metadata { [0 x i8]*, i64 }** %_1.dbg.spill, metadata !1005, metadata !DIExpression()), !dbg !1008
  ret void, !dbg !1008
}

; core::ptr::drop_in_place<&&u8>
; Function Attrs: inlinehint nonlazybind uwtable
define internal void @"_ZN4core3ptr31drop_in_place$LT$$RF$$RF$u8$GT$17hb66363af6df6b951E"(i8*** %_1) unnamed_addr #0 !dbg !1009 {
start:
  %_1.dbg.spill = alloca i8***, align 8
  store i8*** %_1, i8**** %_1.dbg.spill, align 8
  call void @llvm.dbg.declare(metadata i8**** %_1.dbg.spill, metadata !1014, metadata !DIExpression()), !dbg !1017
  ret void, !dbg !1017
}

; core::ptr::drop_in_place<&core::option::Option<&u8>>
; Function Attrs: inlinehint nonlazybind uwtable
define internal void @"_ZN4core3ptr59drop_in_place$LT$$RF$core..option..Option$LT$$RF$u8$GT$$GT$17h40b8904daa997f0fE"(i8*** %_1) unnamed_addr #0 !dbg !1018 {
start:
  %_1.dbg.spill = alloca i8***, align 8
  store i8*** %_1, i8**** %_1.dbg.spill, align 8
  call void @llvm.dbg.declare(metadata i8**** %_1.dbg.spill, metadata !1023, metadata !DIExpression()), !dbg !1026
  ret void, !dbg !1026
}

; core::str::<impl str>::as_ptr
; Function Attrs: inlinehint nonlazybind uwtable
define internal i8* @"_ZN4core3str21_$LT$impl$u20$str$GT$6as_ptr17ha28180e2a0079decE"([0 x i8]* align 1 %self.0, i64 %self.1) unnamed_addr #0 !dbg !1027 {
start:
  %self.dbg.spill = alloca { [0 x i8]*, i64 }, align 8
  %0 = getelementptr inbounds { [0 x i8]*, i64 }, { [0 x i8]*, i64 }* %self.dbg.spill, i32 0, i32 0
  store [0 x i8]* %self.0, [0 x i8]** %0, align 8
  %1 = getelementptr inbounds { [0 x i8]*, i64 }, { [0 x i8]*, i64 }* %self.dbg.spill, i32 0, i32 1
  store i64 %self.1, i64* %1, align 8
  call void @llvm.dbg.declare(metadata { [0 x i8]*, i64 }* %self.dbg.spill, metadata !1034, metadata !DIExpression()), !dbg !1035
  %2 = bitcast [0 x i8]* %self.0 to i8*, !dbg !1036, !rawptr !216
  ret i8* %2, !dbg !1037
}

; core::sync::atomic::AtomicUsize::load
; Function Attrs: inlinehint nonlazybind uwtable
define internal i64 @_ZN4core4sync6atomic11AtomicUsize4load17h110a9ffd7a038f71E(%"core::sync::atomic::AtomicUsize"* align 8 %self, i8 %order) unnamed_addr #0 !dbg !1038 {
start:
  %self.dbg.spill2 = alloca i64*, align 8
  %order.dbg.spill = alloca i8, align 1
  %self.dbg.spill = alloca %"core::sync::atomic::AtomicUsize"*, align 8
  store %"core::sync::atomic::AtomicUsize"* %self, %"core::sync::atomic::AtomicUsize"** %self.dbg.spill, align 8
  call void @llvm.dbg.declare(metadata %"core::sync::atomic::AtomicUsize"** %self.dbg.spill, metadata !1044, metadata !DIExpression()), !dbg !1046
  store i8 %order, i8* %order.dbg.spill, align 1
  call void @llvm.dbg.declare(metadata i8* %order.dbg.spill, metadata !1045, metadata !DIExpression()), !dbg !1047
  %self1 = bitcast %"core::sync::atomic::AtomicUsize"* %self to i64*, !dbg !1048, !rawptr !216
  store i64* %self1, i64** %self.dbg.spill2, align 8, !dbg !1048
  call void @llvm.dbg.declare(metadata i64** %self.dbg.spill2, metadata !1049, metadata !DIExpression()), !dbg !1058
; call core::sync::atomic::atomic_load
  %0 = call i64 @_ZN4core4sync6atomic11atomic_load17hb6653b559a621b7aE(i64* %self1, i8 %order), !dbg !1059
  br label %bb1, !dbg !1059

bb1:                                              ; preds = %start
  ret i64 %0, !dbg !1060
}

; core::sync::atomic::AtomicUsize::store
; Function Attrs: inlinehint nonlazybind uwtable
define internal void @_ZN4core4sync6atomic11AtomicUsize5store17hb3a48a201f2cdff3E(%"core::sync::atomic::AtomicUsize"* align 8 %self, i64 %val, i8 %order) unnamed_addr #0 !dbg !1061 {
start:
  %self.dbg.spill2 = alloca i64*, align 8
  %order.dbg.spill = alloca i8, align 1
  %val.dbg.spill = alloca i64, align 8
  %self.dbg.spill = alloca %"core::sync::atomic::AtomicUsize"*, align 8
  store %"core::sync::atomic::AtomicUsize"* %self, %"core::sync::atomic::AtomicUsize"** %self.dbg.spill, align 8
  call void @llvm.dbg.declare(metadata %"core::sync::atomic::AtomicUsize"** %self.dbg.spill, metadata !1065, metadata !DIExpression()), !dbg !1068
  store i64 %val, i64* %val.dbg.spill, align 8
  call void @llvm.dbg.declare(metadata i64* %val.dbg.spill, metadata !1066, metadata !DIExpression()), !dbg !1069
  store i8 %order, i8* %order.dbg.spill, align 1
  call void @llvm.dbg.declare(metadata i8* %order.dbg.spill, metadata !1067, metadata !DIExpression()), !dbg !1070
  %self1 = bitcast %"core::sync::atomic::AtomicUsize"* %self to i64*, !dbg !1071, !rawptr !216
  store i64* %self1, i64** %self.dbg.spill2, align 8, !dbg !1071
  call void @llvm.dbg.declare(metadata i64** %self.dbg.spill2, metadata !1072, metadata !DIExpression()), !dbg !1076
; call core::sync::atomic::atomic_store
  call void @_ZN4core4sync6atomic12atomic_store17h7f1b902a46a504b6E(i64* %self1, i64 %val, i8 %order), !dbg !1077
  br label %bb1, !dbg !1077

bb1:                                              ; preds = %start
  ret void, !dbg !1078
}

; core::sync::atomic::atomic_load
; Function Attrs: inlinehint nonlazybind uwtable
define i64 @_ZN4core4sync6atomic11atomic_load17hb6653b559a621b7aE(i64* %dst, i8 %0) unnamed_addr #0 !dbg !1079 {
start:
  %dst.dbg.spill = alloca i64*, align 8
  %_16 = alloca %"core::fmt::Arguments", align 8
  %_8 = alloca %"core::fmt::Arguments", align 8
  %1 = alloca i64, align 8
  %order = alloca i8, align 1
  store i8 %0, i8* %order, align 1
  store i64* %dst, i64** %dst.dbg.spill, align 8
  call void @llvm.dbg.declare(metadata i64** %dst.dbg.spill, metadata !1084, metadata !DIExpression()), !dbg !1086
  call void @llvm.dbg.declare(metadata i8* %order, metadata !1085, metadata !DIExpression()), !dbg !1087
  %2 = load i8, i8* %order, align 1, !dbg !1088, !range !1089, !noundef !14
  %_3 = zext i8 %2 to i64, !dbg !1088
  switch i64 %_3, label %bb2 [
    i64 0, label %bb3
    i64 1, label %bb9
    i64 2, label %bb5
    i64 3, label %bb1
    i64 4, label %bb7
  ], !dbg !1090

bb2:                                              ; preds = %start
  unreachable, !dbg !1088

bb3:                                              ; preds = %start
  %3 = load atomic i64, i64* %dst monotonic, align 8, !dbg !1091
  store i64 %3, i64* %1, align 8, !dbg !1091
  br label %bb4, !dbg !1091

bb9:                                              ; preds = %start
; call core::fmt::Arguments::new_v1
  call void @_ZN4core3fmt9Arguments6new_v117h99be3332c30ef80dE(%"core::fmt::Arguments"* sret(%"core::fmt::Arguments") %_8, [0 x { [0 x i8]*, i64 }]* align 8 bitcast (<{ i8*, [8 x i8] }>* @alloc214 to [0 x { [0 x i8]*, i64 }]*), i64 1, [0 x { i8*, i64* }]* align 8 bitcast (<{}>* @alloc245 to [0 x { i8*, i64* }]*), i64 0), !dbg !1092
  br label %bb10, !dbg !1092

bb5:                                              ; preds = %start
  %4 = load atomic i64, i64* %dst acquire, align 8, !dbg !1093
  store i64 %4, i64* %1, align 8, !dbg !1093
  br label %bb6, !dbg !1093

bb1:                                              ; preds = %start
; call core::fmt::Arguments::new_v1
  call void @_ZN4core3fmt9Arguments6new_v117h99be3332c30ef80dE(%"core::fmt::Arguments"* sret(%"core::fmt::Arguments") %_16, [0 x { [0 x i8]*, i64 }]* align 8 bitcast (<{ i8*, [8 x i8] }>* @alloc209 to [0 x { [0 x i8]*, i64 }]*), i64 1, [0 x { i8*, i64* }]* align 8 bitcast (<{}>* @alloc245 to [0 x { i8*, i64* }]*), i64 0), !dbg !1094
  br label %bb11, !dbg !1094

bb7:                                              ; preds = %start
  %5 = load atomic i64, i64* %dst seq_cst, align 8, !dbg !1095
  store i64 %5, i64* %1, align 8, !dbg !1095
  br label %bb8, !dbg !1095

bb8:                                              ; preds = %bb7
  br label %bb12, !dbg !1096

bb12:                                             ; preds = %bb4, %bb6, %bb8
  %6 = load i64, i64* %1, align 8, !dbg !1097
  ret i64 %6, !dbg !1097

bb11:                                             ; preds = %bb1
; call core::panicking::panic_fmt
  call void @_ZN4core9panicking9panic_fmt17h8b6ce72891ae5e4fE(%"core::fmt::Arguments"* %_16, %"core::panic::location::Location"* align 8 bitcast (<{ i8*, [16 x i8] }>* @alloc479 to %"core::panic::location::Location"*)) #12, !dbg !1094
  unreachable, !dbg !1094

bb6:                                              ; preds = %bb5
  br label %bb12, !dbg !1098

bb10:                                             ; preds = %bb9
; call core::panicking::panic_fmt
  call void @_ZN4core9panicking9panic_fmt17h8b6ce72891ae5e4fE(%"core::fmt::Arguments"* %_8, %"core::panic::location::Location"* align 8 bitcast (<{ i8*, [16 x i8] }>* @alloc481 to %"core::panic::location::Location"*)) #12, !dbg !1092
  unreachable, !dbg !1092

bb4:                                              ; preds = %bb3
  br label %bb12, !dbg !1099
}

; core::sync::atomic::atomic_store
; Function Attrs: inlinehint nonlazybind uwtable
define void @_ZN4core4sync6atomic12atomic_store17h7f1b902a46a504b6E(i64* %dst, i64 %val, i8 %0) unnamed_addr #0 !dbg !1100 {
start:
  %val.dbg.spill = alloca i64, align 8
  %dst.dbg.spill = alloca i64*, align 8
  %_20 = alloca %"core::fmt::Arguments", align 8
  %_12 = alloca %"core::fmt::Arguments", align 8
  %order = alloca i8, align 1
  store i8 %0, i8* %order, align 1
  store i64* %dst, i64** %dst.dbg.spill, align 8
  call void @llvm.dbg.declare(metadata i64** %dst.dbg.spill, metadata !1104, metadata !DIExpression()), !dbg !1107
  store i64 %val, i64* %val.dbg.spill, align 8
  call void @llvm.dbg.declare(metadata i64* %val.dbg.spill, metadata !1105, metadata !DIExpression()), !dbg !1108
  call void @llvm.dbg.declare(metadata i8* %order, metadata !1106, metadata !DIExpression()), !dbg !1109
  %1 = load i8, i8* %order, align 1, !dbg !1110, !range !1089, !noundef !14
  %_4 = zext i8 %1 to i64, !dbg !1110
  switch i64 %_4, label %bb2 [
    i64 0, label %bb3
    i64 1, label %bb5
    i64 2, label %bb9
    i64 3, label %bb1
    i64 4, label %bb7
  ], !dbg !1111

bb2:                                              ; preds = %start
  unreachable, !dbg !1110

bb3:                                              ; preds = %start
  store atomic i64 %val, i64* %dst monotonic, align 8, !dbg !1112
  br label %bb4, !dbg !1112

bb5:                                              ; preds = %start
  store atomic i64 %val, i64* %dst release, align 8, !dbg !1113
  br label %bb6, !dbg !1113

bb9:                                              ; preds = %start
; call core::fmt::Arguments::new_v1
  call void @_ZN4core3fmt9Arguments6new_v117h99be3332c30ef80dE(%"core::fmt::Arguments"* sret(%"core::fmt::Arguments") %_12, [0 x { [0 x i8]*, i64 }]* align 8 bitcast (<{ i8*, [8 x i8] }>* @alloc243 to [0 x { [0 x i8]*, i64 }]*), i64 1, [0 x { i8*, i64* }]* align 8 bitcast (<{}>* @alloc245 to [0 x { i8*, i64* }]*), i64 0), !dbg !1114
  br label %bb10, !dbg !1114

bb1:                                              ; preds = %start
; call core::fmt::Arguments::new_v1
  call void @_ZN4core3fmt9Arguments6new_v117h99be3332c30ef80dE(%"core::fmt::Arguments"* sret(%"core::fmt::Arguments") %_20, [0 x { [0 x i8]*, i64 }]* align 8 bitcast (<{ i8*, [8 x i8] }>* @alloc238 to [0 x { [0 x i8]*, i64 }]*), i64 1, [0 x { i8*, i64* }]* align 8 bitcast (<{}>* @alloc245 to [0 x { i8*, i64* }]*), i64 0), !dbg !1115
  br label %bb11, !dbg !1115

bb7:                                              ; preds = %start
  store atomic i64 %val, i64* %dst seq_cst, align 8, !dbg !1116
  br label %bb8, !dbg !1116

bb8:                                              ; preds = %bb7
  br label %bb12, !dbg !1117

bb12:                                             ; preds = %bb4, %bb6, %bb8
  ret void, !dbg !1118

bb11:                                             ; preds = %bb1
; call core::panicking::panic_fmt
  call void @_ZN4core9panicking9panic_fmt17h8b6ce72891ae5e4fE(%"core::fmt::Arguments"* %_20, %"core::panic::location::Location"* align 8 bitcast (<{ i8*, [16 x i8] }>* @alloc483 to %"core::panic::location::Location"*)) #12, !dbg !1115
  unreachable, !dbg !1115

bb10:                                             ; preds = %bb9
; call core::panicking::panic_fmt
  call void @_ZN4core9panicking9panic_fmt17h8b6ce72891ae5e4fE(%"core::fmt::Arguments"* %_12, %"core::panic::location::Location"* align 8 bitcast (<{ i8*, [16 x i8] }>* @alloc485 to %"core::panic::location::Location"*)) #12, !dbg !1114
  unreachable, !dbg !1114

bb6:                                              ; preds = %bb5
  br label %bb12, !dbg !1119

bb4:                                              ; preds = %bb3
  br label %bb12, !dbg !1120
}

; core::slice::<impl [T]>::as_mut_ptr
; Function Attrs: inlinehint nonlazybind uwtable
define i8* @"_ZN4core5slice29_$LT$impl$u20$$u5b$T$u5d$$GT$10as_mut_ptr17h6229dfefbffafa18E"([0 x i8]* align 1 %self.0, i64 %self.1) unnamed_addr #0 !dbg !1121 {
start:
  %self.dbg.spill = alloca { [0 x i8]*, i64 }, align 8
  %0 = getelementptr inbounds { [0 x i8]*, i64 }, { [0 x i8]*, i64 }* %self.dbg.spill, i32 0, i32 0
  store [0 x i8]* %self.0, [0 x i8]** %0, align 8
  %1 = getelementptr inbounds { [0 x i8]*, i64 }, { [0 x i8]*, i64 }* %self.dbg.spill, i32 0, i32 1
  store i64 %self.1, i64* %1, align 8
  call void @llvm.dbg.declare(metadata { [0 x i8]*, i64 }* %self.dbg.spill, metadata !1127, metadata !DIExpression()), !dbg !1128
  %2 = bitcast [0 x i8]* %self.0 to i8*, !dbg !1129, !rawptr !216
  ret i8* %2, !dbg !1130
}

; core::slice::<impl [T]>::as_mut_ptr
; Function Attrs: inlinehint nonlazybind uwtable
define i8* @"_ZN4core5slice29_$LT$impl$u20$$u5b$T$u5d$$GT$10as_mut_ptr17h8ec28efa50643238E"([0 x i8]* align 1 %self.0, i64 %self.1) unnamed_addr #0 !dbg !1131 {
start:
  %self.dbg.spill = alloca { [0 x i8]*, i64 }, align 8
  %0 = getelementptr inbounds { [0 x i8]*, i64 }, { [0 x i8]*, i64 }* %self.dbg.spill, i32 0, i32 0
  store [0 x i8]* %self.0, [0 x i8]** %0, align 8
  %1 = getelementptr inbounds { [0 x i8]*, i64 }, { [0 x i8]*, i64 }* %self.dbg.spill, i32 0, i32 1
  store i64 %self.1, i64* %1, align 8
  call void @llvm.dbg.declare(metadata { [0 x i8]*, i64 }* %self.dbg.spill, metadata !1140, metadata !DIExpression()), !dbg !1141
  %2 = bitcast [0 x i8]* %self.0 to i8*, !dbg !1142, !rawptr !216
  ret i8* %2, !dbg !1143
}

; core::slice::<impl [T]>::iter
; Function Attrs: inlinehint nonlazybind uwtable
define { i8*, i8* } @"_ZN4core5slice29_$LT$impl$u20$$u5b$T$u5d$$GT$4iter17h26b6b49c65305eb8E"([0 x i8]* align 1 %self.0, i64 %self.1) unnamed_addr #0 !dbg !1144 {
start:
  %self.dbg.spill = alloca { [0 x i8]*, i64 }, align 8
  %0 = getelementptr inbounds { [0 x i8]*, i64 }, { [0 x i8]*, i64 }* %self.dbg.spill, i32 0, i32 0
  store [0 x i8]* %self.0, [0 x i8]** %0, align 8
  %1 = getelementptr inbounds { [0 x i8]*, i64 }, { [0 x i8]*, i64 }* %self.dbg.spill, i32 0, i32 1
  store i64 %self.1, i64* %1, align 8
  call void @llvm.dbg.declare(metadata { [0 x i8]*, i64 }* %self.dbg.spill, metadata !1160, metadata !DIExpression()), !dbg !1161
; call core::slice::iter::Iter<T>::new
  %2 = call { i8*, i8* } @"_ZN4core5slice4iter13Iter$LT$T$GT$3new17hd42ad7e383601145E"([0 x i8]* align 1 %self.0, i64 %self.1), !dbg !1162
  %3 = extractvalue { i8*, i8* } %2, 0, !dbg !1162
  %4 = extractvalue { i8*, i8* } %2, 1, !dbg !1162
  br label %bb1, !dbg !1162

bb1:                                              ; preds = %start
  %5 = insertvalue { i8*, i8* } undef, i8* %3, 0, !dbg !1163
  %6 = insertvalue { i8*, i8* } %5, i8* %4, 1, !dbg !1163
  ret { i8*, i8* } %6, !dbg !1163
}

; core::slice::<impl [T]>::last
; Function Attrs: inlinehint nonlazybind uwtable
define align 1 i8* @"_ZN4core5slice29_$LT$impl$u20$$u5b$T$u5d$$GT$4last17hb11a46b9481416e1E"([0 x i8]* align 1 %self.0, i64 %self.1) unnamed_addr #0 !dbg !1164 {
start:
  %last.dbg.spill = alloca i8*, align 8
  %self.dbg.spill = alloca { [0 x i8]*, i64 }, align 8
  %0 = alloca i8*, align 8
  %1 = getelementptr inbounds { [0 x i8]*, i64 }, { [0 x i8]*, i64 }* %self.dbg.spill, i32 0, i32 0
  store [0 x i8]* %self.0, [0 x i8]** %1, align 8
  %2 = getelementptr inbounds { [0 x i8]*, i64 }, { [0 x i8]*, i64 }* %self.dbg.spill, i32 0, i32 1
  store i64 %self.1, i64* %2, align 8
  call void @llvm.dbg.declare(metadata { [0 x i8]*, i64 }* %self.dbg.spill, metadata !1168, metadata !DIExpression()), !dbg !1171
  %_4 = icmp uge i64 %self.1, 1, !dbg !1172
  br i1 %_4, label %bb1, label %bb2, !dbg !1172

bb2:                                              ; preds = %start
  %3 = bitcast i8** %0 to {}**, !dbg !1173
  store {}* null, {}** %3, align 8, !dbg !1173
  br label %bb3, !dbg !1174

bb1:                                              ; preds = %start
  %4 = sub i64 %self.1, 1, !dbg !1175
  %last = getelementptr inbounds [0 x i8], [0 x i8]* %self.0, i64 0, i64 %4, !dbg !1175
  store i8* %last, i8** %last.dbg.spill, align 8, !dbg !1175
  call void @llvm.dbg.declare(metadata i8** %last.dbg.spill, metadata !1169, metadata !DIExpression()), !dbg !1175
  store i8* %last, i8** %0, align 8, !dbg !1176
  br label %bb3, !dbg !1174

bb3:                                              ; preds = %bb2, %bb1
  %5 = load i8*, i8** %0, align 8, !dbg !1177, !align !425
  ret i8* %5, !dbg !1177
}

; core::slice::<impl [T]>::get_mut
; Function Attrs: inlinehint nonlazybind uwtable
define { i8*, i64 } @"_ZN4core5slice29_$LT$impl$u20$$u5b$T$u5d$$GT$7get_mut17h84212123bcce0656E"([0 x i8]* align 1 %self.0, i64 %self.1, i64 %index) unnamed_addr #0 !dbg !1178 {
start:
  %index.dbg.spill = alloca i64, align 8
  %self.dbg.spill = alloca { [0 x i8]*, i64 }, align 8
  %0 = getelementptr inbounds { [0 x i8]*, i64 }, { [0 x i8]*, i64 }* %self.dbg.spill, i32 0, i32 0
  store [0 x i8]* %self.0, [0 x i8]** %0, align 8
  %1 = getelementptr inbounds { [0 x i8]*, i64 }, { [0 x i8]*, i64 }* %self.dbg.spill, i32 0, i32 1
  store i64 %self.1, i64* %1, align 8
  call void @llvm.dbg.declare(metadata { [0 x i8]*, i64 }* %self.dbg.spill, metadata !1182, metadata !DIExpression()), !dbg !1186
  store i64 %index, i64* %index.dbg.spill, align 8
  call void @llvm.dbg.declare(metadata i64* %index.dbg.spill, metadata !1183, metadata !DIExpression()), !dbg !1187
; call <core::ops::range::RangeFrom<usize> as core::slice::index::SliceIndex<[T]>>::get_mut
  %2 = call { i8*, i64 } @"_ZN110_$LT$core..ops..range..RangeFrom$LT$usize$GT$$u20$as$u20$core..slice..index..SliceIndex$LT$$u5b$T$u5d$$GT$$GT$7get_mut17hf87198b0652b67a9E"(i64 %index, [0 x i8]* align 1 %self.0, i64 %self.1), !dbg !1188
  %3 = extractvalue { i8*, i64 } %2, 0, !dbg !1188
  %4 = extractvalue { i8*, i64 } %2, 1, !dbg !1188
  br label %bb1, !dbg !1188

bb1:                                              ; preds = %start
  %5 = insertvalue { i8*, i64 } undef, i8* %3, 0, !dbg !1189
  %6 = insertvalue { i8*, i64 } %5, i64 %4, 1, !dbg !1189
  ret { i8*, i64 } %6, !dbg !1189
}

; core::slice::<impl [T]>::is_empty
; Function Attrs: inlinehint nonlazybind uwtable
define zeroext i1 @"_ZN4core5slice29_$LT$impl$u20$$u5b$T$u5d$$GT$8is_empty17h46cba06d32fba3b8E"([0 x i8]* align 1 %self.0, i64 %self.1) unnamed_addr #0 !dbg !1190 {
start:
  %self.dbg.spill = alloca { [0 x i8]*, i64 }, align 8
  %0 = getelementptr inbounds { [0 x i8]*, i64 }, { [0 x i8]*, i64 }* %self.dbg.spill, i32 0, i32 0
  store [0 x i8]* %self.0, [0 x i8]** %0, align 8
  %1 = getelementptr inbounds { [0 x i8]*, i64 }, { [0 x i8]*, i64 }* %self.dbg.spill, i32 0, i32 1
  store i64 %self.1, i64* %1, align 8
  call void @llvm.dbg.declare(metadata { [0 x i8]*, i64 }* %self.dbg.spill, metadata !1198, metadata !DIExpression()), !dbg !1199
  %2 = icmp eq i64 %self.1, 0, !dbg !1200
  ret i1 %2, !dbg !1201
}

; core::slice::iter::Iter<T>::new
; Function Attrs: inlinehint nonlazybind uwtable
define { i8*, i8* } @"_ZN4core5slice4iter13Iter$LT$T$GT$3new17hd42ad7e383601145E"([0 x i8]* align 1 %slice.0, i64 %slice.1) unnamed_addr #0 !dbg !1202 {
start:
  %ptr.dbg.spill10 = alloca i8*, align 8
  %0 = alloca i8*, align 8
  %count.dbg.spill9 = alloca i64, align 8
  %self.dbg.spill8 = alloca i8*, align 8
  %count.dbg.spill7 = alloca i64, align 8
  %self.dbg.spill6 = alloca i8*, align 8
  %count.dbg.spill5 = alloca i64, align 8
  %self.dbg.spill4 = alloca i8*, align 8
  %count.dbg.spill = alloca i64, align 8
  %self.dbg.spill3 = alloca i8*, align 8
  %1 = alloca i8, align 1
  %other.dbg.spill = alloca i8*, align 8
  %data_address.dbg.spill = alloca {}*, align 8
  %2 = alloca {}*, align 8
  %self.dbg.spill2 = alloca i8*, align 8
  %self.dbg.spill1 = alloca i8*, align 8
  %ptr.dbg.spill = alloca i8*, align 8
  %self.dbg.spill = alloca { [0 x i8]*, i64 }, align 8
  %metadata.dbg.spill = alloca {}, align 1
  %slice.dbg.spill = alloca { [0 x i8]*, i64 }, align 8
  %_31 = alloca %"core::ptr::metadata::PtrComponents<u8>", align 8
  %_30 = alloca %"core::ptr::metadata::PtrRepr<u8>", align 8
  %_18 = alloca i8*, align 8, !rawptr !216
  %end = alloca i8*, align 8, !rawptr !216
  %3 = alloca { i8*, i8* }, align 8
  %4 = getelementptr inbounds { [0 x i8]*, i64 }, { [0 x i8]*, i64 }* %slice.dbg.spill, i32 0, i32 0
  store [0 x i8]* %slice.0, [0 x i8]** %4, align 8
  %5 = getelementptr inbounds { [0 x i8]*, i64 }, { [0 x i8]*, i64 }* %slice.dbg.spill, i32 0, i32 1
  store i64 %slice.1, i64* %5, align 8
  call void @llvm.dbg.declare(metadata { [0 x i8]*, i64 }* %slice.dbg.spill, metadata !1205, metadata !DIExpression()), !dbg !1210
  call void @llvm.dbg.declare(metadata i8** %end, metadata !1208, metadata !DIExpression()), !dbg !1211
  call void @llvm.dbg.declare(metadata {}* %metadata.dbg.spill, metadata !1212, metadata !DIExpression()), !dbg !1219
  %6 = getelementptr inbounds { [0 x i8]*, i64 }, { [0 x i8]*, i64 }* %self.dbg.spill, i32 0, i32 0, !dbg !1232
  store [0 x i8]* %slice.0, [0 x i8]** %6, align 8, !dbg !1232
  %7 = getelementptr inbounds { [0 x i8]*, i64 }, { [0 x i8]*, i64 }* %self.dbg.spill, i32 0, i32 1, !dbg !1232
  store i64 %slice.1, i64* %7, align 8, !dbg !1232
  call void @llvm.dbg.declare(metadata { [0 x i8]*, i64 }* %self.dbg.spill, metadata !1233, metadata !DIExpression()), !dbg !1239
  %ptr = bitcast [0 x i8]* %slice.0 to i8*, !dbg !1239, !rawptr !216
  store i8* %ptr, i8** %ptr.dbg.spill, align 8, !dbg !1239
  call void @llvm.dbg.declare(metadata i8** %ptr.dbg.spill, metadata !1206, metadata !DIExpression()), !dbg !1240
  store i8* %ptr, i8** %self.dbg.spill1, align 8, !dbg !1231
  call void @llvm.dbg.declare(metadata i8** %self.dbg.spill1, metadata !1229, metadata !DIExpression()), !dbg !1241
  store i8* %ptr, i8** %self.dbg.spill2, align 8, !dbg !1241
  call void @llvm.dbg.declare(metadata i8** %self.dbg.spill2, metadata !1242, metadata !DIExpression()), !dbg !1249
  %8 = bitcast {}** %2 to i64*, !dbg !1251
  store i64 0, i64* %8, align 8, !dbg !1251
  %data_address = load {}*, {}** %2, align 8, !dbg !1251, !rawptr !216
  store {}* %data_address, {}** %data_address.dbg.spill, align 8, !dbg !1251
  call void @llvm.dbg.declare(metadata {}** %data_address.dbg.spill, metadata !1218, metadata !DIExpression()), !dbg !1219
  br label %bb5, !dbg !1251

bb5:                                              ; preds = %start
  %9 = bitcast %"core::ptr::metadata::PtrComponents<u8>"* %_31 to {}**, !dbg !1219, !rawptr !216
  store {}* %data_address, {}** %9, align 8, !dbg !1219
  %10 = bitcast %"core::ptr::metadata::PtrRepr<u8>"* %_30 to %"core::ptr::metadata::PtrComponents<u8>"*, !dbg !1219
  %11 = bitcast %"core::ptr::metadata::PtrComponents<u8>"* %10 to i8*, !dbg !1219
  %12 = bitcast %"core::ptr::metadata::PtrComponents<u8>"* %_31 to i8*, !dbg !1219
  call void @llvm.memcpy.p0i8.p0i8.i64(i8* align 8 %11, i8* align 8 %12, i64 8, i1 false), !dbg !1219
  %13 = bitcast %"core::ptr::metadata::PtrRepr<u8>"* %_30 to i8**, !dbg !1219
  %other = load i8*, i8** %13, align 8, !dbg !1219, !rawptr !216
  store i8* %other, i8** %other.dbg.spill, align 8, !dbg !1219
  call void @llvm.dbg.declare(metadata i8** %other.dbg.spill, metadata !1248, metadata !DIExpression()), !dbg !1249
  %14 = icmp eq i8* %ptr, %other, !dbg !1249
  %15 = zext i1 %14 to i8, !dbg !1249
  store i8 %15, i8* %1, align 1, !dbg !1249
  %16 = load i8, i8* %1, align 1, !dbg !1249, !range !420, !noundef !14
  %_6 = trunc i8 %16 to i1, !dbg !1249
  br label %bb6, !dbg !1249

bb6:                                              ; preds = %bb5
  %_5 = xor i1 %_6, true, !dbg !1260
  call void @llvm.assume(i1 %_5), !dbg !1261
  br label %bb1, !dbg !1261

bb1:                                              ; preds = %bb6
  br i1 false, label %bb2, label %bb3, !dbg !1262

bb2:                                              ; preds = %bb1
  store i8* %ptr, i8** %self.dbg.spill6, align 8, !dbg !1263
  call void @llvm.dbg.declare(metadata i8** %self.dbg.spill6, metadata !1264, metadata !DIExpression()), !dbg !1269
  store i64 %slice.1, i64* %count.dbg.spill7, align 8, !dbg !1270
  call void @llvm.dbg.declare(metadata i64* %count.dbg.spill7, metadata !1268, metadata !DIExpression()), !dbg !1269
  store i8* %ptr, i8** %self.dbg.spill8, align 8, !dbg !1269
  call void @llvm.dbg.declare(metadata i8** %self.dbg.spill8, metadata !1271, metadata !DIExpression()), !dbg !1276
  store i64 %slice.1, i64* %count.dbg.spill9, align 8, !dbg !1269
  call void @llvm.dbg.declare(metadata i64* %count.dbg.spill9, metadata !1275, metadata !DIExpression()), !dbg !1276
  %17 = getelementptr i8, i8* %ptr, i64 %slice.1, !dbg !1276
  store i8* %17, i8** %0, align 8, !dbg !1276
  %_10 = load i8*, i8** %0, align 8, !dbg !1276, !rawptr !216
  br label %bb7, !dbg !1276

bb3:                                              ; preds = %bb1
  store i8* %ptr, i8** %self.dbg.spill3, align 8, !dbg !1278
  call void @llvm.dbg.declare(metadata i8** %self.dbg.spill3, metadata !1279, metadata !DIExpression()), !dbg !1284
  store i64 %slice.1, i64* %count.dbg.spill, align 8, !dbg !1285
  call void @llvm.dbg.declare(metadata i64* %count.dbg.spill, metadata !1283, metadata !DIExpression()), !dbg !1284
  store i8* %ptr, i8** %self.dbg.spill4, align 8, !dbg !1284
  call void @llvm.dbg.declare(metadata i8** %self.dbg.spill4, metadata !1286, metadata !DIExpression()), !dbg !1291
  store i64 %slice.1, i64* %count.dbg.spill5, align 8, !dbg !1284
  call void @llvm.dbg.declare(metadata i64* %count.dbg.spill5, metadata !1290, metadata !DIExpression()), !dbg !1291
  %18 = getelementptr inbounds i8, i8* %ptr, i64 %slice.1, !dbg !1291
  store i8* %18, i8** %end, align 8, !dbg !1291
  br label %bb8, !dbg !1291

bb8:                                              ; preds = %bb3
  br label %bb4, !dbg !1293

bb4:                                              ; preds = %bb7, %bb8
  store i8* %ptr, i8** %ptr.dbg.spill10, align 8, !dbg !1294
  call void @llvm.dbg.declare(metadata i8** %ptr.dbg.spill10, metadata !1295, metadata !DIExpression()), !dbg !1302
  store i8* %ptr, i8** %_18, align 8, !dbg !1302
  %_21 = load i8*, i8** %end, align 8, !dbg !1304, !rawptr !216
  %19 = bitcast { i8*, i8* }* %3 to i8**, !dbg !1305
  %20 = load i8*, i8** %_18, align 8, !dbg !1305, !nonnull !14, !noundef !14
  store i8* %20, i8** %19, align 8, !dbg !1305
  %21 = getelementptr inbounds { i8*, i8* }, { i8*, i8* }* %3, i32 0, i32 1, !dbg !1305, !rawptr !216
  store i8* %_21, i8** %21, align 8, !dbg !1305
  %22 = getelementptr inbounds { i8*, i8* }, { i8*, i8* }* %3, i32 0, i32 0, !dbg !1306
  %23 = load i8*, i8** %22, align 8, !dbg !1306, !nonnull !14, !noundef !14
  %24 = getelementptr inbounds { i8*, i8* }, { i8*, i8* }* %3, i32 0, i32 1, !dbg !1306
  %25 = load i8*, i8** %24, align 8, !dbg !1306
  %26 = insertvalue { i8*, i8* } undef, i8* %23, 0, !dbg !1306
  %27 = insertvalue { i8*, i8* } %26, i8* %25, 1, !dbg !1306
  ret { i8*, i8* } %27, !dbg !1306

bb7:                                              ; preds = %bb2
  store i8* %_10, i8** %end, align 8, !dbg !1263
  br label %bb4, !dbg !1293
}

; core::slice::index::<impl core::ops::index::Index<I> for [T]>::index
; Function Attrs: inlinehint nonlazybind uwtable
define { [0 x i8]*, i64 } @"_ZN4core5slice5index74_$LT$impl$u20$core..ops..index..Index$LT$I$GT$$u20$for$u20$$u5b$T$u5d$$GT$5index17h1a32dd6a78db0114E"([0 x i8]* align 1 %self.0, i64 %self.1, i64 %index, %"core::panic::location::Location"* align 8 %0) unnamed_addr #0 !dbg !1307 {
start:
  %index.dbg.spill = alloca i64, align 8
  %self.dbg.spill = alloca { [0 x i8]*, i64 }, align 8
  %1 = getelementptr inbounds { [0 x i8]*, i64 }, { [0 x i8]*, i64 }* %self.dbg.spill, i32 0, i32 0
  store [0 x i8]* %self.0, [0 x i8]** %1, align 8
  %2 = getelementptr inbounds { [0 x i8]*, i64 }, { [0 x i8]*, i64 }* %self.dbg.spill, i32 0, i32 1
  store i64 %self.1, i64* %2, align 8
  call void @llvm.dbg.declare(metadata { [0 x i8]*, i64 }* %self.dbg.spill, metadata !1312, metadata !DIExpression()), !dbg !1316
  store i64 %index, i64* %index.dbg.spill, align 8
  call void @llvm.dbg.declare(metadata i64* %index.dbg.spill, metadata !1313, metadata !DIExpression()), !dbg !1317
; call <core::ops::range::RangeTo<usize> as core::slice::index::SliceIndex<[T]>>::index
  %3 = call { [0 x i8]*, i64 } @"_ZN108_$LT$core..ops..range..RangeTo$LT$usize$GT$$u20$as$u20$core..slice..index..SliceIndex$LT$$u5b$T$u5d$$GT$$GT$5index17hc37b594fc9eb606aE"(i64 %index, [0 x i8]* align 1 %self.0, i64 %self.1, %"core::panic::location::Location"* align 8 %0), !dbg !1318
  %4 = extractvalue { [0 x i8]*, i64 } %3, 0, !dbg !1318
  %5 = extractvalue { [0 x i8]*, i64 } %3, 1, !dbg !1318
  br label %bb1, !dbg !1318

bb1:                                              ; preds = %start
  %6 = insertvalue { [0 x i8]*, i64 } undef, [0 x i8]* %4, 0, !dbg !1319
  %7 = insertvalue { [0 x i8]*, i64 } %6, i64 %5, 1, !dbg !1319
  ret { [0 x i8]*, i64 } %7, !dbg !1319
}

; core::option::Option<T>::ok_or
; Function Attrs: inlinehint nonlazybind uwtable
define void @"_ZN4core6option15Option$LT$T$GT$5ok_or17hfc87e3997bccc8f4E"(%"core::result::Result<&mut [core::mem::maybe_uninit::MaybeUninit<u8>], error::Error>"* sret(%"core::result::Result<&mut [core::mem::maybe_uninit::MaybeUninit<u8>], error::Error>") %0, i8* align 1 %1, i64 %2, i32 %err) unnamed_addr #0 !dbg !1320 {
start:
  %v.dbg.spill = alloca { [0 x i8]*, i64 }, align 8
  %err.dbg.spill = alloca i32, align 4
  %_7 = alloca i8, align 1
  %self = alloca { i8*, i64 }, align 8
  %3 = getelementptr inbounds { i8*, i64 }, { i8*, i64 }* %self, i32 0, i32 0
  store i8* %1, i8** %3, align 8
  %4 = getelementptr inbounds { i8*, i64 }, { i8*, i64 }* %self, i32 0, i32 1
  store i64 %2, i64* %4, align 8
  call void @llvm.dbg.declare(metadata { i8*, i64 }* %self, metadata !1339, metadata !DIExpression()), !dbg !1343
  store i32 %err, i32* %err.dbg.spill, align 4
  call void @llvm.dbg.declare(metadata i32* %err.dbg.spill, metadata !1340, metadata !DIExpression()), !dbg !1344
  store i8 1, i8* %_7, align 1, !dbg !1345
  %5 = bitcast { i8*, i64 }* %self to {}**, !dbg !1345
  %6 = load {}*, {}** %5, align 8, !dbg !1345
  %7 = icmp eq {}* %6, null, !dbg !1345
  %_3 = select i1 %7, i64 0, i64 1, !dbg !1345
  switch i64 %_3, label %bb2 [
    i64 0, label %bb1
    i64 1, label %bb3
  ], !dbg !1346

bb2:                                              ; preds = %start
  unreachable, !dbg !1345

bb1:                                              ; preds = %start
  store i8 0, i8* %_7, align 1, !dbg !1347
  %8 = bitcast %"core::result::Result<&mut [core::mem::maybe_uninit::MaybeUninit<u8>], error::Error>"* %0 to %"core::result::Result<&mut [core::mem::maybe_uninit::MaybeUninit<u8>], error::Error>::Err"*, !dbg !1348
  %9 = getelementptr inbounds %"core::result::Result<&mut [core::mem::maybe_uninit::MaybeUninit<u8>], error::Error>::Err", %"core::result::Result<&mut [core::mem::maybe_uninit::MaybeUninit<u8>], error::Error>::Err"* %8, i32 0, i32 1, !dbg !1348
  store i32 %err, i32* %9, align 4, !dbg !1348
  %10 = bitcast %"core::result::Result<&mut [core::mem::maybe_uninit::MaybeUninit<u8>], error::Error>"* %0 to i32*, !dbg !1348
  store i32 1, i32* %10, align 8, !dbg !1348
  br label %bb6, !dbg !1349

bb3:                                              ; preds = %start
  %11 = bitcast { i8*, i64 }* %self to { [0 x i8]*, i64 }*, !dbg !1350
  %12 = getelementptr inbounds { [0 x i8]*, i64 }, { [0 x i8]*, i64 }* %11, i32 0, i32 0, !dbg !1350
  %v.0 = load [0 x i8]*, [0 x i8]** %12, align 8, !dbg !1350, !nonnull !14, !align !425, !noundef !14
  %13 = getelementptr inbounds { [0 x i8]*, i64 }, { [0 x i8]*, i64 }* %11, i32 0, i32 1, !dbg !1350
  %v.1 = load i64, i64* %13, align 8, !dbg !1350
  %14 = getelementptr inbounds { [0 x i8]*, i64 }, { [0 x i8]*, i64 }* %v.dbg.spill, i32 0, i32 0, !dbg !1350
  store [0 x i8]* %v.0, [0 x i8]** %14, align 8, !dbg !1350
  %15 = getelementptr inbounds { [0 x i8]*, i64 }, { [0 x i8]*, i64 }* %v.dbg.spill, i32 0, i32 1, !dbg !1350
  store i64 %v.1, i64* %15, align 8, !dbg !1350
  call void @llvm.dbg.declare(metadata { [0 x i8]*, i64 }* %v.dbg.spill, metadata !1341, metadata !DIExpression()), !dbg !1351
  %16 = bitcast %"core::result::Result<&mut [core::mem::maybe_uninit::MaybeUninit<u8>], error::Error>"* %0 to %"core::result::Result<&mut [core::mem::maybe_uninit::MaybeUninit<u8>], error::Error>::Ok"*, !dbg !1352
  %17 = getelementptr inbounds %"core::result::Result<&mut [core::mem::maybe_uninit::MaybeUninit<u8>], error::Error>::Ok", %"core::result::Result<&mut [core::mem::maybe_uninit::MaybeUninit<u8>], error::Error>::Ok"* %16, i32 0, i32 1, !dbg !1352
  %18 = getelementptr inbounds { [0 x i8]*, i64 }, { [0 x i8]*, i64 }* %17, i32 0, i32 0, !dbg !1352
  store [0 x i8]* %v.0, [0 x i8]** %18, align 8, !dbg !1352
  %19 = getelementptr inbounds { [0 x i8]*, i64 }, { [0 x i8]*, i64 }* %17, i32 0, i32 1, !dbg !1352
  store i64 %v.1, i64* %19, align 8, !dbg !1352
  %20 = bitcast %"core::result::Result<&mut [core::mem::maybe_uninit::MaybeUninit<u8>], error::Error>"* %0 to i32*, !dbg !1352
  store i32 0, i32* %20, align 8, !dbg !1352
  br label %bb6, !dbg !1353

bb6:                                              ; preds = %bb1, %bb3
  %21 = load i8, i8* %_7, align 1, !dbg !1354, !range !420, !noundef !14
  %22 = trunc i8 %21 to i1, !dbg !1354
  br i1 %22, label %bb5, label %bb4, !dbg !1354

bb4:                                              ; preds = %bb5, %bb6
  ret void, !dbg !1355

bb5:                                              ; preds = %bb6
  br label %bb4, !dbg !1354
}

; core::option::Option<T>::unwrap
; Function Attrs: inlinehint nonlazybind uwtable
define i32 @"_ZN4core6option15Option$LT$T$GT$6unwrap17h367630f374e1a27bE"(i32 %0, %"core::panic::location::Location"* align 8 %1) unnamed_addr #0 !dbg !1356 {
start:
  %val.dbg.spill = alloca i32, align 4
  %self = alloca i32, align 4
  store i32 %0, i32* %self, align 4
  call void @llvm.dbg.declare(metadata i32* %self, metadata !1360, metadata !DIExpression()), !dbg !1363
  %2 = load i32, i32* %self, align 4, !dbg !1364
  %3 = icmp eq i32 %2, 0, !dbg !1364
  %_2 = select i1 %3, i64 0, i64 1, !dbg !1364
  switch i64 %_2, label %bb2 [
    i64 0, label %bb1
    i64 1, label %bb3
  ], !dbg !1365

bb2:                                              ; preds = %start
  unreachable, !dbg !1364

bb1:                                              ; preds = %start
; call core::panicking::panic
  call void @_ZN4core9panicking5panic17hdee7c0ac456df10cE([0 x i8]* align 1 bitcast (<{ [43 x i8] }>* @alloc486 to [0 x i8]*), i64 43, %"core::panic::location::Location"* align 8 %1) #12, !dbg !1366
  unreachable, !dbg !1366

bb3:                                              ; preds = %start
  %val = load i32, i32* %self, align 4, !dbg !1367, !range !512, !noundef !14
  store i32 %val, i32* %val.dbg.spill, align 4, !dbg !1367
  call void @llvm.dbg.declare(metadata i32* %val.dbg.spill, metadata !1361, metadata !DIExpression()), !dbg !1368
  ret i32 %val, !dbg !1369
}

; core::option::Option<T>::unwrap_or
; Function Attrs: inlinehint nonlazybind uwtable
define i64 @"_ZN4core6option15Option$LT$T$GT$9unwrap_or17h9eed97c586a82e77E"(i64 %0, i64 %1, i64 %default) unnamed_addr #0 !dbg !1370 {
start:
  %x.dbg.spill = alloca i64, align 8
  %default.dbg.spill = alloca i64, align 8
  %_5 = alloca i8, align 1
  %2 = alloca i64, align 8
  %self = alloca { i64, i64 }, align 8
  %3 = getelementptr inbounds { i64, i64 }, { i64, i64 }* %self, i32 0, i32 0
  store i64 %0, i64* %3, align 8
  %4 = getelementptr inbounds { i64, i64 }, { i64, i64 }* %self, i32 0, i32 1
  store i64 %1, i64* %4, align 8
  call void @llvm.dbg.declare(metadata { i64, i64 }* %self, metadata !1374, metadata !DIExpression()), !dbg !1378
  store i64 %default, i64* %default.dbg.spill, align 8
  call void @llvm.dbg.declare(metadata i64* %default.dbg.spill, metadata !1375, metadata !DIExpression()), !dbg !1379
  store i8 1, i8* %_5, align 1, !dbg !1380
  %5 = bitcast { i64, i64 }* %self to i64*, !dbg !1380
  %_3 = load i64, i64* %5, align 8, !dbg !1380, !range !1381, !noundef !14
  switch i64 %_3, label %bb2 [
    i64 0, label %bb1
    i64 1, label %bb3
  ], !dbg !1382

bb2:                                              ; preds = %start
  unreachable, !dbg !1380

bb1:                                              ; preds = %start
  store i8 0, i8* %_5, align 1, !dbg !1383
  store i64 %default, i64* %2, align 8, !dbg !1383
  br label %bb6, !dbg !1383

bb3:                                              ; preds = %start
  %6 = getelementptr inbounds { i64, i64 }, { i64, i64 }* %self, i32 0, i32 1, !dbg !1384
  %x = load i64, i64* %6, align 8, !dbg !1384
  store i64 %x, i64* %x.dbg.spill, align 8, !dbg !1384
  call void @llvm.dbg.declare(metadata i64* %x.dbg.spill, metadata !1376, metadata !DIExpression()), !dbg !1385
  store i64 %x, i64* %2, align 8, !dbg !1386
  br label %bb6, !dbg !1387

bb6:                                              ; preds = %bb1, %bb3
  %7 = load i8, i8* %_5, align 1, !dbg !1388, !range !420, !noundef !14
  %8 = trunc i8 %7 to i1, !dbg !1388
  br i1 %8, label %bb5, label %bb4, !dbg !1388

bb4:                                              ; preds = %bb5, %bb6
  %9 = load i64, i64* %2, align 8, !dbg !1389
  ret i64 %9, !dbg !1389

bb5:                                              ; preds = %bb6
  br label %bb4, !dbg !1388
}

; core::result::Result<T,E>::ok
; Function Attrs: inlinehint nonlazybind uwtable
define { i8*, i64 } @"_ZN4core6result19Result$LT$T$C$E$GT$2ok17he99ec388651ae613E"(%"core::result::Result<&str, core::str::error::Utf8Error>"* %self) unnamed_addr #0 !dbg !1390 {
start:
  %x.dbg.spill = alloca { [0 x i8]*, i64 }, align 8
  %x = alloca %"core::str::error::Utf8Error", align 8
  %0 = alloca { i8*, i64 }, align 8
  call void @llvm.dbg.declare(metadata %"core::result::Result<&str, core::str::error::Utf8Error>"* %self, metadata !1436, metadata !DIExpression()), !dbg !1441
  call void @llvm.dbg.declare(metadata %"core::str::error::Utf8Error"* %x, metadata !1439, metadata !DIExpression()), !dbg !1442
  %1 = bitcast %"core::result::Result<&str, core::str::error::Utf8Error>"* %self to i64*, !dbg !1443
  %_2 = load i64, i64* %1, align 8, !dbg !1443, !range !1381, !noundef !14
  switch i64 %_2, label %bb2 [
    i64 0, label %bb3
    i64 1, label %bb1
  ], !dbg !1444

bb2:                                              ; preds = %start
  unreachable, !dbg !1443

bb3:                                              ; preds = %start
  %2 = bitcast %"core::result::Result<&str, core::str::error::Utf8Error>"* %self to %"core::result::Result<&str, core::str::error::Utf8Error>::Ok"*, !dbg !1445
  %3 = getelementptr inbounds %"core::result::Result<&str, core::str::error::Utf8Error>::Ok", %"core::result::Result<&str, core::str::error::Utf8Error>::Ok"* %2, i32 0, i32 1, !dbg !1445
  %4 = getelementptr inbounds { [0 x i8]*, i64 }, { [0 x i8]*, i64 }* %3, i32 0, i32 0, !dbg !1445
  %x.0 = load [0 x i8]*, [0 x i8]** %4, align 8, !dbg !1445, !nonnull !14, !align !425, !noundef !14
  %5 = getelementptr inbounds { [0 x i8]*, i64 }, { [0 x i8]*, i64 }* %3, i32 0, i32 1, !dbg !1445
  %x.1 = load i64, i64* %5, align 8, !dbg !1445
  %6 = getelementptr inbounds { [0 x i8]*, i64 }, { [0 x i8]*, i64 }* %x.dbg.spill, i32 0, i32 0, !dbg !1445
  store [0 x i8]* %x.0, [0 x i8]** %6, align 8, !dbg !1445
  %7 = getelementptr inbounds { [0 x i8]*, i64 }, { [0 x i8]*, i64 }* %x.dbg.spill, i32 0, i32 1, !dbg !1445
  store i64 %x.1, i64* %7, align 8, !dbg !1445
  call void @llvm.dbg.declare(metadata { [0 x i8]*, i64 }* %x.dbg.spill, metadata !1437, metadata !DIExpression()), !dbg !1446
  %8 = bitcast { i8*, i64 }* %0 to { [0 x i8]*, i64 }*, !dbg !1447
  %9 = getelementptr inbounds { [0 x i8]*, i64 }, { [0 x i8]*, i64 }* %8, i32 0, i32 0, !dbg !1447
  store [0 x i8]* %x.0, [0 x i8]** %9, align 8, !dbg !1447
  %10 = getelementptr inbounds { [0 x i8]*, i64 }, { [0 x i8]*, i64 }* %8, i32 0, i32 1, !dbg !1447
  store i64 %x.1, i64* %10, align 8, !dbg !1447
  br label %bb5, !dbg !1448

bb1:                                              ; preds = %start
  %11 = bitcast %"core::result::Result<&str, core::str::error::Utf8Error>"* %self to %"core::result::Result<&str, core::str::error::Utf8Error>::Err"*, !dbg !1449
  %12 = getelementptr inbounds %"core::result::Result<&str, core::str::error::Utf8Error>::Err", %"core::result::Result<&str, core::str::error::Utf8Error>::Err"* %11, i32 0, i32 1, !dbg !1449
  %13 = bitcast %"core::str::error::Utf8Error"* %x to i8*, !dbg !1449
  %14 = bitcast %"core::str::error::Utf8Error"* %12 to i8*, !dbg !1449
  call void @llvm.memcpy.p0i8.p0i8.i64(i8* align 8 %13, i8* align 8 %14, i64 16, i1 false), !dbg !1449
  %15 = bitcast { i8*, i64 }* %0 to {}**, !dbg !1450
  store {}* null, {}** %15, align 8, !dbg !1450
  br label %bb4, !dbg !1451

bb4:                                              ; preds = %bb1
  br label %bb5, !dbg !1451

bb5:                                              ; preds = %bb3, %bb4
  %16 = getelementptr inbounds { i8*, i64 }, { i8*, i64 }* %0, i32 0, i32 0, !dbg !1452
  %17 = load i8*, i8** %16, align 8, !dbg !1452, !align !425
  %18 = getelementptr inbounds { i8*, i64 }, { i8*, i64 }* %0, i32 0, i32 1, !dbg !1452
  %19 = load i64, i64* %18, align 8, !dbg !1452
  %20 = insertvalue { i8*, i64 } undef, i8* %17, 0, !dbg !1452
  %21 = insertvalue { i8*, i64 } %20, i64 %19, 1, !dbg !1452
  ret { i8*, i64 } %21, !dbg !1452
}

; core::panicking::assert_failed
; Function Attrs: cold noreturn nonlazybind uwtable
define void @_ZN4core9panicking13assert_failed17h72fefa2b78fd5ea2E(i8 %kind, i32* align 4 %0, i32* align 4 %1, %"core::option::Option<core::fmt::Arguments>"* %args, %"core::panic::location::Location"* align 8 %2) unnamed_addr #2 !dbg !1453 {
start:
  %kind.dbg.spill = alloca i8, align 1
  %_13 = alloca %"core::option::Option<core::fmt::Arguments>", align 8
  %right = alloca i32*, align 8
  %left = alloca i32*, align 8
  store i32* %0, i32** %left, align 8
  store i32* %1, i32** %right, align 8
  store i8 %kind, i8* %kind.dbg.spill, align 1
  call void @llvm.dbg.declare(metadata i8* %kind.dbg.spill, metadata !1471, metadata !DIExpression()), !dbg !1477
  call void @llvm.dbg.declare(metadata i32** %left, metadata !1472, metadata !DIExpression()), !dbg !1478
  call void @llvm.dbg.declare(metadata i32** %right, metadata !1473, metadata !DIExpression()), !dbg !1479
  call void @llvm.dbg.declare(metadata %"core::option::Option<core::fmt::Arguments>"* %args, metadata !1474, metadata !DIExpression()), !dbg !1480
  %_7.0 = bitcast i32** %left to {}*, !dbg !1481
  %_10.0 = bitcast i32** %right to {}*, !dbg !1482
  %3 = bitcast %"core::option::Option<core::fmt::Arguments>"* %_13 to i8*, !dbg !1483
  %4 = bitcast %"core::option::Option<core::fmt::Arguments>"* %args to i8*, !dbg !1483
  call void @llvm.memcpy.p0i8.p0i8.i64(i8* align 8 %3, i8* align 8 %4, i64 48, i1 false), !dbg !1483
; call core::panicking::assert_failed_inner
  call void @_ZN4core9panicking19assert_failed_inner17hb23542705737f6eaE(i8 %kind, {}* align 1 %_7.0, [3 x i64]* align 8 bitcast (<{ i8*, [16 x i8], i8* }>* @vtable.0 to [3 x i64]*), {}* align 1 %_10.0, [3 x i64]* align 8 bitcast (<{ i8*, [16 x i8], i8* }>* @vtable.0 to [3 x i64]*), %"core::option::Option<core::fmt::Arguments>"* %_13, %"core::panic::location::Location"* align 8 %2) #12, !dbg !1484
  unreachable, !dbg !1484
}

; core::panicking::assert_failed
; Function Attrs: cold noreturn nonlazybind uwtable
define void @_ZN4core9panicking13assert_failed17h8709eded8f2d3c2eE(i8 %kind, i8** align 8 %0, i8** align 8 %1, %"core::option::Option<core::fmt::Arguments>"* %args, %"core::panic::location::Location"* align 8 %2) unnamed_addr #2 !dbg !1485 {
start:
  %kind.dbg.spill = alloca i8, align 1
  %_13 = alloca %"core::option::Option<core::fmt::Arguments>", align 8
  %right = alloca i8**, align 8
  %left = alloca i8**, align 8
  store i8** %0, i8*** %left, align 8
  store i8** %1, i8*** %right, align 8
  store i8 %kind, i8* %kind.dbg.spill, align 1
  call void @llvm.dbg.declare(metadata i8* %kind.dbg.spill, metadata !1489, metadata !DIExpression()), !dbg !1495
  call void @llvm.dbg.declare(metadata i8*** %left, metadata !1490, metadata !DIExpression()), !dbg !1496
  call void @llvm.dbg.declare(metadata i8*** %right, metadata !1491, metadata !DIExpression()), !dbg !1497
  call void @llvm.dbg.declare(metadata %"core::option::Option<core::fmt::Arguments>"* %args, metadata !1492, metadata !DIExpression()), !dbg !1498
  %_7.0 = bitcast i8*** %left to {}*, !dbg !1499
  %_10.0 = bitcast i8*** %right to {}*, !dbg !1500
  %3 = bitcast %"core::option::Option<core::fmt::Arguments>"* %_13 to i8*, !dbg !1501
  %4 = bitcast %"core::option::Option<core::fmt::Arguments>"* %args to i8*, !dbg !1501
  call void @llvm.memcpy.p0i8.p0i8.i64(i8* align 8 %3, i8* align 8 %4, i64 48, i1 false), !dbg !1501
; call core::panicking::assert_failed_inner
  call void @_ZN4core9panicking19assert_failed_inner17hb23542705737f6eaE(i8 %kind, {}* align 1 %_7.0, [3 x i64]* align 8 bitcast (<{ i8*, [16 x i8], i8* }>* @vtable.1 to [3 x i64]*), {}* align 1 %_10.0, [3 x i64]* align 8 bitcast (<{ i8*, [16 x i8], i8* }>* @vtable.1 to [3 x i64]*), %"core::option::Option<core::fmt::Arguments>"* %_13, %"core::panic::location::Location"* align 8 %2) #12, !dbg !1502
  unreachable, !dbg !1502
}

; <T as core::convert::From<T>>::from
; Function Attrs: nonlazybind uwtable
define i32 @"_ZN50_$LT$T$u20$as$u20$core..convert..From$LT$T$GT$$GT$4from17h9fe4dc2a99c0ab3dE"(i32 %t) unnamed_addr #1 !dbg !1503 {
start:
  %t.dbg.spill = alloca i32, align 4
  store i32 %t, i32* %t.dbg.spill, align 4
  call void @llvm.dbg.declare(metadata i32* %t.dbg.spill, metadata !1509, metadata !DIExpression()), !dbg !1512
  ret i32 %t, !dbg !1513
}

; <core::option::Option<T> as core::fmt::Debug>::fmt
; Function Attrs: nonlazybind uwtable
define zeroext i1 @"_ZN66_$LT$core..option..Option$LT$T$GT$$u20$as$u20$core..fmt..Debug$GT$3fmt17h532a8ed1b9e40f2eE"(i8** align 8 %self, %"core::fmt::Formatter"* align 8 %f) unnamed_addr #1 !dbg !1514 {
start:
  %__self_0.dbg.spill = alloca i8**, align 8
  %f.dbg.spill = alloca %"core::fmt::Formatter"*, align 8
  %self.dbg.spill = alloca i8**, align 8
  %_16 = alloca i8**, align 8
  %_3 = alloca i64*, align 8
  %0 = alloca i8, align 1
  store i8** %self, i8*** %self.dbg.spill, align 8
  call void @llvm.dbg.declare(metadata i8*** %self.dbg.spill, metadata !1519, metadata !DIExpression()), !dbg !1523
  store %"core::fmt::Formatter"* %f, %"core::fmt::Formatter"** %f.dbg.spill, align 8
  call void @llvm.dbg.declare(metadata %"core::fmt::Formatter"** %f.dbg.spill, metadata !1520, metadata !DIExpression()), !dbg !1523
  %1 = bitcast i64** %_3 to i8***, !dbg !1523
  store i8** %self, i8*** %1, align 8, !dbg !1523
  %2 = bitcast i64** %_3 to i8***, !dbg !1523
  %_17 = load i8**, i8*** %2, align 8, !dbg !1523, !nonnull !14, !align !642, !noundef !14
  %3 = bitcast i8** %_17 to {}**, !dbg !1523
  %4 = load {}*, {}** %3, align 8, !dbg !1523
  %5 = icmp eq {}* %4, null, !dbg !1523
  %_5 = select i1 %5, i64 0, i64 1, !dbg !1523
  switch i64 %_5, label %bb2 [
    i64 0, label %bb3
    i64 1, label %bb1
  ], !dbg !1523

bb2:                                              ; preds = %start
  unreachable, !dbg !1523

bb3:                                              ; preds = %start
; call core::fmt::Formatter::write_str
  %6 = call zeroext i1 @_ZN4core3fmt9Formatter9write_str17hb00d70fb4fa96d5eE(%"core::fmt::Formatter"* align 8 %f, [0 x i8]* align 1 bitcast (<{ [4 x i8] }>* @alloc497 to [0 x i8]*), i64 4), !dbg !1523
  %7 = zext i1 %6 to i8, !dbg !1523
  store i8 %7, i8* %0, align 1, !dbg !1523
  br label %bb4, !dbg !1523

bb1:                                              ; preds = %start
  %8 = bitcast i64** %_3 to i8***, !dbg !1524
  %_18 = load i8**, i8*** %8, align 8, !dbg !1524, !nonnull !14, !align !642, !noundef !14
  store i8** %_18, i8*** %__self_0.dbg.spill, align 8, !dbg !1524
  call void @llvm.dbg.declare(metadata i8*** %__self_0.dbg.spill, metadata !1521, metadata !DIExpression()), !dbg !1525
  store i8** %_18, i8*** %_16, align 8, !dbg !1525
  %_13.0 = bitcast i8*** %_16 to {}*, !dbg !1525
; call core::fmt::Formatter::debug_tuple_field1_finish
  %9 = call zeroext i1 @_ZN4core3fmt9Formatter25debug_tuple_field1_finish17hd5c315dd1378b223E(%"core::fmt::Formatter"* align 8 %f, [0 x i8]* align 1 bitcast (<{ [4 x i8] }>* @alloc493 to [0 x i8]*), i64 4, {}* align 1 %_13.0, [3 x i64]* align 8 bitcast (<{ i8*, [16 x i8], i8* }>* @vtable.2 to [3 x i64]*)), !dbg !1526
  %10 = zext i1 %9 to i8, !dbg !1526
  store i8 %10, i8* %0, align 1, !dbg !1526
  br label %bb5, !dbg !1526

bb5:                                              ; preds = %bb1
  br label %bb6, !dbg !1527

bb6:                                              ; preds = %bb4, %bb5
  %11 = load i8, i8* %0, align 1, !dbg !1528, !range !420, !noundef !14
  %12 = trunc i8 %11 to i1, !dbg !1528
  ret i1 %12, !dbg !1528

bb4:                                              ; preds = %bb3
  br label %bb6, !dbg !1527
}

; <core::option::Option<T> as core::cmp::PartialEq>::eq
; Function Attrs: inlinehint nonlazybind uwtable
define zeroext i1 @"_ZN70_$LT$core..option..Option$LT$T$GT$$u20$as$u20$core..cmp..PartialEq$GT$2eq17hd49dc80dedfc6b7bE"(i8** align 8 %self, i8** align 8 %other) unnamed_addr #0 !dbg !1529 {
start:
  %__arg_1_0.dbg.spill = alloca i8**, align 8
  %__self_0.dbg.spill = alloca i8**, align 8
  %__arg_1_vi.dbg.spill = alloca i64, align 8
  %__self_vi.dbg.spill = alloca i64, align 8
  %other.dbg.spill = alloca i8**, align 8
  %self.dbg.spill = alloca i8**, align 8
  %_12 = alloca { i64*, i64* }, align 8
  %0 = alloca i8, align 1
  store i8** %self, i8*** %self.dbg.spill, align 8
  call void @llvm.dbg.declare(metadata i8*** %self.dbg.spill, metadata !1534, metadata !DIExpression()), !dbg !1543
  store i8** %other, i8*** %other.dbg.spill, align 8
  call void @llvm.dbg.declare(metadata i8*** %other.dbg.spill, metadata !1535, metadata !DIExpression()), !dbg !1543
  %1 = bitcast i8** %self to {}**, !dbg !1543
  %2 = load {}*, {}** %1, align 8, !dbg !1543
  %3 = icmp eq {}* %2, null, !dbg !1543
  %__self_vi = select i1 %3, i64 0, i64 1, !dbg !1543
  store i64 %__self_vi, i64* %__self_vi.dbg.spill, align 8, !dbg !1543
  call void @llvm.dbg.declare(metadata i64* %__self_vi.dbg.spill, metadata !1536, metadata !DIExpression()), !dbg !1544
  %4 = bitcast i8** %other to {}**, !dbg !1544
  %5 = load {}*, {}** %4, align 8, !dbg !1544
  %6 = icmp eq {}* %5, null, !dbg !1544
  %__arg_1_vi = select i1 %6, i64 0, i64 1, !dbg !1544
  store i64 %__arg_1_vi, i64* %__arg_1_vi.dbg.spill, align 8, !dbg !1544
  call void @llvm.dbg.declare(metadata i64* %__arg_1_vi.dbg.spill, metadata !1538, metadata !DIExpression()), !dbg !1545
  %_9 = icmp eq i64 %__self_vi, %__arg_1_vi, !dbg !1545
  br i1 %_9, label %bb1, label %bb7, !dbg !1545

bb7:                                              ; preds = %start
  store i8 0, i8* %0, align 1, !dbg !1545
  br label %bb8, !dbg !1545

bb1:                                              ; preds = %start
  %7 = bitcast { i64*, i64* }* %_12 to i8***, !dbg !1545
  store i8** %self, i8*** %7, align 8, !dbg !1545
  %8 = getelementptr inbounds { i64*, i64* }, { i64*, i64* }* %_12, i32 0, i32 1, !dbg !1545
  %9 = bitcast i64** %8 to i8***, !dbg !1545
  store i8** %other, i8*** %9, align 8, !dbg !1545
  %10 = bitcast { i64*, i64* }* %_12 to i8***, !dbg !1545
  %_21 = load i8**, i8*** %10, align 8, !dbg !1545, !nonnull !14, !align !642, !noundef !14
  %11 = bitcast i8** %_21 to {}**, !dbg !1545
  %12 = load {}*, {}** %11, align 8, !dbg !1545
  %13 = icmp eq {}* %12, null, !dbg !1545
  %_16 = select i1 %13, i64 0, i64 1, !dbg !1545
  %14 = icmp eq i64 %_16, 1, !dbg !1545
  br i1 %14, label %bb3, label %bb2, !dbg !1545

bb3:                                              ; preds = %bb1
  %15 = getelementptr inbounds { i64*, i64* }, { i64*, i64* }* %_12, i32 0, i32 1, !dbg !1545
  %16 = bitcast i64** %15 to i8***, !dbg !1545
  %_22 = load i8**, i8*** %16, align 8, !dbg !1545, !nonnull !14, !align !642, !noundef !14
  %17 = bitcast i8** %_22 to {}**, !dbg !1545
  %18 = load {}*, {}** %17, align 8, !dbg !1545
  %19 = icmp eq {}* %18, null, !dbg !1545
  %_15 = select i1 %19, i64 0, i64 1, !dbg !1545
  %20 = icmp eq i64 %_15, 1, !dbg !1545
  br i1 %20, label %bb4, label %bb2, !dbg !1545

bb2:                                              ; preds = %bb3, %bb1
  store i8 1, i8* %0, align 1, !dbg !1545
  br label %bb6, !dbg !1545

bb4:                                              ; preds = %bb3
  %21 = bitcast { i64*, i64* }* %_12 to i8***, !dbg !1546
  %_23 = load i8**, i8*** %21, align 8, !dbg !1546, !nonnull !14, !align !642, !noundef !14
  store i8** %_23, i8*** %__self_0.dbg.spill, align 8, !dbg !1546
  call void @llvm.dbg.declare(metadata i8*** %__self_0.dbg.spill, metadata !1540, metadata !DIExpression()), !dbg !1547
  %22 = getelementptr inbounds { i64*, i64* }, { i64*, i64* }* %_12, i32 0, i32 1, !dbg !1546
  %23 = bitcast i64** %22 to i8***, !dbg !1546
  %_24 = load i8**, i8*** %23, align 8, !dbg !1546, !nonnull !14, !align !642, !noundef !14
  store i8** %_24, i8*** %__arg_1_0.dbg.spill, align 8, !dbg !1546
  call void @llvm.dbg.declare(metadata i8*** %__arg_1_0.dbg.spill, metadata !1542, metadata !DIExpression()), !dbg !1547
; call core::cmp::impls::<impl core::cmp::PartialEq<&B> for &A>::eq
  %24 = call zeroext i1 @"_ZN4core3cmp5impls69_$LT$impl$u20$core..cmp..PartialEq$LT$$RF$B$GT$$u20$for$u20$$RF$A$GT$2eq17h193696f9b4d62323E"(i8** align 8 %_23, i8** align 8 %_24), !dbg !1547
  %25 = zext i1 %24 to i8, !dbg !1547
  store i8 %25, i8* %0, align 1, !dbg !1547
  br label %bb5, !dbg !1547

bb6:                                              ; preds = %bb5, %bb2
  br label %bb8, !dbg !1545

bb5:                                              ; preds = %bb4
  br label %bb6, !dbg !1548

bb8:                                              ; preds = %bb7, %bb6
  %26 = load i8, i8* %0, align 1, !dbg !1549, !range !420, !noundef !14
  %27 = trunc i8 %26 to i1, !dbg !1549
  ret i1 %27, !dbg !1549
}

; <core::option::Option<T> as core::cmp::PartialEq>::ne
; Function Attrs: inlinehint nonlazybind uwtable
define zeroext i1 @"_ZN70_$LT$core..option..Option$LT$T$GT$$u20$as$u20$core..cmp..PartialEq$GT$2ne17hf0c1c200d25f93f0E"({ i32, i32 }* align 4 %self, { i32, i32 }* align 4 %other) unnamed_addr #0 !dbg !1550 {
start:
  %__arg_1_0.dbg.spill = alloca i32*, align 8
  %__self_0.dbg.spill = alloca i32*, align 8
  %__arg_1_vi.dbg.spill = alloca i64, align 8
  %__self_vi.dbg.spill = alloca i64, align 8
  %other.dbg.spill = alloca { i32, i32 }*, align 8
  %self.dbg.spill = alloca { i32, i32 }*, align 8
  %_12 = alloca { i32*, i32* }, align 8
  %0 = alloca i8, align 1
  store { i32, i32 }* %self, { i32, i32 }** %self.dbg.spill, align 8
  call void @llvm.dbg.declare(metadata { i32, i32 }** %self.dbg.spill, metadata !1566, metadata !DIExpression()), !dbg !1575
  store { i32, i32 }* %other, { i32, i32 }** %other.dbg.spill, align 8
  call void @llvm.dbg.declare(metadata { i32, i32 }** %other.dbg.spill, metadata !1567, metadata !DIExpression()), !dbg !1575
  %1 = bitcast { i32, i32 }* %self to i32*, !dbg !1575
  %2 = load i32, i32* %1, align 4, !dbg !1575, !range !1576, !noundef !14
  %__self_vi = zext i32 %2 to i64, !dbg !1575
  store i64 %__self_vi, i64* %__self_vi.dbg.spill, align 8, !dbg !1575
  call void @llvm.dbg.declare(metadata i64* %__self_vi.dbg.spill, metadata !1568, metadata !DIExpression()), !dbg !1577
  %3 = bitcast { i32, i32 }* %other to i32*, !dbg !1577
  %4 = load i32, i32* %3, align 4, !dbg !1577, !range !1576, !noundef !14
  %__arg_1_vi = zext i32 %4 to i64, !dbg !1577
  store i64 %__arg_1_vi, i64* %__arg_1_vi.dbg.spill, align 8, !dbg !1577
  call void @llvm.dbg.declare(metadata i64* %__arg_1_vi.dbg.spill, metadata !1570, metadata !DIExpression()), !dbg !1578
  %_9 = icmp eq i64 %__self_vi, %__arg_1_vi, !dbg !1578
  br i1 %_9, label %bb1, label %bb7, !dbg !1578

bb7:                                              ; preds = %start
  store i8 1, i8* %0, align 1, !dbg !1578
  br label %bb8, !dbg !1578

bb1:                                              ; preds = %start
  %5 = bitcast { i32*, i32* }* %_12 to { i32, i32 }**, !dbg !1578
  store { i32, i32 }* %self, { i32, i32 }** %5, align 8, !dbg !1578
  %6 = getelementptr inbounds { i32*, i32* }, { i32*, i32* }* %_12, i32 0, i32 1, !dbg !1578
  %7 = bitcast i32** %6 to { i32, i32 }**, !dbg !1578
  store { i32, i32 }* %other, { i32, i32 }** %7, align 8, !dbg !1578
  %8 = bitcast { i32*, i32* }* %_12 to { i32, i32 }**, !dbg !1578
  %_21 = load { i32, i32 }*, { i32, i32 }** %8, align 8, !dbg !1578, !nonnull !14, !align !629, !noundef !14
  %9 = bitcast { i32, i32 }* %_21 to i32*, !dbg !1578
  %10 = load i32, i32* %9, align 4, !dbg !1578, !range !1576, !noundef !14
  %_16 = zext i32 %10 to i64, !dbg !1578
  %11 = icmp eq i64 %_16, 1, !dbg !1578
  br i1 %11, label %bb3, label %bb2, !dbg !1578

bb3:                                              ; preds = %bb1
  %12 = getelementptr inbounds { i32*, i32* }, { i32*, i32* }* %_12, i32 0, i32 1, !dbg !1578
  %13 = bitcast i32** %12 to { i32, i32 }**, !dbg !1578
  %_22 = load { i32, i32 }*, { i32, i32 }** %13, align 8, !dbg !1578, !nonnull !14, !align !629, !noundef !14
  %14 = bitcast { i32, i32 }* %_22 to i32*, !dbg !1578
  %15 = load i32, i32* %14, align 4, !dbg !1578, !range !1576, !noundef !14
  %_15 = zext i32 %15 to i64, !dbg !1578
  %16 = icmp eq i64 %_15, 1, !dbg !1578
  br i1 %16, label %bb4, label %bb2, !dbg !1578

bb2:                                              ; preds = %bb3, %bb1
  store i8 0, i8* %0, align 1, !dbg !1578
  br label %bb6, !dbg !1578

bb4:                                              ; preds = %bb3
  %17 = bitcast { i32*, i32* }* %_12 to { i32, i32 }**, !dbg !1579
  %_23 = load { i32, i32 }*, { i32, i32 }** %17, align 8, !dbg !1579, !nonnull !14, !align !629, !noundef !14
  %__self_0 = getelementptr inbounds { i32, i32 }, { i32, i32 }* %_23, i32 0, i32 1, !dbg !1579
  store i32* %__self_0, i32** %__self_0.dbg.spill, align 8, !dbg !1579
  call void @llvm.dbg.declare(metadata i32** %__self_0.dbg.spill, metadata !1572, metadata !DIExpression()), !dbg !1580
  %18 = getelementptr inbounds { i32*, i32* }, { i32*, i32* }* %_12, i32 0, i32 1, !dbg !1579
  %19 = bitcast i32** %18 to { i32, i32 }**, !dbg !1579
  %_24 = load { i32, i32 }*, { i32, i32 }** %19, align 8, !dbg !1579, !nonnull !14, !align !629, !noundef !14
  %__arg_1_0 = getelementptr inbounds { i32, i32 }, { i32, i32 }* %_24, i32 0, i32 1, !dbg !1579
  store i32* %__arg_1_0, i32** %__arg_1_0.dbg.spill, align 8, !dbg !1579
  call void @llvm.dbg.declare(metadata i32** %__arg_1_0.dbg.spill, metadata !1574, metadata !DIExpression()), !dbg !1580
; call core::cmp::impls::<impl core::cmp::PartialEq for i32>::ne
  %20 = call zeroext i1 @"_ZN4core3cmp5impls54_$LT$impl$u20$core..cmp..PartialEq$u20$for$u20$i32$GT$2ne17hf8bb558efd6cd409E"(i32* align 4 %__self_0, i32* align 4 %__arg_1_0), !dbg !1580
  %21 = zext i1 %20 to i8, !dbg !1580
  store i8 %21, i8* %0, align 1, !dbg !1580
  br label %bb5, !dbg !1580

bb6:                                              ; preds = %bb5, %bb2
  br label %bb8, !dbg !1578

bb5:                                              ; preds = %bb4
  br label %bb6, !dbg !1581

bb8:                                              ; preds = %bb7, %bb6
  %22 = load i8, i8* %0, align 1, !dbg !1582, !range !420, !noundef !14
  %23 = trunc i8 %22 to i1, !dbg !1582
  ret i1 %23, !dbg !1582
}

; <core::result::Result<T,E> as core::ops::try_trait::Try>::branch
; Function Attrs: inlinehint nonlazybind uwtable
define i32 @"_ZN79_$LT$core..result..Result$LT$T$C$E$GT$$u20$as$u20$core..ops..try_trait..Try$GT$6branch17h93f852bbc0fc46ffE"(i32 %0) unnamed_addr #0 !dbg !1583 {
start:
  %e.dbg.spill = alloca i32, align 4
  %v.dbg.spill = alloca {}, align 1
  %_6 = alloca i32, align 4
  %1 = alloca i32, align 4
  %self = alloca i32, align 4
  store i32 %0, i32* %self, align 4
  call void @llvm.dbg.declare(metadata i32* %self, metadata !1605, metadata !DIExpression()), !dbg !1610
  call void @llvm.dbg.declare(metadata {}* %v.dbg.spill, metadata !1606, metadata !DIExpression()), !dbg !1611
  %2 = load i32, i32* %self, align 4, !dbg !1612
  %3 = icmp eq i32 %2, 0, !dbg !1612
  %_2 = select i1 %3, i64 0, i64 1, !dbg !1612
  switch i64 %_2, label %bb2 [
    i64 0, label %bb3
    i64 1, label %bb1
  ], !dbg !1613

bb2:                                              ; preds = %start
  unreachable, !dbg !1612

bb3:                                              ; preds = %start
  %4 = bitcast i32* %1 to %"core::ops::control_flow::ControlFlow<core::result::Result<core::convert::Infallible, error::Error>>::Continue"*, !dbg !1614
  %5 = bitcast %"core::ops::control_flow::ControlFlow<core::result::Result<core::convert::Infallible, error::Error>>::Continue"* %4 to {}*, !dbg !1614
  store i32 0, i32* %1, align 4, !dbg !1614
  br label %bb4, !dbg !1615

bb1:                                              ; preds = %start
  %e = load i32, i32* %self, align 4, !dbg !1616, !range !512, !noundef !14
  store i32 %e, i32* %e.dbg.spill, align 4, !dbg !1616
  call void @llvm.dbg.declare(metadata i32* %e.dbg.spill, metadata !1608, metadata !DIExpression()), !dbg !1617
  store i32 %e, i32* %_6, align 4, !dbg !1618
  %6 = load i32, i32* %_6, align 4, !dbg !1619, !range !512, !noundef !14
  store i32 %6, i32* %1, align 4, !dbg !1619
  br label %bb4, !dbg !1620

bb4:                                              ; preds = %bb3, %bb1
  %7 = load i32, i32* %1, align 4, !dbg !1621
  ret i32 %7, !dbg !1621
}

; <core::result::Result<T,E> as core::ops::try_trait::Try>::branch
; Function Attrs: inlinehint nonlazybind uwtable
define i64 @"_ZN79_$LT$core..result..Result$LT$T$C$E$GT$$u20$as$u20$core..ops..try_trait..Try$GT$6branch17hcdf124e3d5068ebeE"(i64 %0) unnamed_addr #0 !dbg !1622 {
start:
  %v.dbg.spill = alloca i32, align 4
  %e.dbg.spill = alloca i32, align 4
  %_6 = alloca i32, align 4
  %1 = alloca %"core::ops::control_flow::ControlFlow<core::result::Result<core::convert::Infallible, error::Error>, i32>", align 4
  %2 = alloca i64, align 8
  %self = alloca %"core::result::Result<i32, error::Error>", align 4
  store i64 %0, i64* %2, align 8
  %3 = bitcast %"core::result::Result<i32, error::Error>"* %self to i8*
  %4 = bitcast i64* %2 to i8*
  call void @llvm.memcpy.p0i8.p0i8.i64(i8* align 4 %3, i8* align 8 %4, i64 8, i1 false)
  call void @llvm.dbg.declare(metadata %"core::result::Result<i32, error::Error>"* %self, metadata !1641, metadata !DIExpression()), !dbg !1646
  %5 = bitcast %"core::result::Result<i32, error::Error>"* %self to i32*, !dbg !1647
  %6 = load i32, i32* %5, align 4, !dbg !1647, !range !1576, !noundef !14
  %_2 = zext i32 %6 to i64, !dbg !1647
  switch i64 %_2, label %bb2 [
    i64 0, label %bb3
    i64 1, label %bb1
  ], !dbg !1648

bb2:                                              ; preds = %start
  unreachable, !dbg !1647

bb3:                                              ; preds = %start
  %7 = bitcast %"core::result::Result<i32, error::Error>"* %self to %"core::result::Result<i32, error::Error>::Ok"*, !dbg !1649
  %8 = getelementptr inbounds %"core::result::Result<i32, error::Error>::Ok", %"core::result::Result<i32, error::Error>::Ok"* %7, i32 0, i32 1, !dbg !1649
  %v = load i32, i32* %8, align 4, !dbg !1649
  store i32 %v, i32* %v.dbg.spill, align 4, !dbg !1649
  call void @llvm.dbg.declare(metadata i32* %v.dbg.spill, metadata !1642, metadata !DIExpression()), !dbg !1650
  %9 = bitcast %"core::ops::control_flow::ControlFlow<core::result::Result<core::convert::Infallible, error::Error>, i32>"* %1 to %"core::ops::control_flow::ControlFlow<core::result::Result<core::convert::Infallible, error::Error>, i32>::Continue"*, !dbg !1651
  %10 = getelementptr inbounds %"core::ops::control_flow::ControlFlow<core::result::Result<core::convert::Infallible, error::Error>, i32>::Continue", %"core::ops::control_flow::ControlFlow<core::result::Result<core::convert::Infallible, error::Error>, i32>::Continue"* %9, i32 0, i32 1, !dbg !1651
  store i32 %v, i32* %10, align 4, !dbg !1651
  %11 = bitcast %"core::ops::control_flow::ControlFlow<core::result::Result<core::convert::Infallible, error::Error>, i32>"* %1 to i32*, !dbg !1651
  store i32 0, i32* %11, align 4, !dbg !1651
  br label %bb4, !dbg !1652

bb1:                                              ; preds = %start
  %12 = bitcast %"core::result::Result<i32, error::Error>"* %self to %"core::result::Result<i32, error::Error>::Err"*, !dbg !1653
  %13 = getelementptr inbounds %"core::result::Result<i32, error::Error>::Err", %"core::result::Result<i32, error::Error>::Err"* %12, i32 0, i32 1, !dbg !1653
  %e = load i32, i32* %13, align 4, !dbg !1653, !range !512, !noundef !14
  store i32 %e, i32* %e.dbg.spill, align 4, !dbg !1653
  call void @llvm.dbg.declare(metadata i32* %e.dbg.spill, metadata !1644, metadata !DIExpression()), !dbg !1654
  store i32 %e, i32* %_6, align 4, !dbg !1655
  %14 = bitcast %"core::ops::control_flow::ControlFlow<core::result::Result<core::convert::Infallible, error::Error>, i32>"* %1 to %"core::ops::control_flow::ControlFlow<core::result::Result<core::convert::Infallible, error::Error>, i32>::Break"*, !dbg !1656
  %15 = getelementptr inbounds %"core::ops::control_flow::ControlFlow<core::result::Result<core::convert::Infallible, error::Error>, i32>::Break", %"core::ops::control_flow::ControlFlow<core::result::Result<core::convert::Infallible, error::Error>, i32>::Break"* %14, i32 0, i32 1, !dbg !1656
  %16 = load i32, i32* %_6, align 4, !dbg !1656, !range !512, !noundef !14
  store i32 %16, i32* %15, align 4, !dbg !1656
  %17 = bitcast %"core::ops::control_flow::ControlFlow<core::result::Result<core::convert::Infallible, error::Error>, i32>"* %1 to i32*, !dbg !1656
  store i32 1, i32* %17, align 4, !dbg !1656
  br label %bb4, !dbg !1657

bb4:                                              ; preds = %bb3, %bb1
  %18 = bitcast %"core::ops::control_flow::ControlFlow<core::result::Result<core::convert::Infallible, error::Error>, i32>"* %1 to i64*, !dbg !1658
  %19 = load i64, i64* %18, align 4, !dbg !1658
  ret i64 %19, !dbg !1658
}

; <core::result::Result<T,E> as core::ops::try_trait::Try>::branch
; Function Attrs: inlinehint nonlazybind uwtable
define void @"_ZN79_$LT$core..result..Result$LT$T$C$E$GT$$u20$as$u20$core..ops..try_trait..Try$GT$6branch17he7db1f68fd08b894E"(%"core::ops::control_flow::ControlFlow<core::result::Result<core::convert::Infallible, error::Error>, &mut [core::mem::maybe_uninit::MaybeUninit<u8>]>"* sret(%"core::ops::control_flow::ControlFlow<core::result::Result<core::convert::Infallible, error::Error>, &mut [core::mem::maybe_uninit::MaybeUninit<u8>]>") %0, %"core::result::Result<&mut [core::mem::maybe_uninit::MaybeUninit<u8>], error::Error>"* %self) unnamed_addr #0 !dbg !1659 {
start:
  %v.dbg.spill = alloca { [0 x i8]*, i64 }, align 8
  %e.dbg.spill = alloca i32, align 4
  %_6 = alloca i32, align 4
  call void @llvm.dbg.declare(metadata %"core::result::Result<&mut [core::mem::maybe_uninit::MaybeUninit<u8>], error::Error>"* %self, metadata !1678, metadata !DIExpression()), !dbg !1683
  %1 = bitcast %"core::result::Result<&mut [core::mem::maybe_uninit::MaybeUninit<u8>], error::Error>"* %self to i32*, !dbg !1684
  %2 = load i32, i32* %1, align 8, !dbg !1684, !range !1576, !noundef !14
  %_2 = zext i32 %2 to i64, !dbg !1684
  switch i64 %_2, label %bb2 [
    i64 0, label %bb3
    i64 1, label %bb1
  ], !dbg !1685

bb2:                                              ; preds = %start
  unreachable, !dbg !1684

bb3:                                              ; preds = %start
  %3 = bitcast %"core::result::Result<&mut [core::mem::maybe_uninit::MaybeUninit<u8>], error::Error>"* %self to %"core::result::Result<&mut [core::mem::maybe_uninit::MaybeUninit<u8>], error::Error>::Ok"*, !dbg !1686
  %4 = getelementptr inbounds %"core::result::Result<&mut [core::mem::maybe_uninit::MaybeUninit<u8>], error::Error>::Ok", %"core::result::Result<&mut [core::mem::maybe_uninit::MaybeUninit<u8>], error::Error>::Ok"* %3, i32 0, i32 1, !dbg !1686
  %5 = getelementptr inbounds { [0 x i8]*, i64 }, { [0 x i8]*, i64 }* %4, i32 0, i32 0, !dbg !1686
  %v.0 = load [0 x i8]*, [0 x i8]** %5, align 8, !dbg !1686, !nonnull !14, !align !425, !noundef !14
  %6 = getelementptr inbounds { [0 x i8]*, i64 }, { [0 x i8]*, i64 }* %4, i32 0, i32 1, !dbg !1686
  %v.1 = load i64, i64* %6, align 8, !dbg !1686
  %7 = getelementptr inbounds { [0 x i8]*, i64 }, { [0 x i8]*, i64 }* %v.dbg.spill, i32 0, i32 0, !dbg !1686
  store [0 x i8]* %v.0, [0 x i8]** %7, align 8, !dbg !1686
  %8 = getelementptr inbounds { [0 x i8]*, i64 }, { [0 x i8]*, i64 }* %v.dbg.spill, i32 0, i32 1, !dbg !1686
  store i64 %v.1, i64* %8, align 8, !dbg !1686
  call void @llvm.dbg.declare(metadata { [0 x i8]*, i64 }* %v.dbg.spill, metadata !1679, metadata !DIExpression()), !dbg !1687
  %9 = bitcast %"core::ops::control_flow::ControlFlow<core::result::Result<core::convert::Infallible, error::Error>, &mut [core::mem::maybe_uninit::MaybeUninit<u8>]>"* %0 to %"core::ops::control_flow::ControlFlow<core::result::Result<core::convert::Infallible, error::Error>, &mut [core::mem::maybe_uninit::MaybeUninit<u8>]>::Continue"*, !dbg !1688
  %10 = getelementptr inbounds %"core::ops::control_flow::ControlFlow<core::result::Result<core::convert::Infallible, error::Error>, &mut [core::mem::maybe_uninit::MaybeUninit<u8>]>::Continue", %"core::ops::control_flow::ControlFlow<core::result::Result<core::convert::Infallible, error::Error>, &mut [core::mem::maybe_uninit::MaybeUninit<u8>]>::Continue"* %9, i32 0, i32 1, !dbg !1688
  %11 = getelementptr inbounds { [0 x i8]*, i64 }, { [0 x i8]*, i64 }* %10, i32 0, i32 0, !dbg !1688
  store [0 x i8]* %v.0, [0 x i8]** %11, align 8, !dbg !1688
  %12 = getelementptr inbounds { [0 x i8]*, i64 }, { [0 x i8]*, i64 }* %10, i32 0, i32 1, !dbg !1688
  store i64 %v.1, i64* %12, align 8, !dbg !1688
  %13 = bitcast %"core::ops::control_flow::ControlFlow<core::result::Result<core::convert::Infallible, error::Error>, &mut [core::mem::maybe_uninit::MaybeUninit<u8>]>"* %0 to i32*, !dbg !1688
  store i32 0, i32* %13, align 8, !dbg !1688
  br label %bb4, !dbg !1689

bb1:                                              ; preds = %start
  %14 = bitcast %"core::result::Result<&mut [core::mem::maybe_uninit::MaybeUninit<u8>], error::Error>"* %self to %"core::result::Result<&mut [core::mem::maybe_uninit::MaybeUninit<u8>], error::Error>::Err"*, !dbg !1690
  %15 = getelementptr inbounds %"core::result::Result<&mut [core::mem::maybe_uninit::MaybeUninit<u8>], error::Error>::Err", %"core::result::Result<&mut [core::mem::maybe_uninit::MaybeUninit<u8>], error::Error>::Err"* %14, i32 0, i32 1, !dbg !1690
  %e = load i32, i32* %15, align 4, !dbg !1690, !range !512, !noundef !14
  store i32 %e, i32* %e.dbg.spill, align 4, !dbg !1690
  call void @llvm.dbg.declare(metadata i32* %e.dbg.spill, metadata !1681, metadata !DIExpression()), !dbg !1691
  store i32 %e, i32* %_6, align 4, !dbg !1692
  %16 = bitcast %"core::ops::control_flow::ControlFlow<core::result::Result<core::convert::Infallible, error::Error>, &mut [core::mem::maybe_uninit::MaybeUninit<u8>]>"* %0 to %"core::ops::control_flow::ControlFlow<core::result::Result<core::convert::Infallible, error::Error>, &mut [core::mem::maybe_uninit::MaybeUninit<u8>]>::Break"*, !dbg !1693
  %17 = getelementptr inbounds %"core::ops::control_flow::ControlFlow<core::result::Result<core::convert::Infallible, error::Error>, &mut [core::mem::maybe_uninit::MaybeUninit<u8>]>::Break", %"core::ops::control_flow::ControlFlow<core::result::Result<core::convert::Infallible, error::Error>, &mut [core::mem::maybe_uninit::MaybeUninit<u8>]>::Break"* %16, i32 0, i32 1, !dbg !1693
  %18 = load i32, i32* %_6, align 4, !dbg !1693, !range !512, !noundef !14
  store i32 %18, i32* %17, align 4, !dbg !1693
  %19 = bitcast %"core::ops::control_flow::ControlFlow<core::result::Result<core::convert::Infallible, error::Error>, &mut [core::mem::maybe_uninit::MaybeUninit<u8>]>"* %0 to i32*, !dbg !1693
  store i32 1, i32* %19, align 8, !dbg !1693
  br label %bb4, !dbg !1694

bb4:                                              ; preds = %bb3, %bb1
  ret void, !dbg !1695
}

; <core::slice::iter::Iter<T> as core::iter::traits::iterator::Iterator>::next
; Function Attrs: inlinehint nonlazybind uwtable
define align 1 i8* @"_ZN91_$LT$core..slice..iter..Iter$LT$T$GT$$u20$as$u20$core..iter..traits..iterator..Iterator$GT$4next17h5131cc6448f7fafeE"({ i8*, i8* }* align 8 %self) unnamed_addr #0 !dbg !1696 {
start:
  %self.dbg.spill23 = alloca i8*, align 8
  %0 = alloca i8*, align 8
  %self.dbg.spill21 = alloca i8*, align 8
  %ptr.dbg.spill = alloca i8*, align 8
  %1 = alloca i8*, align 8
  %self.dbg.spill20 = alloca i8*, align 8
  %self.dbg.spill19 = alloca i8*, align 8
  %old.dbg.spill = alloca i8*, align 8
  %self.dbg.spill17 = alloca i8*, align 8
  %self.dbg.spill15 = alloca { i8*, i8* }*, align 8
  %self.dbg.spill14 = alloca i8*, align 8
  %2 = alloca i8, align 1
  %other.dbg.spill12 = alloca i8*, align 8
  %data_address.dbg.spill10 = alloca {}*, align 8
  %3 = alloca {}*, align 8
  %self.dbg.spill8 = alloca i8*, align 8
  %self.dbg.spill7 = alloca i8*, align 8
  %4 = alloca i8, align 1
  %other.dbg.spill = alloca i8*, align 8
  %data_address.dbg.spill = alloca {}*, align 8
  %5 = alloca {}*, align 8
  %self.dbg.spill5 = alloca i8*, align 8
  %self.dbg.spill4 = alloca i8*, align 8
  %self.dbg.spill3 = alloca i8*, align 8
  %metadata.dbg.spill1 = alloca {}, align 1
  %metadata.dbg.spill = alloca {}, align 1
  %self.dbg.spill = alloca { i8*, i8* }*, align 8
  %_62 = alloca i8*, align 8, !rawptr !216
  %_47 = alloca %"core::ptr::metadata::PtrComponents<u8>", align 8
  %_46 = alloca %"core::ptr::metadata::PtrRepr<u8>", align 8
  %_30 = alloca %"core::ptr::metadata::PtrComponents<u8>", align 8
  %_29 = alloca %"core::ptr::metadata::PtrRepr<u8>", align 8
  %_19 = alloca i8*, align 8, !rawptr !216
  %6 = alloca i8*, align 8
  store { i8*, i8* }* %self, { i8*, i8* }** %self.dbg.spill, align 8
  call void @llvm.dbg.declare(metadata { i8*, i8* }** %self.dbg.spill, metadata !1703, metadata !DIExpression()), !dbg !1704
  call void @llvm.dbg.declare(metadata {}* %metadata.dbg.spill, metadata !1705, metadata !DIExpression()), !dbg !1712
  call void @llvm.dbg.declare(metadata {}* %metadata.dbg.spill1, metadata !1725, metadata !DIExpression()), !dbg !1730
  %7 = bitcast { i8*, i8* }* %self to i8**, !dbg !1724
  %self2 = load i8*, i8** %7, align 8, !dbg !1724, !nonnull !14, !noundef !14, !rawptr !216
  store i8* %self2, i8** %self.dbg.spill3, align 8, !dbg !1724
  call void @llvm.dbg.declare(metadata i8** %self.dbg.spill3, metadata !1739, metadata !DIExpression()), !dbg !1745
  store i8* %self2, i8** %self.dbg.spill4, align 8, !dbg !1745
  call void @llvm.dbg.declare(metadata i8** %self.dbg.spill4, metadata !1722, metadata !DIExpression()), !dbg !1746
  store i8* %self2, i8** %self.dbg.spill5, align 8, !dbg !1746
  call void @llvm.dbg.declare(metadata i8** %self.dbg.spill5, metadata !1747, metadata !DIExpression()), !dbg !1754
  %8 = bitcast {}** %5 to i64*, !dbg !1756
  store i64 0, i64* %8, align 8, !dbg !1756
  %data_address = load {}*, {}** %5, align 8, !dbg !1756, !rawptr !216
  store {}* %data_address, {}** %data_address.dbg.spill, align 8, !dbg !1756
  call void @llvm.dbg.declare(metadata {}** %data_address.dbg.spill, metadata !1711, metadata !DIExpression()), !dbg !1712
  br label %bb9, !dbg !1756

bb9:                                              ; preds = %start
  %9 = bitcast %"core::ptr::metadata::PtrComponents<u8>"* %_30 to {}**, !dbg !1712, !rawptr !216
  store {}* %data_address, {}** %9, align 8, !dbg !1712
  %10 = bitcast %"core::ptr::metadata::PtrRepr<u8>"* %_29 to %"core::ptr::metadata::PtrComponents<u8>"*, !dbg !1712
  %11 = bitcast %"core::ptr::metadata::PtrComponents<u8>"* %10 to i8*, !dbg !1712
  %12 = bitcast %"core::ptr::metadata::PtrComponents<u8>"* %_30 to i8*, !dbg !1712
  call void @llvm.memcpy.p0i8.p0i8.i64(i8* align 8 %11, i8* align 8 %12, i64 8, i1 false), !dbg !1712
  %13 = bitcast %"core::ptr::metadata::PtrRepr<u8>"* %_29 to i8**, !dbg !1712
  %other = load i8*, i8** %13, align 8, !dbg !1712, !rawptr !216
  store i8* %other, i8** %other.dbg.spill, align 8, !dbg !1712
  call void @llvm.dbg.declare(metadata i8** %other.dbg.spill, metadata !1753, metadata !DIExpression()), !dbg !1754
  %14 = icmp eq i8* %self2, %other, !dbg !1754
  %15 = zext i1 %14 to i8, !dbg !1754
  store i8 %15, i8* %4, align 1, !dbg !1754
  %16 = load i8, i8* %4, align 1, !dbg !1754, !range !420, !noundef !14
  %_4 = trunc i8 %16 to i1, !dbg !1754
  br label %bb10, !dbg !1754

bb10:                                             ; preds = %bb9
  %_3 = xor i1 %_4, true, !dbg !1764
  call void @llvm.assume(i1 %_3), !dbg !1765
  br label %bb1, !dbg !1765

bb1:                                              ; preds = %bb10
  br i1 false, label %bb4, label %bb2, !dbg !1766

bb4:                                              ; preds = %bb1
  br label %bb5, !dbg !1767

bb2:                                              ; preds = %bb1
  %17 = getelementptr inbounds { i8*, i8* }, { i8*, i8* }* %self, i32 0, i32 1, !dbg !1738
  %self6 = load i8*, i8** %17, align 8, !dbg !1738, !rawptr !216
  store i8* %self6, i8** %self.dbg.spill7, align 8, !dbg !1738
  call void @llvm.dbg.declare(metadata i8** %self.dbg.spill7, metadata !1736, metadata !DIExpression()), !dbg !1768
  store i8* %self6, i8** %self.dbg.spill8, align 8, !dbg !1768
  call void @llvm.dbg.declare(metadata i8** %self.dbg.spill8, metadata !1769, metadata !DIExpression()), !dbg !1774
  %18 = bitcast {}** %3 to i64*, !dbg !1776
  store i64 0, i64* %18, align 8, !dbg !1776
  %data_address9 = load {}*, {}** %3, align 8, !dbg !1776, !rawptr !216
  store {}* %data_address9, {}** %data_address.dbg.spill10, align 8, !dbg !1776
  call void @llvm.dbg.declare(metadata {}** %data_address.dbg.spill10, metadata !1729, metadata !DIExpression()), !dbg !1730
  br label %bb11, !dbg !1776

bb11:                                             ; preds = %bb2
  %19 = bitcast %"core::ptr::metadata::PtrComponents<u8>"* %_47 to {}**, !dbg !1730, !rawptr !216
  store {}* %data_address9, {}** %19, align 8, !dbg !1730
  %20 = bitcast %"core::ptr::metadata::PtrRepr<u8>"* %_46 to %"core::ptr::metadata::PtrComponents<u8>"*, !dbg !1730
  %21 = bitcast %"core::ptr::metadata::PtrComponents<u8>"* %20 to i8*, !dbg !1730
  %22 = bitcast %"core::ptr::metadata::PtrComponents<u8>"* %_47 to i8*, !dbg !1730
  call void @llvm.memcpy.p0i8.p0i8.i64(i8* align 8 %21, i8* align 8 %22, i64 8, i1 false), !dbg !1730
  %23 = bitcast %"core::ptr::metadata::PtrRepr<u8>"* %_46 to i8**, !dbg !1730
  %other11 = load i8*, i8** %23, align 8, !dbg !1730, !rawptr !216
  store i8* %other11, i8** %other.dbg.spill12, align 8, !dbg !1730
  call void @llvm.dbg.declare(metadata i8** %other.dbg.spill12, metadata !1773, metadata !DIExpression()), !dbg !1774
  %24 = icmp eq i8* %self6, %other11, !dbg !1774
  %25 = zext i1 %24 to i8, !dbg !1774
  store i8 %25, i8* %2, align 1, !dbg !1774
  %26 = load i8, i8* %2, align 1, !dbg !1774, !range !420, !noundef !14
  %_10 = trunc i8 %26 to i1, !dbg !1774
  br label %bb12, !dbg !1774

bb12:                                             ; preds = %bb11
  %_9 = xor i1 %_10, true, !dbg !1782
  call void @llvm.assume(i1 %_9), !dbg !1783
  br label %bb3, !dbg !1783

bb3:                                              ; preds = %bb12
  br label %bb5, !dbg !1767

bb5:                                              ; preds = %bb4, %bb3
  %27 = bitcast { i8*, i8* }* %self to i8**, !dbg !1784
  %self13 = load i8*, i8** %27, align 8, !dbg !1784, !nonnull !14, !noundef !14, !rawptr !216
  store i8* %self13, i8** %self.dbg.spill14, align 8, !dbg !1784
  call void @llvm.dbg.declare(metadata i8** %self.dbg.spill14, metadata !1785, metadata !DIExpression()), !dbg !1789
  %28 = getelementptr inbounds { i8*, i8* }, { i8*, i8* }* %self, i32 0, i32 1, !dbg !1784
  %_16 = load i8*, i8** %28, align 8, !dbg !1784, !rawptr !216
  %_12 = icmp eq i8* %self13, %_16, !dbg !1784
  br i1 %_12, label %bb6, label %bb7, !dbg !1784

bb7:                                              ; preds = %bb5
  store { i8*, i8* }* %self, { i8*, i8* }** %self.dbg.spill15, align 8, !dbg !1791
  call void @llvm.dbg.declare(metadata { i8*, i8* }** %self.dbg.spill15, metadata !1792, metadata !DIExpression()), !dbg !1800
  br i1 false, label %bb13, label %bb14, !dbg !1800

bb6:                                              ; preds = %bb5
  %29 = bitcast i8** %6 to {}**, !dbg !1802
  store {}* null, {}** %29, align 8, !dbg !1802
  br label %bb8, !dbg !1803

bb8:                                              ; preds = %bb15, %bb6
  %30 = load i8*, i8** %6, align 8, !dbg !1804, !align !425
  ret i8* %30, !dbg !1804

bb13:                                             ; preds = %bb7
  %31 = getelementptr inbounds { i8*, i8* }, { i8*, i8* }* %self, i32 0, i32 1, !dbg !1800
  %_56 = load i8*, i8** %31, align 8, !dbg !1800, !rawptr !216
  store i8* %_56, i8** %self.dbg.spill21, align 8, !dbg !1800
  call void @llvm.dbg.declare(metadata i8** %self.dbg.spill21, metadata !1805, metadata !DIExpression()), !dbg !1810
  %32 = getelementptr i8, i8* %_56, i64 -1, !dbg !1810
  store i8* %32, i8** %0, align 8, !dbg !1810
  %_54 = load i8*, i8** %0, align 8, !dbg !1810, !rawptr !216
  br label %bb16, !dbg !1810

bb14:                                             ; preds = %bb7
  %33 = bitcast { i8*, i8* }* %self to i8**, !dbg !1800
  %self16 = load i8*, i8** %33, align 8, !dbg !1800, !nonnull !14, !noundef !14, !rawptr !216
  store i8* %self16, i8** %self.dbg.spill17, align 8, !dbg !1800
  call void @llvm.dbg.declare(metadata i8** %self.dbg.spill17, metadata !1812, metadata !DIExpression()), !dbg !1816
  store i8* %self16, i8** %old.dbg.spill, align 8, !dbg !1816
  call void @llvm.dbg.declare(metadata i8** %old.dbg.spill, metadata !1798, metadata !DIExpression()), !dbg !1818
  %34 = bitcast { i8*, i8* }* %self to i8**, !dbg !1818
  %self18 = load i8*, i8** %34, align 8, !dbg !1818, !nonnull !14, !noundef !14, !rawptr !216
  store i8* %self18, i8** %self.dbg.spill19, align 8, !dbg !1818
  call void @llvm.dbg.declare(metadata i8** %self.dbg.spill19, metadata !1819, metadata !DIExpression()), !dbg !1823
  store i8* %self18, i8** %self.dbg.spill20, align 8, !dbg !1823
  call void @llvm.dbg.declare(metadata i8** %self.dbg.spill20, metadata !1825, metadata !DIExpression()), !dbg !1832
  %35 = getelementptr inbounds i8, i8* %self18, i64 1, !dbg !1832
  store i8* %35, i8** %1, align 8, !dbg !1832
  %_73 = load i8*, i8** %1, align 8, !dbg !1832, !rawptr !216
  br label %bb17, !dbg !1832

bb17:                                             ; preds = %bb14
  store i8* %_73, i8** %ptr.dbg.spill, align 8, !dbg !1832
  call void @llvm.dbg.declare(metadata i8** %ptr.dbg.spill, metadata !1833, metadata !DIExpression()), !dbg !1837
  store i8* %_73, i8** %_62, align 8, !dbg !1837
  %36 = bitcast { i8*, i8* }* %self to i8**, !dbg !1818
  %37 = load i8*, i8** %_62, align 8, !dbg !1818, !nonnull !14, !noundef !14
  store i8* %37, i8** %36, align 8, !dbg !1818
  store i8* %self16, i8** %_19, align 8, !dbg !1818
  br label %bb15, !dbg !1800

bb15:                                             ; preds = %bb16, %bb17
  %_18 = load i8*, i8** %_19, align 8, !dbg !1791
  store i8* %_18, i8** %6, align 8, !dbg !1839
  br label %bb8, !dbg !1803

bb16:                                             ; preds = %bb13
  %38 = getelementptr inbounds { i8*, i8* }, { i8*, i8* }* %self, i32 0, i32 1, !dbg !1800, !rawptr !216
  store i8* %_54, i8** %38, align 8, !dbg !1800
  %39 = bitcast { i8*, i8* }* %self to i8**, !dbg !1800
  %self22 = load i8*, i8** %39, align 8, !dbg !1800, !nonnull !14, !noundef !14, !rawptr !216
  store i8* %self22, i8** %self.dbg.spill23, align 8, !dbg !1800
  call void @llvm.dbg.declare(metadata i8** %self.dbg.spill23, metadata !1840, metadata !DIExpression()), !dbg !1844
  store i8* %self22, i8** %_19, align 8, !dbg !1800
  br label %bb15, !dbg !1800
}

; <core::slice::iter::Iter<T> as core::iter::traits::iterator::Iterator>::position
; Function Attrs: inlinehint nonlazybind uwtable
define { i64, i64 } @"_ZN91_$LT$core..slice..iter..Iter$LT$T$GT$$u20$as$u20$core..iter..traits..iterator..Iterator$GT$8position17hd8a827da3007692fE"({ i8*, i8* }* align 8 %self) unnamed_addr #0 personality i32 (...)* @rust_eh_personality !dbg !1846 {
start:
  %x.dbg.spill = alloca i8*, align 8
  %0 = alloca { i8*, i32 }, align 8
  %rhs.dbg.spill = alloca i64, align 8
  %1 = alloca i64, align 8
  %self.dbg.spill11 = alloca i8*, align 8
  %self.dbg.spill10 = alloca i8*, align 8
  %self.dbg.spill9 = alloca i64, align 8
  %2 = alloca i64, align 8
  %self.dbg.spill7 = alloca i8*, align 8
  %diff.dbg.spill = alloca i64, align 8
  %3 = alloca i64, align 8
  %4 = alloca i64, align 8
  %self.dbg.spill5 = alloca i8*, align 8
  %self.dbg.spill4 = alloca i8*, align 8
  %5 = alloca i64, align 8
  %self.dbg.spill3 = alloca i8*, align 8
  %size.dbg.spill = alloca i64, align 8
  %start.dbg.spill = alloca i8*, align 8
  %self.dbg.spill = alloca { i8*, i8* }*, align 8
  %_28 = alloca i8*, align 8
  %_22 = alloca i8*, align 8
  %i = alloca i64, align 8
  %n = alloca i64, align 8
  %6 = alloca { i64, i64 }, align 8
  %predicate = alloca %"[closure@/home/dy3199/.cargo/registry/src/github.com-1ecc6299db9ec823/getrandom-0.2.12/src/error.rs:109:43: 109:54]", align 1
  store { i8*, i8* }* %self, { i8*, i8* }** %self.dbg.spill, align 8
  call void @llvm.dbg.declare(metadata { i8*, i8* }** %self.dbg.spill, metadata !1852, metadata !DIExpression()), !dbg !1868
  call void @llvm.dbg.declare(metadata %"[closure@/home/dy3199/.cargo/registry/src/github.com-1ecc6299db9ec823/getrandom-0.2.12/src/error.rs:109:43: 109:54]"* %predicate, metadata !1853, metadata !DIExpression()), !dbg !1869
  call void @llvm.dbg.declare(metadata i64* %n, metadata !1854, metadata !DIExpression()), !dbg !1870
  call void @llvm.dbg.declare(metadata i64* %i, metadata !1862, metadata !DIExpression()), !dbg !1871
  %7 = bitcast { i8*, i8* }* %self to i8**, !dbg !1872
  %start1 = load i8*, i8** %7, align 8, !dbg !1872, !nonnull !14, !noundef !14, !rawptr !216
  store i8* %start1, i8** %start.dbg.spill, align 8, !dbg !1872
  call void @llvm.dbg.declare(metadata i8** %start.dbg.spill, metadata !1856, metadata !DIExpression()), !dbg !1873
  store i64 1, i64* %size.dbg.spill, align 8, !dbg !1874
  call void @llvm.dbg.declare(metadata i64* %size.dbg.spill, metadata !1858, metadata !DIExpression()), !dbg !1885
  br i1 false, label %bb1, label %bb2, !dbg !1885

bb1:                                              ; preds = %start
  %8 = getelementptr inbounds { i8*, i8* }, { i8*, i8* }* %self, i32 0, i32 1, !dbg !1885
  %self6 = load i8*, i8** %8, align 8, !dbg !1885, !rawptr !216
  store i8* %self6, i8** %self.dbg.spill7, align 8, !dbg !1885
  call void @llvm.dbg.declare(metadata i8** %self.dbg.spill7, metadata !1886, metadata !DIExpression()), !dbg !1890
  %9 = bitcast i64* %2 to i8**, !dbg !1890
  store i8* %self6, i8** %9, align 8, !dbg !1890
  %self8 = load i64, i64* %2, align 8, !dbg !1890
  store i64 %self8, i64* %self.dbg.spill9, align 8, !dbg !1890
  call void @llvm.dbg.declare(metadata i64* %self.dbg.spill9, metadata !1892, metadata !DIExpression()), !dbg !1901
  br label %bb18, !dbg !1890

bb2:                                              ; preds = %start
  %10 = getelementptr inbounds { i8*, i8* }, { i8*, i8* }* %self, i32 0, i32 1, !dbg !1885
  %self2 = load i8*, i8** %10, align 8, !dbg !1885, !rawptr !216
  store i8* %self2, i8** %self.dbg.spill3, align 8, !dbg !1885
  call void @llvm.dbg.declare(metadata i8** %self.dbg.spill3, metadata !1902, metadata !DIExpression()), !dbg !1906
  %11 = bitcast i64* %5 to i8**, !dbg !1906
  store i8* %self2, i8** %11, align 8, !dbg !1906
  %_14 = load i64, i64* %5, align 8, !dbg !1906
  br label %bb20, !dbg !1906

bb20:                                             ; preds = %bb2
  store i8* %start1, i8** %self.dbg.spill4, align 8, !dbg !1885
  call void @llvm.dbg.declare(metadata i8** %self.dbg.spill4, metadata !1908, metadata !DIExpression()), !dbg !1912
  store i8* %start1, i8** %self.dbg.spill5, align 8, !dbg !1912
  call void @llvm.dbg.declare(metadata i8** %self.dbg.spill5, metadata !1914, metadata !DIExpression()), !dbg !1920
  %12 = bitcast i64* %4 to i8**, !dbg !1920
  store i8* %start1, i8** %12, align 8, !dbg !1920
  %_16 = load i64, i64* %4, align 8, !dbg !1920
  br label %bb21, !dbg !1920

bb21:                                             ; preds = %bb20
  %13 = sub nuw i64 %_14, %_16, !dbg !1885
  store i64 %13, i64* %3, align 8, !dbg !1885
  %diff = load i64, i64* %3, align 8, !dbg !1885
  store i64 %diff, i64* %diff.dbg.spill, align 8, !dbg !1885
  call void @llvm.dbg.declare(metadata i64* %diff.dbg.spill, metadata !1860, metadata !DIExpression()), !dbg !1921
  br label %bb3, !dbg !1885

bb3:                                              ; preds = %bb21
  %14 = udiv exact i64 %diff, 1, !dbg !1921
  store i64 %14, i64* %n, align 8, !dbg !1921
  br label %bb4, !dbg !1921

bb4:                                              ; preds = %bb3
  br label %bb5, !dbg !1885

bb5:                                              ; preds = %bb19, %bb4
  store i64 0, i64* %i, align 8, !dbg !1922
  br label %bb6, !dbg !1923

bb18:                                             ; preds = %bb1
  store i8* %start1, i8** %self.dbg.spill10, align 8, !dbg !1885
  call void @llvm.dbg.declare(metadata i8** %self.dbg.spill10, metadata !1924, metadata !DIExpression()), !dbg !1928
  store i8* %start1, i8** %self.dbg.spill11, align 8, !dbg !1928
  call void @llvm.dbg.declare(metadata i8** %self.dbg.spill11, metadata !1930, metadata !DIExpression()), !dbg !1934
  %15 = bitcast i64* %1 to i8**, !dbg !1934
  store i8* %start1, i8** %15, align 8, !dbg !1934
  %rhs = load i64, i64* %1, align 8, !dbg !1934
  store i64 %rhs, i64* %rhs.dbg.spill, align 8, !dbg !1934
  call void @llvm.dbg.declare(metadata i64* %rhs.dbg.spill, metadata !1900, metadata !DIExpression()), !dbg !1901
  br label %bb19, !dbg !1934

bb19:                                             ; preds = %bb18
  %16 = sub i64 %self8, %rhs, !dbg !1901
  store i64 %16, i64* %n, align 8, !dbg !1901
  br label %bb5, !dbg !1885

bb6:                                              ; preds = %bb13, %bb5
; invoke <core::slice::iter::Iter<T> as core::iter::traits::iterator::Iterator>::next
  %17 = invoke align 1 i8* @"_ZN91_$LT$core..slice..iter..Iter$LT$T$GT$$u20$as$u20$core..iter..traits..iterator..Iterator$GT$4next17h5131cc6448f7fafeE"({ i8*, i8* }* align 8 %self)
          to label %bb7 unwind label %cleanup, !dbg !1935

bb16:                                             ; preds = %cleanup
  br label %bb17, !dbg !1936

cleanup:                                          ; preds = %panic, %bb8, %bb6
  %18 = landingpad { i8*, i32 }
          cleanup
  %19 = extractvalue { i8*, i32 } %18, 0
  %20 = extractvalue { i8*, i32 } %18, 1
  %21 = getelementptr inbounds { i8*, i32 }, { i8*, i32 }* %0, i32 0, i32 0
  store i8* %19, i8** %21, align 8
  %22 = getelementptr inbounds { i8*, i32 }, { i8*, i32 }* %0, i32 0, i32 1
  store i32 %20, i32* %22, align 8
  br label %bb16

bb7:                                              ; preds = %bb6
  store i8* %17, i8** %_22, align 8, !dbg !1935
  %23 = bitcast i8** %_22 to {}**, !dbg !1937
  %24 = load {}*, {}** %23, align 8, !dbg !1937
  %25 = icmp eq {}* %24, null, !dbg !1937
  %_24 = select i1 %25, i64 0, i64 1, !dbg !1937
  %26 = icmp eq i64 %_24, 1, !dbg !1937
  br i1 %26, label %bb8, label %bb14, !dbg !1937

bb8:                                              ; preds = %bb7
  %x = load i8*, i8** %_22, align 8, !dbg !1938, !nonnull !14, !align !425, !noundef !14
  store i8* %x, i8** %x.dbg.spill, align 8, !dbg !1938
  call void @llvm.dbg.declare(metadata i8** %x.dbg.spill, metadata !1864, metadata !DIExpression()), !dbg !1938
  store i8* %x, i8** %_28, align 8, !dbg !1939
  %27 = load i8*, i8** %_28, align 8, !dbg !1939, !nonnull !14, !align !425, !noundef !14
; invoke getrandom::error::os_err::{{closure}}
  %_26 = invoke zeroext i1 @"_ZN9getrandom5error6os_err28_$u7b$$u7b$closure$u7d$$u7d$17h2da3b514218c2ae8E"(%"[closure@/home/dy3199/.cargo/registry/src/github.com-1ecc6299db9ec823/getrandom-0.2.12/src/error.rs:109:43: 109:54]"* align 1 %predicate, i8* align 1 %27)
          to label %bb9 unwind label %cleanup, !dbg !1939

bb14:                                             ; preds = %bb7
  %28 = bitcast { i64, i64 }* %6 to i64*, !dbg !1940
  store i64 0, i64* %28, align 8, !dbg !1940
  br label %bb15, !dbg !1936

bb15:                                             ; preds = %bb11, %bb14
  %29 = getelementptr inbounds { i64, i64 }, { i64, i64 }* %6, i32 0, i32 0, !dbg !1941
  %30 = load i64, i64* %29, align 8, !dbg !1941, !range !1381, !noundef !14
  %31 = getelementptr inbounds { i64, i64 }, { i64, i64 }* %6, i32 0, i32 1, !dbg !1941
  %32 = load i64, i64* %31, align 8, !dbg !1941
  %33 = insertvalue { i64, i64 } undef, i64 %30, 0, !dbg !1941
  %34 = insertvalue { i64, i64 } %33, i64 %32, 1, !dbg !1941
  ret { i64, i64 } %34, !dbg !1941

bb9:                                              ; preds = %bb8
  br i1 %_26, label %bb10, label %bb12, !dbg !1939

bb12:                                             ; preds = %bb9
  %35 = load i64, i64* %i, align 8, !dbg !1942
  %36 = call { i64, i1 } @llvm.uadd.with.overflow.i64(i64 %35, i64 1), !dbg !1942
  %_35.0 = extractvalue { i64, i1 } %36, 0, !dbg !1942
  %_35.1 = extractvalue { i64, i1 } %36, 1, !dbg !1942
  %37 = call i1 @llvm.expect.i1(i1 %_35.1, i1 false), !dbg !1942
  br i1 %37, label %panic, label %bb13, !dbg !1942

bb10:                                             ; preds = %bb9
  %_32 = load i64, i64* %i, align 8, !dbg !1943
  %_33 = load i64, i64* %n, align 8, !dbg !1944
  %_31 = icmp ult i64 %_32, %_33, !dbg !1943
  call void @llvm.assume(i1 %_31), !dbg !1945
  br label %bb11, !dbg !1945

bb11:                                             ; preds = %bb10
  %_34 = load i64, i64* %i, align 8, !dbg !1946
  %38 = getelementptr inbounds { i64, i64 }, { i64, i64 }* %6, i32 0, i32 1, !dbg !1947
  store i64 %_34, i64* %38, align 8, !dbg !1947
  %39 = bitcast { i64, i64 }* %6 to i64*, !dbg !1947
  store i64 1, i64* %39, align 8, !dbg !1947
  br label %bb15, !dbg !1936

bb13:                                             ; preds = %bb12
  store i64 %_35.0, i64* %i, align 8, !dbg !1942
  br label %bb6, !dbg !1923

panic:                                            ; preds = %bb12
; invoke core::panicking::panic
  invoke void @_ZN4core9panicking5panic17hdee7c0ac456df10cE([0 x i8]* align 1 bitcast ([28 x i8]* @str.3 to [0 x i8]*), i64 28, %"core::panic::location::Location"* align 8 bitcast (<{ i8*, [16 x i8] }>* @alloc499 to %"core::panic::location::Location"*)) #12
          to label %unreachable unwind label %cleanup, !dbg !1942

unreachable:                                      ; preds = %panic
  unreachable

bb17:                                             ; preds = %bb16
  %40 = bitcast { i8*, i32 }* %0 to i8**, !dbg !1948
  %41 = load i8*, i8** %40, align 8, !dbg !1948
  %42 = getelementptr inbounds { i8*, i32 }, { i8*, i32 }* %0, i32 0, i32 1, !dbg !1948
  %43 = load i32, i32* %42, align 8, !dbg !1948
  %44 = insertvalue { i8*, i32 } undef, i8* %41, 0, !dbg !1948
  %45 = insertvalue { i8*, i32 } %44, i32 %43, 1, !dbg !1948
  resume { i8*, i32 } %45, !dbg !1948
}

; getrandom::error::internal_error
; Function Attrs: nonlazybind uwtable
define i32 @_ZN9getrandom5error14internal_error17h05fef3fd3d9513beE(i16 %n) unnamed_addr #1 !dbg !1949 {
start:
  %code.dbg.spill = alloca i32, align 4
  %n.dbg.spill = alloca i16, align 2
  %0 = alloca i32, align 4
  store i16 %n, i16* %n.dbg.spill, align 2
  call void @llvm.dbg.declare(metadata i16* %n.dbg.spill, metadata !1955, metadata !DIExpression()), !dbg !1958
  %_3 = zext i16 %n to i32, !dbg !1959
  %1 = call { i32, i1 } @llvm.uadd.with.overflow.i32(i32 -2147483648, i32 %_3), !dbg !1960
  %_5.0 = extractvalue { i32, i1 } %1, 0, !dbg !1960
  %_5.1 = extractvalue { i32, i1 } %1, 1, !dbg !1960
  %2 = call i1 @llvm.expect.i1(i1 %_5.1, i1 false), !dbg !1960
  br i1 %2, label %panic, label %bb1, !dbg !1960

bb1:                                              ; preds = %start
  store i32 %_5.0, i32* %code.dbg.spill, align 4, !dbg !1960
  call void @llvm.dbg.declare(metadata i32* %code.dbg.spill, metadata !1956, metadata !DIExpression()), !dbg !1961
; call core::num::nonzero::NonZeroU32::new_unchecked
  %_6 = call i32 @_ZN4core3num7nonzero10NonZeroU3213new_unchecked17h79cfb156bef2252aE(i32 %_5.0), !dbg !1962, !range !512, !ydy.unsafe !14
  br label %bb2, !dbg !1962, !ydy.unsafe !14

panic:                                            ; preds = %start
; call core::panicking::panic
  call void @_ZN4core9panicking5panic17hdee7c0ac456df10cE([0 x i8]* align 1 bitcast ([28 x i8]* @str.3 to [0 x i8]*), i64 28, %"core::panic::location::Location"* align 8 bitcast (<{ i8*, [16 x i8] }>* @alloc501 to %"core::panic::location::Location"*)) #12, !dbg !1960
  unreachable, !dbg !1960

bb2:                                              ; preds = %bb1
  store i32 %_6, i32* %0, align 4, !dbg !1963
  %3 = load i32, i32* %0, align 4, !dbg !1964, !range !512, !noundef !14
  ret i32 %3, !dbg !1964
}

; getrandom::error::Error::raw_os_error
; Function Attrs: inlinehint nonlazybind uwtable
define internal { i32, i32 } @_ZN9getrandom5error5Error12raw_os_error17h676035f180230194E(i32 %self) unnamed_addr #0 !dbg !1965 {
start:
  %self.dbg.spill = alloca i32, align 4
  %0 = alloca { i32, i32 }, align 4
  store i32 %self, i32* %self.dbg.spill, align 4
  call void @llvm.dbg.declare(metadata i32* %self.dbg.spill, metadata !1969, metadata !DIExpression()), !dbg !1970
; call core::num::nonzero::NonZeroU32::get
  %_3 = call i32 @_ZN4core3num7nonzero10NonZeroU323get17h314ef246cfaf6da7E(i32 %self), !dbg !1971
  br label %bb1, !dbg !1971

bb1:                                              ; preds = %start
  %_2 = icmp ult i32 %_3, -2147483648, !dbg !1971
  br i1 %_2, label %bb2, label %bb4, !dbg !1971

bb4:                                              ; preds = %bb1
  %1 = bitcast { i32, i32 }* %0 to i32*, !dbg !1972
  store i32 0, i32* %1, align 4, !dbg !1972
  br label %bb5, !dbg !1973

bb2:                                              ; preds = %bb1
; call core::num::nonzero::NonZeroU32::get
  %_6 = call i32 @_ZN4core3num7nonzero10NonZeroU323get17h314ef246cfaf6da7E(i32 %self), !dbg !1974
  br label %bb3, !dbg !1974

bb3:                                              ; preds = %bb2
  %2 = getelementptr inbounds { i32, i32 }, { i32, i32 }* %0, i32 0, i32 1, !dbg !1975
  store i32 %_6, i32* %2, align 4, !dbg !1975
  %3 = bitcast { i32, i32 }* %0 to i32*, !dbg !1975
  store i32 1, i32* %3, align 4, !dbg !1975
  br label %bb5, !dbg !1973

bb5:                                              ; preds = %bb4, %bb3
  %4 = getelementptr inbounds { i32, i32 }, { i32, i32 }* %0, i32 0, i32 0, !dbg !1976
  %5 = load i32, i32* %4, align 4, !dbg !1976, !range !1576, !noundef !14
  %6 = getelementptr inbounds { i32, i32 }, { i32, i32 }* %0, i32 0, i32 1, !dbg !1976
  %7 = load i32, i32* %6, align 4, !dbg !1976
  %8 = insertvalue { i32, i32 } undef, i32 %5, 0, !dbg !1976
  %9 = insertvalue { i32, i32 } %8, i32 %7, 1, !dbg !1976
  ret { i32, i32 } %9, !dbg !1976
}

; <getrandom::error::Error as core::fmt::Debug>::fmt
; Function Attrs: nonlazybind uwtable
define zeroext i1 @"_ZN60_$LT$getrandom..error..Error$u20$as$u20$core..fmt..Debug$GT$3fmt17h1d5382c7d49fe7e2E"(i32* align 4 %self, %"core::fmt::Formatter"* align 8 %f) unnamed_addr #1 !dbg !1977 {
start:
  %f.dbg.spill = alloca %"core::fmt::Formatter"*, align 8
  %self.dbg.spill = alloca i32*, align 8
  %_60 = alloca i32, align 4
  %_44 = alloca i32, align 4
  %desc = alloca { [0 x i8]*, i64 }, align 8
  %_33 = alloca { i8*, i64 }, align 8
  %err = alloca { [0 x i8]*, i64 }, align 8
  %_19 = alloca { i8*, i64 }, align 8
  %buf = alloca [128 x i8], align 1
  %errno = alloca i32, align 4
  %_7 = alloca { i32, i32 }, align 4
  %dbg = alloca %"core::fmt::builders::DebugStruct", align 8
  store i32* %self, i32** %self.dbg.spill, align 8
  call void @llvm.dbg.declare(metadata i32** %self.dbg.spill, metadata !1983, metadata !DIExpression()), !dbg !2004
  store %"core::fmt::Formatter"* %f, %"core::fmt::Formatter"** %f.dbg.spill, align 8
  call void @llvm.dbg.declare(metadata %"core::fmt::Formatter"** %f.dbg.spill, metadata !1984, metadata !DIExpression()), !dbg !2005
  call void @llvm.dbg.declare(metadata %"core::fmt::builders::DebugStruct"* %dbg, metadata !1985, metadata !DIExpression()), !dbg !2006
  call void @llvm.dbg.declare(metadata i32* %errno, metadata !1993, metadata !DIExpression()), !dbg !2007
  call void @llvm.dbg.declare(metadata [128 x i8]* %buf, metadata !1995, metadata !DIExpression()), !dbg !2008
  call void @llvm.dbg.declare(metadata { [0 x i8]*, i64 }* %err, metadata !2000, metadata !DIExpression()), !dbg !2009
  call void @llvm.dbg.declare(metadata { [0 x i8]*, i64 }* %desc, metadata !2002, metadata !DIExpression()), !dbg !2010
; call core::fmt::Formatter::debug_struct
  call void @_ZN4core3fmt9Formatter12debug_struct17h187e82c01b4247bdE(%"core::fmt::builders::DebugStruct"* sret(%"core::fmt::builders::DebugStruct") %dbg, %"core::fmt::Formatter"* align 8 %f, [0 x i8]* align 1 bitcast (<{ [5 x i8] }>* @alloc502 to [0 x i8]*), i64 5), !dbg !2011
  br label %bb1, !dbg !2011

bb1:                                              ; preds = %start
  %_8 = load i32, i32* %self, align 4, !dbg !2012, !range !512, !noundef !14
; call getrandom::error::Error::raw_os_error
  %0 = call { i32, i32 } @_ZN9getrandom5error5Error12raw_os_error17h676035f180230194E(i32 %_8), !dbg !2012
  store { i32, i32 } %0, { i32, i32 }* %_7, align 4, !dbg !2012
  br label %bb2, !dbg !2012

bb2:                                              ; preds = %bb1
  %1 = bitcast { i32, i32 }* %_7 to i32*, !dbg !2013
  %2 = load i32, i32* %1, align 4, !dbg !2013, !range !1576, !noundef !14
  %_9 = zext i32 %2 to i64, !dbg !2013
  %3 = icmp eq i64 %_9, 1, !dbg !2013
  br i1 %3, label %bb3, label %bb7, !dbg !2013

bb3:                                              ; preds = %bb2
  %4 = getelementptr inbounds { i32, i32 }, { i32, i32 }* %_7, i32 0, i32 1, !dbg !2007
  %5 = load i32, i32* %4, align 4, !dbg !2007
  store i32 %5, i32* %errno, align 4, !dbg !2007
  %_15.0 = bitcast i32* %errno to {}*, !dbg !2014
; call core::fmt::builders::DebugStruct::field
  %_11 = call align 8 %"core::fmt::builders::DebugStruct"* @_ZN4core3fmt8builders11DebugStruct5field17h9b34bef2fc94ec42E(%"core::fmt::builders::DebugStruct"* align 8 %dbg, [0 x i8]* align 1 bitcast (<{ [8 x i8] }>* @alloc512 to [0 x i8]*), i64 8, {}* align 1 %_15.0, [3 x i64]* align 8 bitcast (<{ i8*, [16 x i8], i8* }>* @vtable.6 to [3 x i64]*)), !dbg !2015
  br label %bb4, !dbg !2015

bb7:                                              ; preds = %bb2
  %_34 = load i32, i32* %self, align 4, !dbg !2016, !range !512, !noundef !14
; call getrandom::error::internal_desc
  %6 = call { i8*, i64 } @_ZN9getrandom5error13internal_desc17h24d0b9a2cedfa6aaE(i32 %_34), !dbg !2017
  store { i8*, i64 } %6, { i8*, i64 }* %_33, align 8, !dbg !2017
  br label %bb8, !dbg !2017

bb8:                                              ; preds = %bb7
  %7 = bitcast { i8*, i64 }* %_33 to {}**, !dbg !2018
  %8 = load {}*, {}** %7, align 8, !dbg !2018
  %9 = icmp eq {}* %8, null, !dbg !2018
  %_35 = select i1 %9, i64 0, i64 1, !dbg !2018
  %10 = icmp eq i64 %_35, 1, !dbg !2018
  br i1 %10, label %bb9, label %bb12, !dbg !2018

bb9:                                              ; preds = %bb8
  %11 = bitcast { i8*, i64 }* %_33 to { [0 x i8]*, i64 }*, !dbg !2010
  %12 = getelementptr inbounds { [0 x i8]*, i64 }, { [0 x i8]*, i64 }* %11, i32 0, i32 0, !dbg !2010
  %13 = load [0 x i8]*, [0 x i8]** %12, align 8, !dbg !2010, !nonnull !14, !align !425, !noundef !14
  %14 = getelementptr inbounds { [0 x i8]*, i64 }, { [0 x i8]*, i64 }* %11, i32 0, i32 1, !dbg !2010
  %15 = load i64, i64* %14, align 8, !dbg !2010
  %16 = getelementptr inbounds { [0 x i8]*, i64 }, { [0 x i8]*, i64 }* %desc, i32 0, i32 0, !dbg !2010
  store [0 x i8]* %13, [0 x i8]** %16, align 8, !dbg !2010
  %17 = getelementptr inbounds { [0 x i8]*, i64 }, { [0 x i8]*, i64 }* %desc, i32 0, i32 1, !dbg !2010
  store i64 %15, i64* %17, align 8, !dbg !2010
  %_45 = load i32, i32* %self, align 4, !dbg !2019, !range !512, !noundef !14
; call core::num::nonzero::NonZeroU32::get
  %18 = call i32 @_ZN4core3num7nonzero10NonZeroU323get17h314ef246cfaf6da7E(i32 %_45), !dbg !2019
  store i32 %18, i32* %_44, align 4, !dbg !2019
  br label %bb10, !dbg !2019

bb12:                                             ; preds = %bb8
  %_61 = load i32, i32* %self, align 4, !dbg !2020, !range !512, !noundef !14
; call core::num::nonzero::NonZeroU32::get
  %19 = call i32 @_ZN4core3num7nonzero10NonZeroU323get17h314ef246cfaf6da7E(i32 %_61), !dbg !2020
  store i32 %19, i32* %_60, align 4, !dbg !2020
  br label %bb13, !dbg !2020

bb13:                                             ; preds = %bb12
  %_57.0 = bitcast i32* %_60 to {}*, !dbg !2021
; call core::fmt::builders::DebugStruct::field
  %_53 = call align 8 %"core::fmt::builders::DebugStruct"* @_ZN4core3fmt8builders11DebugStruct5field17h9b34bef2fc94ec42E(%"core::fmt::builders::DebugStruct"* align 8 %dbg, [0 x i8]* align 1 bitcast (<{ [12 x i8] }>* @alloc503 to [0 x i8]*), i64 12, {}* align 1 %_57.0, [3 x i64]* align 8 bitcast (<{ i8*, [16 x i8], i8* }>* @vtable.4 to [3 x i64]*)), !dbg !2022
  br label %bb14, !dbg !2022

bb14:                                             ; preds = %bb6, %bb5, %bb11, %bb13
; call core::fmt::builders::DebugStruct::finish
  %20 = call zeroext i1 @_ZN4core3fmt8builders11DebugStruct6finish17h8743d601cc31105bE(%"core::fmt::builders::DebugStruct"* align 8 %dbg), !dbg !2023
  br label %bb15, !dbg !2023

bb10:                                             ; preds = %bb9
  %_41.0 = bitcast i32* %_44 to {}*, !dbg !2024
; call core::fmt::builders::DebugStruct::field
  %_37 = call align 8 %"core::fmt::builders::DebugStruct"* @_ZN4core3fmt8builders11DebugStruct5field17h9b34bef2fc94ec42E(%"core::fmt::builders::DebugStruct"* align 8 %dbg, [0 x i8]* align 1 bitcast (<{ [13 x i8] }>* @alloc507 to [0 x i8]*), i64 13, {}* align 1 %_41.0, [3 x i64]* align 8 bitcast (<{ i8*, [16 x i8], i8* }>* @vtable.4 to [3 x i64]*)), !dbg !2025
  br label %bb11, !dbg !2025

bb11:                                             ; preds = %bb10
  %_50.0 = bitcast { [0 x i8]*, i64 }* %desc to {}*, !dbg !2026
; call core::fmt::builders::DebugStruct::field
  %_46 = call align 8 %"core::fmt::builders::DebugStruct"* @_ZN4core3fmt8builders11DebugStruct5field17h9b34bef2fc94ec42E(%"core::fmt::builders::DebugStruct"* align 8 %dbg, [0 x i8]* align 1 bitcast (<{ [11 x i8] }>* @alloc516 to [0 x i8]*), i64 11, {}* align 1 %_50.0, [3 x i64]* align 8 bitcast (<{ i8*, [16 x i8], i8* }>* @vtable.5 to [3 x i64]*)), !dbg !2027
  br label %bb14, !dbg !2027

bb4:                                              ; preds = %bb3
  %21 = getelementptr inbounds [128 x i8], [128 x i8]* %buf, i64 0, i64 0, !dbg !2028
  call void @llvm.memset.p0i8.i64(i8* align 1 %21, i8 0, i64 128, i1 false), !dbg !2028
  %_20 = load i32, i32* %errno, align 4, !dbg !2029
  %_21.0 = bitcast [128 x i8]* %buf to [0 x i8]*, !dbg !2030
; call getrandom::error::os_err
  %22 = call { i8*, i64 } @_ZN9getrandom5error6os_err17h51b90b33862fdeacE(i32 %_20, [0 x i8]* align 1 %_21.0, i64 128), !dbg !2031
  store { i8*, i64 } %22, { i8*, i64 }* %_19, align 8, !dbg !2031
  br label %bb5, !dbg !2031

bb5:                                              ; preds = %bb4
  %23 = bitcast { i8*, i64 }* %_19 to {}**, !dbg !2032
  %24 = load {}*, {}** %23, align 8, !dbg !2032
  %25 = icmp eq {}* %24, null, !dbg !2032
  %_24 = select i1 %25, i64 0, i64 1, !dbg !2032
  %26 = icmp eq i64 %_24, 1, !dbg !2032
  br i1 %26, label %bb6, label %bb14, !dbg !2032

bb6:                                              ; preds = %bb5
  %27 = bitcast { i8*, i64 }* %_19 to { [0 x i8]*, i64 }*, !dbg !2009
  %28 = getelementptr inbounds { [0 x i8]*, i64 }, { [0 x i8]*, i64 }* %27, i32 0, i32 0, !dbg !2009
  %29 = load [0 x i8]*, [0 x i8]** %28, align 8, !dbg !2009, !nonnull !14, !align !425, !noundef !14
  %30 = getelementptr inbounds { [0 x i8]*, i64 }, { [0 x i8]*, i64 }* %27, i32 0, i32 1, !dbg !2009
  %31 = load i64, i64* %30, align 8, !dbg !2009
  %32 = getelementptr inbounds { [0 x i8]*, i64 }, { [0 x i8]*, i64 }* %err, i32 0, i32 0, !dbg !2009
  store [0 x i8]* %29, [0 x i8]** %32, align 8, !dbg !2009
  %33 = getelementptr inbounds { [0 x i8]*, i64 }, { [0 x i8]*, i64 }* %err, i32 0, i32 1, !dbg !2009
  store i64 %31, i64* %33, align 8, !dbg !2009
  %_30.0 = bitcast { [0 x i8]*, i64 }* %err to {}*, !dbg !2033
; call core::fmt::builders::DebugStruct::field
  %_26 = call align 8 %"core::fmt::builders::DebugStruct"* @_ZN4core3fmt8builders11DebugStruct5field17h9b34bef2fc94ec42E(%"core::fmt::builders::DebugStruct"* align 8 %dbg, [0 x i8]* align 1 bitcast (<{ [11 x i8] }>* @alloc516 to [0 x i8]*), i64 11, {}* align 1 %_30.0, [3 x i64]* align 8 bitcast (<{ i8*, [16 x i8], i8* }>* @vtable.5 to [3 x i64]*)), !dbg !2034
  br label %bb14, !dbg !2034

bb15:                                             ; preds = %bb14
  ret i1 %20, !dbg !2035
}

; <getrandom::error::Error as core::fmt::Display>::fmt
; Function Attrs: nonlazybind uwtable
define zeroext i1 @"_ZN62_$LT$getrandom..error..Error$u20$as$u20$core..fmt..Display$GT$3fmt17h5df768622a418ee5E"(i32* align 4 %self, %"core::fmt::Formatter"* align 8 %f) unnamed_addr #1 !dbg !2036 {
start:
  %result.dbg.spill2 = alloca i8, align 1
  %err.dbg.spill = alloca { [0 x i8]*, i64 }, align 8
  %desc.dbg.spill = alloca { [0 x i8]*, i64 }, align 8
  %result.dbg.spill = alloca i8, align 1
  %f.dbg.spill = alloca %"core::fmt::Formatter"*, align 8
  %self.dbg.spill = alloca i32*, align 8
  %_49 = alloca i32, align 4
  %_45 = alloca [1 x { i8*, i64* }], align 8
  %_38 = alloca %"core::fmt::Arguments", align 8
  %_30 = alloca { i8*, i64 }, align 8
  %_26 = alloca [1 x { i8*, i64* }], align 8
  %_19 = alloca %"core::fmt::Arguments", align 8
  %_8 = alloca { i8*, i64 }, align 8
  %buf = alloca [128 x i8], align 1
  %errno = alloca i32, align 4
  %_3 = alloca { i32, i32 }, align 4
  %0 = alloca i8, align 1
  store i32* %self, i32** %self.dbg.spill, align 8
  call void @llvm.dbg.declare(metadata i32** %self.dbg.spill, metadata !2039, metadata !DIExpression()), !dbg !2056
  store %"core::fmt::Formatter"* %f, %"core::fmt::Formatter"** %f.dbg.spill, align 8
  call void @llvm.dbg.declare(metadata %"core::fmt::Formatter"** %f.dbg.spill, metadata !2040, metadata !DIExpression()), !dbg !2057
  call void @llvm.dbg.declare(metadata i32* %errno, metadata !2041, metadata !DIExpression()), !dbg !2058
  call void @llvm.dbg.declare(metadata [128 x i8]* %buf, metadata !2043, metadata !DIExpression()), !dbg !2059
  %_4 = load i32, i32* %self, align 4, !dbg !2060, !range !512, !noundef !14
; call getrandom::error::Error::raw_os_error
  %1 = call { i32, i32 } @_ZN9getrandom5error5Error12raw_os_error17h676035f180230194E(i32 %_4), !dbg !2060
  store { i32, i32 } %1, { i32, i32 }* %_3, align 4, !dbg !2060
  br label %bb1, !dbg !2060

bb1:                                              ; preds = %start
  %2 = bitcast { i32, i32 }* %_3 to i32*, !dbg !2061
  %3 = load i32, i32* %2, align 4, !dbg !2061, !range !1576, !noundef !14
  %_5 = zext i32 %3 to i64, !dbg !2061
  %4 = icmp eq i64 %_5, 1, !dbg !2061
  br i1 %4, label %bb2, label %bb10, !dbg !2061

bb2:                                              ; preds = %bb1
  %5 = getelementptr inbounds { i32, i32 }, { i32, i32 }* %_3, i32 0, i32 1, !dbg !2058
  %6 = load i32, i32* %5, align 4, !dbg !2058
  store i32 %6, i32* %errno, align 4, !dbg !2058
  %7 = getelementptr inbounds [128 x i8], [128 x i8]* %buf, i64 0, i64 0, !dbg !2062
  call void @llvm.memset.p0i8.i64(i8* align 1 %7, i8 0, i64 128, i1 false), !dbg !2062
  %_9 = load i32, i32* %errno, align 4, !dbg !2063
  %_10.0 = bitcast [128 x i8]* %buf to [0 x i8]*, !dbg !2064
; call getrandom::error::os_err
  %8 = call { i8*, i64 } @_ZN9getrandom5error6os_err17h51b90b33862fdeacE(i32 %_9, [0 x i8]* align 1 %_10.0, i64 128), !dbg !2065
  store { i8*, i64 } %8, { i8*, i64 }* %_8, align 8, !dbg !2065
  br label %bb3, !dbg !2065

bb10:                                             ; preds = %bb1
  %_31 = load i32, i32* %self, align 4, !dbg !2066, !range !512, !noundef !14
; call getrandom::error::internal_desc
  %9 = call { i8*, i64 } @_ZN9getrandom5error13internal_desc17h24d0b9a2cedfa6aaE(i32 %_31), !dbg !2067
  store { i8*, i64 } %9, { i8*, i64 }* %_30, align 8, !dbg !2067
  br label %bb11, !dbg !2067

bb11:                                             ; preds = %bb10
  %10 = bitcast { i8*, i64 }* %_30 to {}**, !dbg !2068
  %11 = load {}*, {}** %10, align 8, !dbg !2068
  %12 = icmp eq {}* %11, null, !dbg !2068
  %_32 = select i1 %12, i64 0, i64 1, !dbg !2068
  %13 = icmp eq i64 %_32, 1, !dbg !2068
  br i1 %13, label %bb12, label %bb13, !dbg !2068

bb12:                                             ; preds = %bb11
  %14 = bitcast { i8*, i64 }* %_30 to { [0 x i8]*, i64 }*, !dbg !2069
  %15 = getelementptr inbounds { [0 x i8]*, i64 }, { [0 x i8]*, i64 }* %14, i32 0, i32 0, !dbg !2069
  %desc.0 = load [0 x i8]*, [0 x i8]** %15, align 8, !dbg !2069, !nonnull !14, !align !425, !noundef !14
  %16 = getelementptr inbounds { [0 x i8]*, i64 }, { [0 x i8]*, i64 }* %14, i32 0, i32 1, !dbg !2069
  %desc.1 = load i64, i64* %16, align 8, !dbg !2069
  %17 = getelementptr inbounds { [0 x i8]*, i64 }, { [0 x i8]*, i64 }* %desc.dbg.spill, i32 0, i32 0, !dbg !2069
  store [0 x i8]* %desc.0, [0 x i8]** %17, align 8, !dbg !2069
  %18 = getelementptr inbounds { [0 x i8]*, i64 }, { [0 x i8]*, i64 }* %desc.dbg.spill, i32 0, i32 1, !dbg !2069
  store i64 %desc.1, i64* %18, align 8, !dbg !2069
  call void @llvm.dbg.declare(metadata { [0 x i8]*, i64 }* %desc.dbg.spill, metadata !2051, metadata !DIExpression()), !dbg !2069
; call core::fmt::Formatter::write_str
  %19 = call zeroext i1 @_ZN4core3fmt9Formatter9write_str17hb00d70fb4fa96d5eE(%"core::fmt::Formatter"* align 8 %f, [0 x i8]* align 1 %desc.0, i64 %desc.1), !dbg !2070
  %20 = zext i1 %19 to i8, !dbg !2070
  store i8 %20, i8* %0, align 1, !dbg !2070
  br label %bb18, !dbg !2070

bb13:                                             ; preds = %bb11
  %_50 = load i32, i32* %self, align 4, !dbg !2071, !range !512, !noundef !14
; call core::num::nonzero::NonZeroU32::get
  %21 = call i32 @_ZN4core3num7nonzero10NonZeroU323get17h314ef246cfaf6da7E(i32 %_50), !dbg !2071
  store i32 %21, i32* %_49, align 4, !dbg !2071
  br label %bb14, !dbg !2071

bb14:                                             ; preds = %bb13
; call core::fmt::ArgumentV1::new_display
  %22 = call { i8*, i64* } @_ZN4core3fmt10ArgumentV111new_display17heb85d6a984daa1beE(i32* align 4 %_49), !dbg !2072
  %_46.0 = extractvalue { i8*, i64* } %22, 0, !dbg !2072
  %_46.1 = extractvalue { i8*, i64* } %22, 1, !dbg !2072
  br label %bb15, !dbg !2072

bb15:                                             ; preds = %bb14
  %23 = bitcast [1 x { i8*, i64* }]* %_45 to { i8*, i64* }*, !dbg !2072
  %24 = getelementptr inbounds { i8*, i64* }, { i8*, i64* }* %23, i32 0, i32 0, !dbg !2072
  store i8* %_46.0, i8** %24, align 8, !dbg !2072
  %25 = getelementptr inbounds { i8*, i64* }, { i8*, i64* }* %23, i32 0, i32 1, !dbg !2072
  store i64* %_46.1, i64** %25, align 8, !dbg !2072
  %_42.0 = bitcast [1 x { i8*, i64* }]* %_45 to [0 x { i8*, i64* }]*, !dbg !2072
; call core::fmt::Arguments::new_v1
  call void @_ZN4core3fmt9Arguments6new_v117h99be3332c30ef80dE(%"core::fmt::Arguments"* sret(%"core::fmt::Arguments") %_38, [0 x { [0 x i8]*, i64 }]* align 8 bitcast (<{ i8*, [8 x i8] }>* @alloc474 to [0 x { [0 x i8]*, i64 }]*), i64 1, [0 x { i8*, i64* }]* align 8 %_42.0, i64 1), !dbg !2072
  br label %bb16, !dbg !2072

bb16:                                             ; preds = %bb15
; call core::fmt::Formatter::write_fmt
  %result = call zeroext i1 @_ZN4core3fmt9Formatter9write_fmt17he08a9e8bf138b5a9E(%"core::fmt::Formatter"* align 8 %f, %"core::fmt::Arguments"* %_38), !dbg !2072
  %26 = zext i1 %result to i8, !dbg !2072
  store i8 %26, i8* %result.dbg.spill, align 1, !dbg !2072
  call void @llvm.dbg.declare(metadata i8* %result.dbg.spill, metadata !2053, metadata !DIExpression()), !dbg !2073
  br label %bb17, !dbg !2072

bb17:                                             ; preds = %bb16
  %27 = zext i1 %result to i8, !dbg !2073
  store i8 %27, i8* %0, align 1, !dbg !2073
  br label %bb18, !dbg !2074

bb18:                                             ; preds = %bb9, %bb6, %bb12, %bb17
  %28 = load i8, i8* %0, align 1, !dbg !2075, !range !420, !noundef !14
  %29 = trunc i8 %28 to i1, !dbg !2075
  ret i1 %29, !dbg !2075

bb3:                                              ; preds = %bb2
  %30 = bitcast { i8*, i64 }* %_8 to {}**, !dbg !2065
  %31 = load {}*, {}** %30, align 8, !dbg !2065
  %32 = icmp eq {}* %31, null, !dbg !2065
  %_13 = select i1 %32, i64 0, i64 1, !dbg !2065
  switch i64 %_13, label %bb5 [
    i64 0, label %bb4
    i64 1, label %bb6
  ], !dbg !2076

bb5:                                              ; preds = %bb3
  unreachable, !dbg !2065

bb4:                                              ; preds = %bb3
; call core::fmt::ArgumentV1::new_display
  %33 = call { i8*, i64* } @_ZN4core3fmt10ArgumentV111new_display17h24112d95923e3864E(i32* align 4 %errno), !dbg !2077
  %_27.0 = extractvalue { i8*, i64* } %33, 0, !dbg !2077
  %_27.1 = extractvalue { i8*, i64* } %33, 1, !dbg !2077
  br label %bb7, !dbg !2077

bb6:                                              ; preds = %bb3
  %34 = bitcast { i8*, i64 }* %_8 to { [0 x i8]*, i64 }*, !dbg !2078
  %35 = getelementptr inbounds { [0 x i8]*, i64 }, { [0 x i8]*, i64 }* %34, i32 0, i32 0, !dbg !2078
  %err.0 = load [0 x i8]*, [0 x i8]** %35, align 8, !dbg !2078, !nonnull !14, !align !425, !noundef !14
  %36 = getelementptr inbounds { [0 x i8]*, i64 }, { [0 x i8]*, i64 }* %34, i32 0, i32 1, !dbg !2078
  %err.1 = load i64, i64* %36, align 8, !dbg !2078
  %37 = getelementptr inbounds { [0 x i8]*, i64 }, { [0 x i8]*, i64 }* %err.dbg.spill, i32 0, i32 0, !dbg !2078
  store [0 x i8]* %err.0, [0 x i8]** %37, align 8, !dbg !2078
  %38 = getelementptr inbounds { [0 x i8]*, i64 }, { [0 x i8]*, i64 }* %err.dbg.spill, i32 0, i32 1, !dbg !2078
  store i64 %err.1, i64* %38, align 8, !dbg !2078
  call void @llvm.dbg.declare(metadata { [0 x i8]*, i64 }* %err.dbg.spill, metadata !2045, metadata !DIExpression()), !dbg !2079
; call <str as core::fmt::Display>::fmt
  %39 = call zeroext i1 @"_ZN42_$LT$str$u20$as$u20$core..fmt..Display$GT$3fmt17hab83556372ca0523E"([0 x i8]* align 1 %err.0, i64 %err.1, %"core::fmt::Formatter"* align 8 %f), !dbg !2080
  %40 = zext i1 %39 to i8, !dbg !2080
  store i8 %40, i8* %0, align 1, !dbg !2080
  br label %bb18, !dbg !2080

bb7:                                              ; preds = %bb4
  %41 = bitcast [1 x { i8*, i64* }]* %_26 to { i8*, i64* }*, !dbg !2077
  %42 = getelementptr inbounds { i8*, i64* }, { i8*, i64* }* %41, i32 0, i32 0, !dbg !2077
  store i8* %_27.0, i8** %42, align 8, !dbg !2077
  %43 = getelementptr inbounds { i8*, i64* }, { i8*, i64* }* %41, i32 0, i32 1, !dbg !2077
  store i64* %_27.1, i64** %43, align 8, !dbg !2077
  %_23.0 = bitcast [1 x { i8*, i64* }]* %_26 to [0 x { i8*, i64* }]*, !dbg !2077
; call core::fmt::Arguments::new_v1
  call void @_ZN4core3fmt9Arguments6new_v117h99be3332c30ef80dE(%"core::fmt::Arguments"* sret(%"core::fmt::Arguments") %_19, [0 x { [0 x i8]*, i64 }]* align 8 bitcast (<{ i8*, [8 x i8] }>* @alloc471 to [0 x { [0 x i8]*, i64 }]*), i64 1, [0 x { i8*, i64* }]* align 8 %_23.0, i64 1), !dbg !2077
  br label %bb8, !dbg !2077

bb8:                                              ; preds = %bb7
; call core::fmt::Formatter::write_fmt
  %result1 = call zeroext i1 @_ZN4core3fmt9Formatter9write_fmt17he08a9e8bf138b5a9E(%"core::fmt::Formatter"* align 8 %f, %"core::fmt::Arguments"* %_19), !dbg !2077
  %44 = zext i1 %result1 to i8, !dbg !2077
  store i8 %44, i8* %result.dbg.spill2, align 1, !dbg !2077
  call void @llvm.dbg.declare(metadata i8* %result.dbg.spill2, metadata !2047, metadata !DIExpression()), !dbg !2081
  br label %bb9, !dbg !2077

bb9:                                              ; preds = %bb8
  %45 = zext i1 %result1 to i8, !dbg !2081
  store i8 %45, i8* %0, align 1, !dbg !2081
  br label %bb18, !dbg !2077
}

; <getrandom::error::Error as core::convert::From<core::num::nonzero::NonZeroU32>>::from
; Function Attrs: nonlazybind uwtable
define i32 @"_ZN101_$LT$getrandom..error..Error$u20$as$u20$core..convert..From$LT$core..num..nonzero..NonZeroU32$GT$$GT$4from17h0eb9e723df6f3d9aE"(i32 %code) unnamed_addr #1 !dbg !2082 {
start:
  %code.dbg.spill = alloca i32, align 4
  %0 = alloca i32, align 4
  store i32 %code, i32* %code.dbg.spill, align 4
  call void @llvm.dbg.declare(metadata i32* %code.dbg.spill, metadata !2087, metadata !DIExpression()), !dbg !2088
  store i32 %code, i32* %0, align 4, !dbg !2089
  %1 = load i32, i32* %0, align 4, !dbg !2090, !range !512, !noundef !14
  ret i32 %1, !dbg !2090
}

; getrandom::error::internal_desc
; Function Attrs: nonlazybind uwtable
define internal { i8*, i64 } @_ZN9getrandom5error13internal_desc17h24d0b9a2cedfa6aaE(i32 %error) unnamed_addr #1 !dbg !2091 {
start:
  %error.dbg.spill = alloca i32, align 4
  %0 = alloca { i8*, i64 }, align 8
  store i32 %error, i32* %error.dbg.spill, align 4
  call void @llvm.dbg.declare(metadata i32* %error.dbg.spill, metadata !2095, metadata !DIExpression()), !dbg !2096
  switch i32 %error, label %bb1 [
    i32 -2147483648, label %bb2
    i32 -2147483647, label %bb3
    i32 -2147483646, label %bb4
    i32 -2147483645, label %bb5
    i32 -2147483644, label %bb6
    i32 -2147483643, label %bb7
    i32 -2147483642, label %bb8
    i32 -2147483641, label %bb9
    i32 -2147483640, label %bb10
    i32 -2147483637, label %bb11
    i32 -2147483636, label %bb12
    i32 -2147483635, label %bb13
    i32 -2147483634, label %bb14
  ], !dbg !2097

bb1:                                              ; preds = %start
  %1 = bitcast { i8*, i64 }* %0 to {}**, !dbg !2098
  store {}* null, {}** %1, align 8, !dbg !2098
  br label %bb15, !dbg !2098

bb2:                                              ; preds = %start
  %2 = bitcast { i8*, i64 }* %0 to { [0 x i8]*, i64 }*, !dbg !2099
  %3 = getelementptr inbounds { [0 x i8]*, i64 }, { [0 x i8]*, i64 }* %2, i32 0, i32 0, !dbg !2099
  store [0 x i8]* bitcast (<{ [39 x i8] }>* @alloc529 to [0 x i8]*), [0 x i8]** %3, align 8, !dbg !2099
  %4 = getelementptr inbounds { [0 x i8]*, i64 }, { [0 x i8]*, i64 }* %2, i32 0, i32 1, !dbg !2099
  store i64 39, i64* %4, align 8, !dbg !2099
  br label %bb15, !dbg !2100

bb3:                                              ; preds = %start
  %5 = bitcast { i8*, i64 }* %0 to { [0 x i8]*, i64 }*, !dbg !2101
  %6 = getelementptr inbounds { [0 x i8]*, i64 }, { [0 x i8]*, i64 }* %5, i32 0, i32 0, !dbg !2101
  store [0 x i8]* bitcast (<{ [38 x i8] }>* @alloc528 to [0 x i8]*), [0 x i8]** %6, align 8, !dbg !2101
  %7 = getelementptr inbounds { [0 x i8]*, i64 }, { [0 x i8]*, i64 }* %5, i32 0, i32 1, !dbg !2101
  store i64 38, i64* %7, align 8, !dbg !2101
  br label %bb15, !dbg !2102

bb4:                                              ; preds = %start
  %8 = bitcast { i8*, i64 }* %0 to { [0 x i8]*, i64 }*, !dbg !2103
  %9 = getelementptr inbounds { [0 x i8]*, i64 }, { [0 x i8]*, i64 }* %8, i32 0, i32 0, !dbg !2103
  store [0 x i8]* bitcast (<{ [20 x i8] }>* @alloc527 to [0 x i8]*), [0 x i8]** %9, align 8, !dbg !2103
  %10 = getelementptr inbounds { [0 x i8]*, i64 }, { [0 x i8]*, i64 }* %8, i32 0, i32 1, !dbg !2103
  store i64 20, i64* %10, align 8, !dbg !2103
  br label %bb15, !dbg !2104

bb5:                                              ; preds = %start
  %11 = bitcast { i8*, i64 }* %0 to { [0 x i8]*, i64 }*, !dbg !2105
  %12 = getelementptr inbounds { [0 x i8]*, i64 }, { [0 x i8]*, i64 }* %11, i32 0, i32 0, !dbg !2105
  store [0 x i8]* bitcast (<{ [50 x i8] }>* @alloc526 to [0 x i8]*), [0 x i8]** %12, align 8, !dbg !2105
  %13 = getelementptr inbounds { [0 x i8]*, i64 }, { [0 x i8]*, i64 }* %11, i32 0, i32 1, !dbg !2105
  store i64 50, i64* %13, align 8, !dbg !2105
  br label %bb15, !dbg !2106

bb6:                                              ; preds = %start
  %14 = bitcast { i8*, i64 }* %0 to { [0 x i8]*, i64 }*, !dbg !2107
  %15 = getelementptr inbounds { [0 x i8]*, i64 }, { [0 x i8]*, i64 }* %14, i32 0, i32 0, !dbg !2107
  store [0 x i8]* bitcast (<{ [45 x i8] }>* @alloc525 to [0 x i8]*), [0 x i8]** %15, align 8, !dbg !2107
  %16 = getelementptr inbounds { [0 x i8]*, i64 }, { [0 x i8]*, i64 }* %14, i32 0, i32 1, !dbg !2107
  store i64 45, i64* %16, align 8, !dbg !2107
  br label %bb15, !dbg !2108

bb7:                                              ; preds = %start
  %17 = bitcast { i8*, i64 }* %0 to { [0 x i8]*, i64 }*, !dbg !2109
  %18 = getelementptr inbounds { [0 x i8]*, i64 }, { [0 x i8]*, i64 }* %17, i32 0, i32 0, !dbg !2109
  store [0 x i8]* bitcast (<{ [47 x i8] }>* @alloc524 to [0 x i8]*), [0 x i8]** %18, align 8, !dbg !2109
  %19 = getelementptr inbounds { [0 x i8]*, i64 }, { [0 x i8]*, i64 }* %17, i32 0, i32 1, !dbg !2109
  store i64 47, i64* %19, align 8, !dbg !2109
  br label %bb15, !dbg !2110

bb8:                                              ; preds = %start
  %20 = bitcast { i8*, i64 }* %0 to { [0 x i8]*, i64 }*, !dbg !2111
  %21 = getelementptr inbounds { [0 x i8]*, i64 }, { [0 x i8]*, i64 }* %20, i32 0, i32 0, !dbg !2111
  store [0 x i8]* bitcast (<{ [33 x i8] }>* @alloc523 to [0 x i8]*), [0 x i8]** %21, align 8, !dbg !2111
  %22 = getelementptr inbounds { [0 x i8]*, i64 }, { [0 x i8]*, i64 }* %20, i32 0, i32 1, !dbg !2111
  store i64 33, i64* %22, align 8, !dbg !2111
  br label %bb15, !dbg !2112

bb9:                                              ; preds = %start
  %23 = bitcast { i8*, i64 }* %0 to { [0 x i8]*, i64 }*, !dbg !2113
  %24 = getelementptr inbounds { [0 x i8]*, i64 }, { [0 x i8]*, i64 }* %23, i32 0, i32 0, !dbg !2113
  store [0 x i8]* bitcast (<{ [29 x i8] }>* @alloc522 to [0 x i8]*), [0 x i8]** %24, align 8, !dbg !2113
  %25 = getelementptr inbounds { [0 x i8]*, i64 }, { [0 x i8]*, i64 }* %23, i32 0, i32 1, !dbg !2113
  store i64 29, i64* %25, align 8, !dbg !2113
  br label %bb15, !dbg !2114

bb10:                                             ; preds = %start
  %26 = bitcast { i8*, i64 }* %0 to { [0 x i8]*, i64 }*, !dbg !2115
  %27 = getelementptr inbounds { [0 x i8]*, i64 }, { [0 x i8]*, i64 }* %26, i32 0, i32 0, !dbg !2115
  store [0 x i8]* bitcast (<{ [45 x i8] }>* @alloc521 to [0 x i8]*), [0 x i8]** %27, align 8, !dbg !2115
  %28 = getelementptr inbounds { [0 x i8]*, i64 }, { [0 x i8]*, i64 }* %26, i32 0, i32 1, !dbg !2115
  store i64 45, i64* %28, align 8, !dbg !2115
  br label %bb15, !dbg !2116

bb11:                                             ; preds = %start
  %29 = bitcast { i8*, i64 }* %0 to { [0 x i8]*, i64 }*, !dbg !2117
  %30 = getelementptr inbounds { [0 x i8]*, i64 }, { [0 x i8]*, i64 }* %29, i32 0, i32 0, !dbg !2117
  store [0 x i8]* bitcast (<{ [49 x i8] }>* @alloc520 to [0 x i8]*), [0 x i8]** %30, align 8, !dbg !2117
  %31 = getelementptr inbounds { [0 x i8]*, i64 }, { [0 x i8]*, i64 }* %29, i32 0, i32 1, !dbg !2117
  store i64 49, i64* %31, align 8, !dbg !2117
  br label %bb15, !dbg !2118

bb12:                                             ; preds = %start
  %32 = bitcast { i8*, i64 }* %0 to { [0 x i8]*, i64 }*, !dbg !2119
  %33 = getelementptr inbounds { [0 x i8]*, i64 }, { [0 x i8]*, i64 }* %32, i32 0, i32 0, !dbg !2119
  store [0 x i8]* bitcast (<{ [45 x i8] }>* @alloc519 to [0 x i8]*), [0 x i8]** %33, align 8, !dbg !2119
  %34 = getelementptr inbounds { [0 x i8]*, i64 }, { [0 x i8]*, i64 }* %32, i32 0, i32 1, !dbg !2119
  store i64 45, i64* %34, align 8, !dbg !2119
  br label %bb15, !dbg !2120

bb13:                                             ; preds = %start
  %35 = bitcast { i8*, i64 }* %0 to { [0 x i8]*, i64 }*, !dbg !2121
  %36 = getelementptr inbounds { [0 x i8]*, i64 }, { [0 x i8]*, i64 }* %35, i32 0, i32 0, !dbg !2121
  store [0 x i8]* bitcast (<{ [48 x i8] }>* @alloc518 to [0 x i8]*), [0 x i8]** %36, align 8, !dbg !2121
  %37 = getelementptr inbounds { [0 x i8]*, i64 }, { [0 x i8]*, i64 }* %35, i32 0, i32 1, !dbg !2121
  store i64 48, i64* %37, align 8, !dbg !2121
  br label %bb15, !dbg !2122

bb14:                                             ; preds = %start
  %38 = bitcast { i8*, i64 }* %0 to { [0 x i8]*, i64 }*, !dbg !2123
  %39 = getelementptr inbounds { [0 x i8]*, i64 }, { [0 x i8]*, i64 }* %38, i32 0, i32 0, !dbg !2123
  store [0 x i8]* bitcast (<{ [101 x i8] }>* @alloc517 to [0 x i8]*), [0 x i8]** %39, align 8, !dbg !2123
  %40 = getelementptr inbounds { [0 x i8]*, i64 }, { [0 x i8]*, i64 }* %38, i32 0, i32 1, !dbg !2123
  store i64 101, i64* %40, align 8, !dbg !2123
  br label %bb15, !dbg !2124

bb15:                                             ; preds = %bb2, %bb3, %bb4, %bb5, %bb6, %bb7, %bb8, %bb9, %bb10, %bb11, %bb12, %bb13, %bb14, %bb1
  %41 = getelementptr inbounds { i8*, i64 }, { i8*, i64 }* %0, i32 0, i32 0, !dbg !2125
  %42 = load i8*, i8** %41, align 8, !dbg !2125, !align !425
  %43 = getelementptr inbounds { i8*, i64 }, { i8*, i64 }* %0, i32 0, i32 1, !dbg !2125
  %44 = load i64, i64* %43, align 8, !dbg !2125
  %45 = insertvalue { i8*, i64 } undef, i8* %42, 0, !dbg !2125
  %46 = insertvalue { i8*, i64 } %45, i64 %44, 1, !dbg !2125
  ret { i8*, i64 } %46, !dbg !2125
}

; getrandom::error::os_err
; Function Attrs: nonlazybind uwtable
define internal { i8*, i64 } @_ZN9getrandom5error6os_err17h51b90b33862fdeacE(i32 %errno, [0 x i8]* align 1 %buf.0, i64 %buf.1) unnamed_addr #1 !dbg !2126 {
start:
  %idx.dbg.spill = alloca i64, align 8
  %n.dbg.spill = alloca i64, align 8
  %buf_ptr.dbg.spill = alloca i8*, align 8
  %buf.dbg.spill = alloca { [0 x i8]*, i64 }, align 8
  %errno.dbg.spill = alloca i32, align 4
  %_25 = alloca i64, align 8
  %_20 = alloca %"core::result::Result<&str, core::str::error::Utf8Error>", align 8
  %_16 = alloca { i8*, i8* }, align 8
  %0 = alloca { i8*, i64 }, align 8
  store i32 %errno, i32* %errno.dbg.spill, align 4
  call void @llvm.dbg.declare(metadata i32* %errno.dbg.spill, metadata !2130, metadata !DIExpression()), !dbg !2140
  %1 = getelementptr inbounds { [0 x i8]*, i64 }, { [0 x i8]*, i64 }* %buf.dbg.spill, i32 0, i32 0
  store [0 x i8]* %buf.0, [0 x i8]** %1, align 8
  %2 = getelementptr inbounds { [0 x i8]*, i64 }, { [0 x i8]*, i64 }* %buf.dbg.spill, i32 0, i32 1
  store i64 %buf.1, i64* %2, align 8
  call void @llvm.dbg.declare(metadata { [0 x i8]*, i64 }* %buf.dbg.spill, metadata !2131, metadata !DIExpression()), !dbg !2141
; call core::slice::<impl [T]>::as_mut_ptr
  %_4 = call i8* @"_ZN4core5slice29_$LT$impl$u20$$u5b$T$u5d$$GT$10as_mut_ptr17h8ec28efa50643238E"([0 x i8]* align 1 %buf.0, i64 %buf.1), !dbg !2142, !rawptr !216
  br label %bb1, !dbg !2142

bb1:                                              ; preds = %start
  store i8* %_4, i8** %buf_ptr.dbg.spill, align 8, !dbg !2142
  call void @llvm.dbg.declare(metadata i8** %buf_ptr.dbg.spill, metadata !2132, metadata !DIExpression()), !dbg !2143
  %_6 = call i32 @__xpg_strerror_r(i32 %errno, i8* %_4, i64 %buf.1), !dbg !2144, !ydy.unsafe !14
  br label %bb2, !dbg !2144, !ydy.unsafe !14

bb2:                                              ; preds = %bb1
  %3 = icmp eq i32 %_6, 0, !dbg !2145
  br i1 %3, label %bb4, label %bb3, !dbg !2145

bb4:                                              ; preds = %bb2
  store i64 %buf.1, i64* %n.dbg.spill, align 8, !dbg !2146
  call void @llvm.dbg.declare(metadata i64* %n.dbg.spill, metadata !2136, metadata !DIExpression()), !dbg !2147
; call core::slice::<impl [T]>::iter
  %4 = call { i8*, i8* } @"_ZN4core5slice29_$LT$impl$u20$$u5b$T$u5d$$GT$4iter17h26b6b49c65305eb8E"([0 x i8]* align 1 %buf.0, i64 %buf.1), !dbg !2148
  store { i8*, i8* } %4, { i8*, i8* }* %_16, align 8, !dbg !2148
  br label %bb5, !dbg !2148

bb3:                                              ; preds = %bb2
  %5 = bitcast { i8*, i64 }* %0 to {}**, !dbg !2149
  store {}* null, {}** %5, align 8, !dbg !2149
  br label %bb10, !dbg !2150

bb10:                                             ; preds = %bb9, %bb3
  %6 = getelementptr inbounds { i8*, i64 }, { i8*, i64 }* %0, i32 0, i32 0, !dbg !2150
  %7 = load i8*, i8** %6, align 8, !dbg !2150, !align !425
  %8 = getelementptr inbounds { i8*, i64 }, { i8*, i64 }* %0, i32 0, i32 1, !dbg !2150
  %9 = load i64, i64* %8, align 8, !dbg !2150
  %10 = insertvalue { i8*, i64 } undef, i8* %7, 0, !dbg !2150
  %11 = insertvalue { i8*, i64 } %10, i64 %9, 1, !dbg !2150
  ret { i8*, i64 } %11, !dbg !2150

bb5:                                              ; preds = %bb4
; call <core::slice::iter::Iter<T> as core::iter::traits::iterator::Iterator>::position
  %12 = call { i64, i64 } @"_ZN91_$LT$core..slice..iter..Iter$LT$T$GT$$u20$as$u20$core..iter..traits..iterator..Iterator$GT$8position17hd8a827da3007692fE"({ i8*, i8* }* align 8 %_16), !dbg !2148
  %_14.0 = extractvalue { i64, i64 } %12, 0, !dbg !2148
  %_14.1 = extractvalue { i64, i64 } %12, 1, !dbg !2148
  br label %bb6, !dbg !2148

bb6:                                              ; preds = %bb5
; call core::option::Option<T>::unwrap_or
  %idx = call i64 @"_ZN4core6option15Option$LT$T$GT$9unwrap_or17h9eed97c586a82e77E"(i64 %_14.0, i64 %_14.1, i64 %buf.1), !dbg !2148
  store i64 %idx, i64* %idx.dbg.spill, align 8, !dbg !2148
  call void @llvm.dbg.declare(metadata i64* %idx.dbg.spill, metadata !2138, metadata !DIExpression()), !dbg !2151
  br label %bb7, !dbg !2148

bb7:                                              ; preds = %bb6
  store i64 %idx, i64* %_25, align 8, !dbg !2152
  %13 = load i64, i64* %_25, align 8, !dbg !2153
; call core::slice::index::<impl core::ops::index::Index<I> for [T]>::index
  %14 = call { [0 x i8]*, i64 } @"_ZN4core5slice5index74_$LT$impl$u20$core..ops..index..Index$LT$I$GT$$u20$for$u20$$u5b$T$u5d$$GT$5index17h1a32dd6a78db0114E"([0 x i8]* align 1 %buf.0, i64 %buf.1, i64 %13, %"core::panic::location::Location"* align 8 bitcast (<{ i8*, [16 x i8] }>* @alloc531 to %"core::panic::location::Location"*)), !dbg !2153
  %_23.0 = extractvalue { [0 x i8]*, i64 } %14, 0, !dbg !2153
  %_23.1 = extractvalue { [0 x i8]*, i64 } %14, 1, !dbg !2153
  br label %bb8, !dbg !2153

bb8:                                              ; preds = %bb7
; call core::str::converts::from_utf8
  call void @_ZN4core3str8converts9from_utf817ha505d97bf6980ce7E(%"core::result::Result<&str, core::str::error::Utf8Error>"* sret(%"core::result::Result<&str, core::str::error::Utf8Error>") %_20, [0 x i8]* align 1 %_23.0, i64 %_23.1), !dbg !2154
  br label %bb9, !dbg !2154

bb9:                                              ; preds = %bb8
; call core::result::Result<T,E>::ok
  %15 = call { i8*, i64 } @"_ZN4core6result19Result$LT$T$C$E$GT$2ok17he99ec388651ae613E"(%"core::result::Result<&str, core::str::error::Utf8Error>"* %_20), !dbg !2154
  store { i8*, i64 } %15, { i8*, i64 }* %0, align 8, !dbg !2154
  br label %bb10, !dbg !2154
}

; getrandom::error::os_err::{{closure}}
; Function Attrs: inlinehint nonlazybind uwtable
define internal zeroext i1 @"_ZN9getrandom5error6os_err28_$u7b$$u7b$closure$u7d$$u7d$17h2da3b514218c2ae8E"(%"[closure@/home/dy3199/.cargo/registry/src/github.com-1ecc6299db9ec823/getrandom-0.2.12/src/error.rs:109:43: 109:54]"* align 1 %_1, i8* align 1 %_2) unnamed_addr #0 !dbg !2155 {
start:
  %b.dbg.spill = alloca i8, align 1
  %_2.dbg.spill = alloca i8*, align 8
  %_1.dbg.spill = alloca %"[closure@/home/dy3199/.cargo/registry/src/github.com-1ecc6299db9ec823/getrandom-0.2.12/src/error.rs:109:43: 109:54]"*, align 8
  store %"[closure@/home/dy3199/.cargo/registry/src/github.com-1ecc6299db9ec823/getrandom-0.2.12/src/error.rs:109:43: 109:54]"* %_1, %"[closure@/home/dy3199/.cargo/registry/src/github.com-1ecc6299db9ec823/getrandom-0.2.12/src/error.rs:109:43: 109:54]"** %_1.dbg.spill, align 8
  call void @llvm.dbg.declare(metadata %"[closure@/home/dy3199/.cargo/registry/src/github.com-1ecc6299db9ec823/getrandom-0.2.12/src/error.rs:109:43: 109:54]"** %_1.dbg.spill, metadata !2162, metadata !DIExpression()), !dbg !2164
  store i8* %_2, i8** %_2.dbg.spill, align 8
  call void @llvm.dbg.declare(metadata i8** %_2.dbg.spill, metadata !2163, metadata !DIExpression()), !dbg !2165
  %b = load i8, i8* %_2, align 1, !dbg !2166
  store i8 %b, i8* %b.dbg.spill, align 1, !dbg !2166
  call void @llvm.dbg.declare(metadata i8* %b.dbg.spill, metadata !2160, metadata !DIExpression()), !dbg !2167
  %0 = icmp eq i8 %b, 0, !dbg !2168
  ret i1 %0, !dbg !2169
}

; getrandom::util_libc::last_os_error
; Function Attrs: nonlazybind uwtable
define internal i32 @_ZN9getrandom9util_libc13last_os_error17h6f36166cdc4a13d5E() unnamed_addr #1 !dbg !2170 {
start:
  %errno.dbg.spill = alloca i32, align 4
  %0 = alloca i32, align 4
; call getrandom::util_libc::get_errno
  %errno = call i32 @_ZN9getrandom9util_libc9get_errno17h6d1f65d3aae02f84E(), !dbg !2178, !ydy.unsafe !14
  store i32 %errno, i32* %errno.dbg.spill, align 4, !dbg !2178, !ydy.unsafe !14
  call void @llvm.dbg.declare(metadata i32* %errno.dbg.spill, metadata !2176, metadata !DIExpression()), !dbg !2179
  br label %bb1, !dbg !2178, !ydy.unsafe !14

bb1:                                              ; preds = %start
  %_2 = icmp sgt i32 %errno, 0, !dbg !2180
  br i1 %_2, label %bb2, label %bb5, !dbg !2180

bb5:                                              ; preds = %bb1
  store i32 -2147483647, i32* %0, align 4, !dbg !2181
  br label %bb6, !dbg !2182

bb2:                                              ; preds = %bb1
; call core::num::nonzero::NonZeroU32::new
  %_5 = call i32 @_ZN4core3num7nonzero10NonZeroU323new17h3d281125d7b2b545E(i32 %errno), !dbg !2183
  br label %bb3, !dbg !2183

bb3:                                              ; preds = %bb2
; call core::option::Option<T>::unwrap
  %_4 = call i32 @"_ZN4core6option15Option$LT$T$GT$6unwrap17h367630f374e1a27bE"(i32 %_5, %"core::panic::location::Location"* align 8 bitcast (<{ i8*, [16 x i8] }>* @alloc533 to %"core::panic::location::Location"*)), !dbg !2183, !range !512
  br label %bb4, !dbg !2183

bb4:                                              ; preds = %bb3
; call <getrandom::error::Error as core::convert::From<core::num::nonzero::NonZeroU32>>::from
  %1 = call i32 @"_ZN101_$LT$getrandom..error..Error$u20$as$u20$core..convert..From$LT$core..num..nonzero..NonZeroU32$GT$$GT$4from17h0eb9e723df6f3d9aE"(i32 %_4), !dbg !2184, !range !512
  store i32 %1, i32* %0, align 4, !dbg !2184
  br label %bb6, !dbg !2184

bb6:                                              ; preds = %bb5, %bb4
  %2 = load i32, i32* %0, align 4, !dbg !2185, !range !512, !noundef !14
  ret i32 %2, !dbg !2185
}

; getrandom::util_libc::sys_fill_exact
; Function Attrs: nonlazybind uwtable
define internal i32 @_ZN9getrandom9util_libc14sys_fill_exact17h77389c879cb5cb28E([0 x i8]* align 1 %0, i64 %1, i32* align 4 %2) unnamed_addr #1 personality i32 (...)* @rust_eh_personality !dbg !2186 {
start:
  %err.dbg.spill = alloca i32, align 4
  %val.dbg.spill = alloca { [0 x i8]*, i64 }, align 8
  %residual.dbg.spill = alloca i32, align 4
  %res.dbg.spill2 = alloca i64, align 8
  %res.dbg.spill = alloca i64*, align 8
  %3 = alloca { i8*, i32 }, align 8
  %_30 = alloca { i32, i32 }, align 4
  %_20 = alloca i64, align 8
  %_17 = alloca %"core::result::Result<&mut [core::mem::maybe_uninit::MaybeUninit<u8>], error::Error>", align 8
  %_16 = alloca %"core::ops::control_flow::ControlFlow<core::result::Result<core::convert::Infallible, error::Error>, &mut [core::mem::maybe_uninit::MaybeUninit<u8>]>", align 8
  %_8 = alloca { i8*, i64 }, align 8
  %res = alloca i64, align 8
  %4 = alloca i32, align 4
  %sys_fill = alloca i32*, align 8
  %buf = alloca { [0 x i8]*, i64 }, align 8
  %5 = getelementptr inbounds { [0 x i8]*, i64 }, { [0 x i8]*, i64 }* %buf, i32 0, i32 0
  store [0 x i8]* %0, [0 x i8]** %5, align 8
  %6 = getelementptr inbounds { [0 x i8]*, i64 }, { [0 x i8]*, i64 }* %buf, i32 0, i32 1
  store i64 %1, i64* %6, align 8
  store i32* %2, i32** %sys_fill, align 8
  call void @llvm.dbg.declare(metadata { [0 x i8]*, i64 }* %buf, metadata !2194, metadata !DIExpression()), !dbg !2210
  call void @llvm.dbg.declare(metadata i32** %sys_fill, metadata !2195, metadata !DIExpression()), !dbg !2211
  call void @llvm.dbg.declare(metadata i64* %res, metadata !2196, metadata !DIExpression()), !dbg !2212
  br label %bb1, !dbg !2213

bb1:                                              ; preds = %bb17, %bb11, %start
  %7 = getelementptr inbounds { [0 x i8]*, i64 }, { [0 x i8]*, i64 }* %buf, i32 0, i32 0, !dbg !2214
  %_5.0 = load [0 x i8]*, [0 x i8]** %7, align 8, !dbg !2214, !nonnull !14, !align !425, !noundef !14
  %8 = getelementptr inbounds { [0 x i8]*, i64 }, { [0 x i8]*, i64 }* %buf, i32 0, i32 1, !dbg !2214
  %_5.1 = load i64, i64* %8, align 8, !dbg !2214
; invoke core::slice::<impl [T]>::is_empty
  %_4 = invoke zeroext i1 @"_ZN4core5slice29_$LT$impl$u20$$u5b$T$u5d$$GT$8is_empty17h46cba06d32fba3b8E"([0 x i8]* align 1 %_5.0, i64 %_5.1)
          to label %bb2 unwind label %cleanup, !dbg !2214

bb22:                                             ; preds = %cleanup
  br label %bb23, !dbg !2215

cleanup:                                          ; preds = %bb16, %bb15, %bb14, %bb13, %bb9, %bb8, %bb6, %bb3, %bb1
  %9 = landingpad { i8*, i32 }
          cleanup
  %10 = extractvalue { i8*, i32 } %9, 0
  %11 = extractvalue { i8*, i32 } %9, 1
  %12 = getelementptr inbounds { i8*, i32 }, { i8*, i32 }* %3, i32 0, i32 0
  store i8* %10, i8** %12, align 8
  %13 = getelementptr inbounds { i8*, i32 }, { i8*, i32 }* %3, i32 0, i32 1
  store i32 %11, i32* %13, align 8
  br label %bb22

bb2:                                              ; preds = %bb1
  %_3 = xor i1 %_4, true, !dbg !2216
  br i1 %_3, label %bb3, label %bb19, !dbg !2216

bb19:                                             ; preds = %bb2
  store i32 0, i32* %4, align 4, !dbg !2217
  br label %bb21, !dbg !2215

bb3:                                              ; preds = %bb2
  %14 = getelementptr inbounds { [0 x i8]*, i64 }, { [0 x i8]*, i64 }* %buf, i32 0, i32 0, !dbg !2218
  %_9.0 = load [0 x i8]*, [0 x i8]** %14, align 8, !dbg !2218, !nonnull !14, !align !425, !noundef !14
  %15 = getelementptr inbounds { [0 x i8]*, i64 }, { [0 x i8]*, i64 }* %buf, i32 0, i32 1, !dbg !2218
  %_9.1 = load i64, i64* %15, align 8, !dbg !2218
  %16 = bitcast { i8*, i64 }* %_8 to { [0 x i8]*, i64 }*, !dbg !2219
  %17 = getelementptr inbounds { [0 x i8]*, i64 }, { [0 x i8]*, i64 }* %16, i32 0, i32 0, !dbg !2219
  store [0 x i8]* %_9.0, [0 x i8]** %17, align 8, !dbg !2219
  %18 = getelementptr inbounds { [0 x i8]*, i64 }, { [0 x i8]*, i64 }* %16, i32 0, i32 1, !dbg !2219
  store i64 %_9.1, i64* %18, align 8, !dbg !2219
  %19 = getelementptr inbounds { i8*, i64 }, { i8*, i64 }* %_8, i32 0, i32 0, !dbg !2219
  %20 = load i8*, i8** %19, align 8, !dbg !2219, !nonnull !14, !align !425, !noundef !14
  %21 = getelementptr inbounds { i8*, i64 }, { i8*, i64 }* %_8, i32 0, i32 1, !dbg !2219
  %22 = load i64, i64* %21, align 8, !dbg !2219
  %23 = bitcast i8* %20 to [0 x i8]*, !dbg !2219
; invoke getrandom::use_file::getrandom_inner::{{closure}}
  %24 = invoke i64 @"_ZN9getrandom8use_file15getrandom_inner28_$u7b$$u7b$closure$u7d$$u7d$17h9fba8f4e26f4c1ecE"(i32** align 8 %sys_fill, [0 x i8]* align 1 %23, i64 %22)
          to label %bb4 unwind label %cleanup, !dbg !2219

bb4:                                              ; preds = %bb3
  store i64 %24, i64* %res, align 8, !dbg !2219
  store i64* %res, i64** %res.dbg.spill, align 8, !dbg !2220
  call void @llvm.dbg.declare(metadata i64** %res.dbg.spill, metadata !2200, metadata !DIExpression()), !dbg !2221
  %_13 = load i64, i64* %res, align 8, !dbg !2222
  %_12 = icmp sgt i64 %_13, 0, !dbg !2222
  br i1 %_12, label %bb6, label %bb7, !dbg !2222

bb7:                                              ; preds = %bb4
  %25 = load i64, i64* %res, align 8, !dbg !2223
  %26 = icmp eq i64 %25, -1, !dbg !2223
  br i1 %26, label %bb14, label %bb5, !dbg !2223

bb6:                                              ; preds = %bb4
  %res1 = load i64, i64* %res, align 8, !dbg !2220
  store i64 %res1, i64* %res.dbg.spill2, align 8, !dbg !2220
  call void @llvm.dbg.declare(metadata i64* %res.dbg.spill2, metadata !2198, metadata !DIExpression()), !dbg !2221
  %27 = getelementptr inbounds { [0 x i8]*, i64 }, { [0 x i8]*, i64 }* %buf, i32 0, i32 0, !dbg !2224
  %_19.0 = load [0 x i8]*, [0 x i8]** %27, align 8, !dbg !2224, !nonnull !14, !align !425, !noundef !14
  %28 = getelementptr inbounds { [0 x i8]*, i64 }, { [0 x i8]*, i64 }* %buf, i32 0, i32 1, !dbg !2224
  %_19.1 = load i64, i64* %28, align 8, !dbg !2224
  store i64 %res1, i64* %_20, align 8, !dbg !2225
  %29 = load i64, i64* %_20, align 8, !dbg !2224
; invoke core::slice::<impl [T]>::get_mut
  %30 = invoke { i8*, i64 } @"_ZN4core5slice29_$LT$impl$u20$$u5b$T$u5d$$GT$7get_mut17h84212123bcce0656E"([0 x i8]* align 1 %_19.0, i64 %_19.1, i64 %29)
          to label %bb8 unwind label %cleanup, !dbg !2224

bb8:                                              ; preds = %bb6
  %_18.0 = extractvalue { i8*, i64 } %30, 0, !dbg !2224
  %_18.1 = extractvalue { i8*, i64 } %30, 1, !dbg !2224
; invoke core::option::Option<T>::ok_or
  invoke void @"_ZN4core6option15Option$LT$T$GT$5ok_or17hfc87e3997bccc8f4E"(%"core::result::Result<&mut [core::mem::maybe_uninit::MaybeUninit<u8>], error::Error>"* sret(%"core::result::Result<&mut [core::mem::maybe_uninit::MaybeUninit<u8>], error::Error>") %_17, i8* align 1 %_18.0, i64 %_18.1, i32 -2147483646)
          to label %bb9 unwind label %cleanup, !dbg !2224

bb9:                                              ; preds = %bb8
; invoke <core::result::Result<T,E> as core::ops::try_trait::Try>::branch
  invoke void @"_ZN79_$LT$core..result..Result$LT$T$C$E$GT$$u20$as$u20$core..ops..try_trait..Try$GT$6branch17he7db1f68fd08b894E"(%"core::ops::control_flow::ControlFlow<core::result::Result<core::convert::Infallible, error::Error>, &mut [core::mem::maybe_uninit::MaybeUninit<u8>]>"* sret(%"core::ops::control_flow::ControlFlow<core::result::Result<core::convert::Infallible, error::Error>, &mut [core::mem::maybe_uninit::MaybeUninit<u8>]>") %_16, %"core::result::Result<&mut [core::mem::maybe_uninit::MaybeUninit<u8>], error::Error>"* %_17)
          to label %bb10 unwind label %cleanup, !dbg !2224

bb10:                                             ; preds = %bb9
  %31 = bitcast %"core::ops::control_flow::ControlFlow<core::result::Result<core::convert::Infallible, error::Error>, &mut [core::mem::maybe_uninit::MaybeUninit<u8>]>"* %_16 to i32*, !dbg !2224
  %32 = load i32, i32* %31, align 8, !dbg !2224, !range !1576, !noundef !14
  %_23 = zext i32 %32 to i64, !dbg !2224
  switch i64 %_23, label %bb12 [
    i64 0, label %bb11
    i64 1, label %bb13
  ], !dbg !2224

bb12:                                             ; preds = %bb10
  unreachable, !dbg !2224

bb11:                                             ; preds = %bb10
  %33 = bitcast %"core::ops::control_flow::ControlFlow<core::result::Result<core::convert::Infallible, error::Error>, &mut [core::mem::maybe_uninit::MaybeUninit<u8>]>"* %_16 to %"core::ops::control_flow::ControlFlow<core::result::Result<core::convert::Infallible, error::Error>, &mut [core::mem::maybe_uninit::MaybeUninit<u8>]>::Continue"*, !dbg !2224
  %34 = getelementptr inbounds %"core::ops::control_flow::ControlFlow<core::result::Result<core::convert::Infallible, error::Error>, &mut [core::mem::maybe_uninit::MaybeUninit<u8>]>::Continue", %"core::ops::control_flow::ControlFlow<core::result::Result<core::convert::Infallible, error::Error>, &mut [core::mem::maybe_uninit::MaybeUninit<u8>]>::Continue"* %33, i32 0, i32 1, !dbg !2224
  %35 = getelementptr inbounds { [0 x i8]*, i64 }, { [0 x i8]*, i64 }* %34, i32 0, i32 0, !dbg !2224
  %val.0 = load [0 x i8]*, [0 x i8]** %35, align 8, !dbg !2224, !nonnull !14, !align !425, !noundef !14
  %36 = getelementptr inbounds { [0 x i8]*, i64 }, { [0 x i8]*, i64 }* %34, i32 0, i32 1, !dbg !2224
  %val.1 = load i64, i64* %36, align 8, !dbg !2224
  %37 = getelementptr inbounds { [0 x i8]*, i64 }, { [0 x i8]*, i64 }* %val.dbg.spill, i32 0, i32 0, !dbg !2224
  store [0 x i8]* %val.0, [0 x i8]** %37, align 8, !dbg !2224
  %38 = getelementptr inbounds { [0 x i8]*, i64 }, { [0 x i8]*, i64 }* %val.dbg.spill, i32 0, i32 1, !dbg !2224
  store i64 %val.1, i64* %38, align 8, !dbg !2224
  call void @llvm.dbg.declare(metadata { [0 x i8]*, i64 }* %val.dbg.spill, metadata !2204, metadata !DIExpression()), !dbg !2226
  %39 = getelementptr inbounds { [0 x i8]*, i64 }, { [0 x i8]*, i64 }* %buf, i32 0, i32 0, !dbg !2227
  store [0 x i8]* %val.0, [0 x i8]** %39, align 8, !dbg !2227
  %40 = getelementptr inbounds { [0 x i8]*, i64 }, { [0 x i8]*, i64 }* %buf, i32 0, i32 1, !dbg !2227
  store i64 %val.1, i64* %40, align 8, !dbg !2227
  br label %bb1, !dbg !2228

bb13:                                             ; preds = %bb10
  %41 = bitcast %"core::ops::control_flow::ControlFlow<core::result::Result<core::convert::Infallible, error::Error>, &mut [core::mem::maybe_uninit::MaybeUninit<u8>]>"* %_16 to %"core::ops::control_flow::ControlFlow<core::result::Result<core::convert::Infallible, error::Error>, &mut [core::mem::maybe_uninit::MaybeUninit<u8>]>::Break"*, !dbg !2229
  %42 = getelementptr inbounds %"core::ops::control_flow::ControlFlow<core::result::Result<core::convert::Infallible, error::Error>, &mut [core::mem::maybe_uninit::MaybeUninit<u8>]>::Break", %"core::ops::control_flow::ControlFlow<core::result::Result<core::convert::Infallible, error::Error>, &mut [core::mem::maybe_uninit::MaybeUninit<u8>]>::Break"* %41, i32 0, i32 1, !dbg !2229
  %residual = load i32, i32* %42, align 4, !dbg !2229, !range !512, !noundef !14
  store i32 %residual, i32* %residual.dbg.spill, align 4, !dbg !2229
  call void @llvm.dbg.declare(metadata i32* %residual.dbg.spill, metadata !2202, metadata !DIExpression()), !dbg !2230
; invoke <core::result::Result<T,F> as core::ops::try_trait::FromResidual<core::result::Result<core::convert::Infallible,E>>>::from_residual
  %43 = invoke i32 @"_ZN153_$LT$core..result..Result$LT$T$C$F$GT$$u20$as$u20$core..ops..try_trait..FromResidual$LT$core..result..Result$LT$core..convert..Infallible$C$E$GT$$GT$$GT$13from_residual17h5adb134252c2789cE"(i32 %residual, %"core::panic::location::Location"* align 8 bitcast (<{ i8*, [16 x i8] }>* @alloc535 to %"core::panic::location::Location"*))
          to label %bb24 unwind label %cleanup, !dbg !2231

bb24:                                             ; preds = %bb13
  store i32 %43, i32* %4, align 4, !dbg !2231
  br label %bb20, !dbg !2231

bb20:                                             ; preds = %bb18, %bb5, %bb24
  br label %bb21, !dbg !2215

bb14:                                             ; preds = %bb7
; invoke getrandom::util_libc::last_os_error
  %err = invoke i32 @_ZN9getrandom9util_libc13last_os_error17h6f36166cdc4a13d5E()
          to label %bb15 unwind label %cleanup, !dbg !2232, !range !512

bb5:                                              ; preds = %bb7
  store i32 -2147483646, i32* %4, align 4, !dbg !2233
  br label %bb20, !dbg !2234

bb15:                                             ; preds = %bb14
  store i32 %err, i32* %err.dbg.spill, align 4, !dbg !2232
  call void @llvm.dbg.declare(metadata i32* %err.dbg.spill, metadata !2206, metadata !DIExpression()), !dbg !2235
; invoke getrandom::error::Error::raw_os_error
  %44 = invoke { i32, i32 } @_ZN9getrandom5error5Error12raw_os_error17h676035f180230194E(i32 %err)
          to label %bb16 unwind label %cleanup, !dbg !2236

bb16:                                             ; preds = %bb15
  store { i32, i32 } %44, { i32, i32 }* %_30, align 4, !dbg !2236
; invoke <core::option::Option<T> as core::cmp::PartialEq>::ne
  %_28 = invoke zeroext i1 @"_ZN70_$LT$core..option..Option$LT$T$GT$$u20$as$u20$core..cmp..PartialEq$GT$2ne17hf0c1c200d25f93f0E"({ i32, i32 }* align 4 %_30, { i32, i32 }* align 4 bitcast (<{ [8 x i8] }>* @alloc328 to { i32, i32 }*))
          to label %bb17 unwind label %cleanup, !dbg !2236

bb17:                                             ; preds = %bb16
  br i1 %_28, label %bb18, label %bb1, !dbg !2236

bb23:                                             ; preds = %bb22
  %45 = bitcast { i8*, i32 }* %3 to i8**, !dbg !2237
  %46 = load i8*, i8** %45, align 8, !dbg !2237
  %47 = getelementptr inbounds { i8*, i32 }, { i8*, i32 }* %3, i32 0, i32 1, !dbg !2237
  %48 = load i32, i32* %47, align 8, !dbg !2237
  %49 = insertvalue { i8*, i32 } undef, i8* %46, 0, !dbg !2237
  %50 = insertvalue { i8*, i32 } %49, i32 %48, 1, !dbg !2237
  resume { i8*, i32 } %50, !dbg !2237

bb18:                                             ; preds = %bb17
  store i32 %err, i32* %4, align 4, !dbg !2238
  br label %bb20, !dbg !2239

bb21:                                             ; preds = %bb19, %bb20
  %51 = load i32, i32* %4, align 4, !dbg !2242
  ret i32 %51, !dbg !2242
}

; getrandom::util_libc::sys_fill_exact
; Function Attrs: nonlazybind uwtable
define internal i32 @_ZN9getrandom9util_libc14sys_fill_exact17hfcd198c9adc4748dE([0 x i8]* align 1 %0, i64 %1) unnamed_addr #1 personality i32 (...)* @rust_eh_personality !dbg !2243 {
start:
  %err.dbg.spill = alloca i32, align 4
  %val.dbg.spill = alloca { [0 x i8]*, i64 }, align 8
  %residual.dbg.spill = alloca i32, align 4
  %res.dbg.spill2 = alloca i64, align 8
  %res.dbg.spill = alloca i64*, align 8
  %2 = alloca { i8*, i32 }, align 8
  %_30 = alloca { i32, i32 }, align 4
  %_20 = alloca i64, align 8
  %_17 = alloca %"core::result::Result<&mut [core::mem::maybe_uninit::MaybeUninit<u8>], error::Error>", align 8
  %_16 = alloca %"core::ops::control_flow::ControlFlow<core::result::Result<core::convert::Infallible, error::Error>, &mut [core::mem::maybe_uninit::MaybeUninit<u8>]>", align 8
  %_8 = alloca { i8*, i64 }, align 8
  %res = alloca i64, align 8
  %3 = alloca i32, align 4
  %sys_fill = alloca %"[closure@/home/dy3199/.cargo/registry/src/github.com-1ecc6299db9ec823/getrandom-0.2.12/src/linux_android.rs:13:30: 15:10]", align 1
  %buf = alloca { [0 x i8]*, i64 }, align 8
  %4 = getelementptr inbounds { [0 x i8]*, i64 }, { [0 x i8]*, i64 }* %buf, i32 0, i32 0
  store [0 x i8]* %0, [0 x i8]** %4, align 8
  %5 = getelementptr inbounds { [0 x i8]*, i64 }, { [0 x i8]*, i64 }* %buf, i32 0, i32 1
  store i64 %1, i64* %5, align 8
  call void @llvm.dbg.declare(metadata { [0 x i8]*, i64 }* %buf, metadata !2248, metadata !DIExpression()), !dbg !2263
  call void @llvm.dbg.declare(metadata %"[closure@/home/dy3199/.cargo/registry/src/github.com-1ecc6299db9ec823/getrandom-0.2.12/src/linux_android.rs:13:30: 15:10]"* %sys_fill, metadata !2249, metadata !DIExpression()), !dbg !2264
  call void @llvm.dbg.declare(metadata i64* %res, metadata !2250, metadata !DIExpression()), !dbg !2265
  br label %bb1, !dbg !2266

bb1:                                              ; preds = %bb17, %bb11, %start
  %6 = getelementptr inbounds { [0 x i8]*, i64 }, { [0 x i8]*, i64 }* %buf, i32 0, i32 0, !dbg !2267
  %_5.0 = load [0 x i8]*, [0 x i8]** %6, align 8, !dbg !2267, !nonnull !14, !align !425, !noundef !14
  %7 = getelementptr inbounds { [0 x i8]*, i64 }, { [0 x i8]*, i64 }* %buf, i32 0, i32 1, !dbg !2267
  %_5.1 = load i64, i64* %7, align 8, !dbg !2267
; invoke core::slice::<impl [T]>::is_empty
  %_4 = invoke zeroext i1 @"_ZN4core5slice29_$LT$impl$u20$$u5b$T$u5d$$GT$8is_empty17h46cba06d32fba3b8E"([0 x i8]* align 1 %_5.0, i64 %_5.1)
          to label %bb2 unwind label %cleanup, !dbg !2267

bb22:                                             ; preds = %cleanup
  br label %bb23, !dbg !2268

cleanup:                                          ; preds = %bb16, %bb15, %bb14, %bb13, %bb9, %bb8, %bb6, %bb3, %bb1
  %8 = landingpad { i8*, i32 }
          cleanup
  %9 = extractvalue { i8*, i32 } %8, 0
  %10 = extractvalue { i8*, i32 } %8, 1
  %11 = getelementptr inbounds { i8*, i32 }, { i8*, i32 }* %2, i32 0, i32 0
  store i8* %9, i8** %11, align 8
  %12 = getelementptr inbounds { i8*, i32 }, { i8*, i32 }* %2, i32 0, i32 1
  store i32 %10, i32* %12, align 8
  br label %bb22

bb2:                                              ; preds = %bb1
  %_3 = xor i1 %_4, true, !dbg !2269
  br i1 %_3, label %bb3, label %bb19, !dbg !2269

bb19:                                             ; preds = %bb2
  store i32 0, i32* %3, align 4, !dbg !2270
  br label %bb21, !dbg !2268

bb3:                                              ; preds = %bb2
  %13 = getelementptr inbounds { [0 x i8]*, i64 }, { [0 x i8]*, i64 }* %buf, i32 0, i32 0, !dbg !2271
  %_9.0 = load [0 x i8]*, [0 x i8]** %13, align 8, !dbg !2271, !nonnull !14, !align !425, !noundef !14
  %14 = getelementptr inbounds { [0 x i8]*, i64 }, { [0 x i8]*, i64 }* %buf, i32 0, i32 1, !dbg !2271
  %_9.1 = load i64, i64* %14, align 8, !dbg !2271
  %15 = bitcast { i8*, i64 }* %_8 to { [0 x i8]*, i64 }*, !dbg !2272
  %16 = getelementptr inbounds { [0 x i8]*, i64 }, { [0 x i8]*, i64 }* %15, i32 0, i32 0, !dbg !2272
  store [0 x i8]* %_9.0, [0 x i8]** %16, align 8, !dbg !2272
  %17 = getelementptr inbounds { [0 x i8]*, i64 }, { [0 x i8]*, i64 }* %15, i32 0, i32 1, !dbg !2272
  store i64 %_9.1, i64* %17, align 8, !dbg !2272
  %18 = getelementptr inbounds { i8*, i64 }, { i8*, i64 }* %_8, i32 0, i32 0, !dbg !2272
  %19 = load i8*, i8** %18, align 8, !dbg !2272, !nonnull !14, !align !425, !noundef !14
  %20 = getelementptr inbounds { i8*, i64 }, { i8*, i64 }* %_8, i32 0, i32 1, !dbg !2272
  %21 = load i64, i64* %20, align 8, !dbg !2272
  %22 = bitcast i8* %19 to [0 x i8]*, !dbg !2272
; invoke getrandom::imp::getrandom_inner::{{closure}}
  %23 = invoke i64 @"_ZN9getrandom3imp15getrandom_inner28_$u7b$$u7b$closure$u7d$$u7d$17hacf985d8ef96e4bfE"(%"[closure@/home/dy3199/.cargo/registry/src/github.com-1ecc6299db9ec823/getrandom-0.2.12/src/linux_android.rs:13:30: 15:10]"* align 1 %sys_fill, [0 x i8]* align 1 %22, i64 %21)
          to label %bb4 unwind label %cleanup, !dbg !2272

bb4:                                              ; preds = %bb3
  store i64 %23, i64* %res, align 8, !dbg !2272
  store i64* %res, i64** %res.dbg.spill, align 8, !dbg !2273
  call void @llvm.dbg.declare(metadata i64** %res.dbg.spill, metadata !2254, metadata !DIExpression()), !dbg !2274
  %_13 = load i64, i64* %res, align 8, !dbg !2275
  %_12 = icmp sgt i64 %_13, 0, !dbg !2275
  br i1 %_12, label %bb6, label %bb7, !dbg !2275

bb7:                                              ; preds = %bb4
  %24 = load i64, i64* %res, align 8, !dbg !2276
  %25 = icmp eq i64 %24, -1, !dbg !2276
  br i1 %25, label %bb14, label %bb5, !dbg !2276

bb6:                                              ; preds = %bb4
  %res1 = load i64, i64* %res, align 8, !dbg !2273
  store i64 %res1, i64* %res.dbg.spill2, align 8, !dbg !2273
  call void @llvm.dbg.declare(metadata i64* %res.dbg.spill2, metadata !2252, metadata !DIExpression()), !dbg !2274
  %26 = getelementptr inbounds { [0 x i8]*, i64 }, { [0 x i8]*, i64 }* %buf, i32 0, i32 0, !dbg !2277
  %_19.0 = load [0 x i8]*, [0 x i8]** %26, align 8, !dbg !2277, !nonnull !14, !align !425, !noundef !14
  %27 = getelementptr inbounds { [0 x i8]*, i64 }, { [0 x i8]*, i64 }* %buf, i32 0, i32 1, !dbg !2277
  %_19.1 = load i64, i64* %27, align 8, !dbg !2277
  store i64 %res1, i64* %_20, align 8, !dbg !2278
  %28 = load i64, i64* %_20, align 8, !dbg !2277
; invoke core::slice::<impl [T]>::get_mut
  %29 = invoke { i8*, i64 } @"_ZN4core5slice29_$LT$impl$u20$$u5b$T$u5d$$GT$7get_mut17h84212123bcce0656E"([0 x i8]* align 1 %_19.0, i64 %_19.1, i64 %28)
          to label %bb8 unwind label %cleanup, !dbg !2277

bb8:                                              ; preds = %bb6
  %_18.0 = extractvalue { i8*, i64 } %29, 0, !dbg !2277
  %_18.1 = extractvalue { i8*, i64 } %29, 1, !dbg !2277
; invoke core::option::Option<T>::ok_or
  invoke void @"_ZN4core6option15Option$LT$T$GT$5ok_or17hfc87e3997bccc8f4E"(%"core::result::Result<&mut [core::mem::maybe_uninit::MaybeUninit<u8>], error::Error>"* sret(%"core::result::Result<&mut [core::mem::maybe_uninit::MaybeUninit<u8>], error::Error>") %_17, i8* align 1 %_18.0, i64 %_18.1, i32 -2147483646)
          to label %bb9 unwind label %cleanup, !dbg !2277

bb9:                                              ; preds = %bb8
; invoke <core::result::Result<T,E> as core::ops::try_trait::Try>::branch
  invoke void @"_ZN79_$LT$core..result..Result$LT$T$C$E$GT$$u20$as$u20$core..ops..try_trait..Try$GT$6branch17he7db1f68fd08b894E"(%"core::ops::control_flow::ControlFlow<core::result::Result<core::convert::Infallible, error::Error>, &mut [core::mem::maybe_uninit::MaybeUninit<u8>]>"* sret(%"core::ops::control_flow::ControlFlow<core::result::Result<core::convert::Infallible, error::Error>, &mut [core::mem::maybe_uninit::MaybeUninit<u8>]>") %_16, %"core::result::Result<&mut [core::mem::maybe_uninit::MaybeUninit<u8>], error::Error>"* %_17)
          to label %bb10 unwind label %cleanup, !dbg !2277

bb10:                                             ; preds = %bb9
  %30 = bitcast %"core::ops::control_flow::ControlFlow<core::result::Result<core::convert::Infallible, error::Error>, &mut [core::mem::maybe_uninit::MaybeUninit<u8>]>"* %_16 to i32*, !dbg !2277
  %31 = load i32, i32* %30, align 8, !dbg !2277, !range !1576, !noundef !14
  %_23 = zext i32 %31 to i64, !dbg !2277
  switch i64 %_23, label %bb12 [
    i64 0, label %bb11
    i64 1, label %bb13
  ], !dbg !2277

bb12:                                             ; preds = %bb10
  unreachable, !dbg !2277

bb11:                                             ; preds = %bb10
  %32 = bitcast %"core::ops::control_flow::ControlFlow<core::result::Result<core::convert::Infallible, error::Error>, &mut [core::mem::maybe_uninit::MaybeUninit<u8>]>"* %_16 to %"core::ops::control_flow::ControlFlow<core::result::Result<core::convert::Infallible, error::Error>, &mut [core::mem::maybe_uninit::MaybeUninit<u8>]>::Continue"*, !dbg !2277
  %33 = getelementptr inbounds %"core::ops::control_flow::ControlFlow<core::result::Result<core::convert::Infallible, error::Error>, &mut [core::mem::maybe_uninit::MaybeUninit<u8>]>::Continue", %"core::ops::control_flow::ControlFlow<core::result::Result<core::convert::Infallible, error::Error>, &mut [core::mem::maybe_uninit::MaybeUninit<u8>]>::Continue"* %32, i32 0, i32 1, !dbg !2277
  %34 = getelementptr inbounds { [0 x i8]*, i64 }, { [0 x i8]*, i64 }* %33, i32 0, i32 0, !dbg !2277
  %val.0 = load [0 x i8]*, [0 x i8]** %34, align 8, !dbg !2277, !nonnull !14, !align !425, !noundef !14
  %35 = getelementptr inbounds { [0 x i8]*, i64 }, { [0 x i8]*, i64 }* %33, i32 0, i32 1, !dbg !2277
  %val.1 = load i64, i64* %35, align 8, !dbg !2277
  %36 = getelementptr inbounds { [0 x i8]*, i64 }, { [0 x i8]*, i64 }* %val.dbg.spill, i32 0, i32 0, !dbg !2277
  store [0 x i8]* %val.0, [0 x i8]** %36, align 8, !dbg !2277
  %37 = getelementptr inbounds { [0 x i8]*, i64 }, { [0 x i8]*, i64 }* %val.dbg.spill, i32 0, i32 1, !dbg !2277
  store i64 %val.1, i64* %37, align 8, !dbg !2277
  call void @llvm.dbg.declare(metadata { [0 x i8]*, i64 }* %val.dbg.spill, metadata !2257, metadata !DIExpression()), !dbg !2279
  %38 = getelementptr inbounds { [0 x i8]*, i64 }, { [0 x i8]*, i64 }* %buf, i32 0, i32 0, !dbg !2280
  store [0 x i8]* %val.0, [0 x i8]** %38, align 8, !dbg !2280
  %39 = getelementptr inbounds { [0 x i8]*, i64 }, { [0 x i8]*, i64 }* %buf, i32 0, i32 1, !dbg !2280
  store i64 %val.1, i64* %39, align 8, !dbg !2280
  br label %bb1, !dbg !2281

bb13:                                             ; preds = %bb10
  %40 = bitcast %"core::ops::control_flow::ControlFlow<core::result::Result<core::convert::Infallible, error::Error>, &mut [core::mem::maybe_uninit::MaybeUninit<u8>]>"* %_16 to %"core::ops::control_flow::ControlFlow<core::result::Result<core::convert::Infallible, error::Error>, &mut [core::mem::maybe_uninit::MaybeUninit<u8>]>::Break"*, !dbg !2282
