; ModuleID = 'libc.b5822390-cgu.0'
source_filename = "libc.b5822390-cgu.0"
target datalayout = "e-m:e-p270:32:32-p271:32:32-p272:64:64-i64:64-f80:128-n8:16:32:64-S128"
target triple = "x86_64-unknown-linux-gnu"

%"unix::group" = type { i8*, i8*, i32, [1 x i32], i8** }
%"unix::rusage" = type { { i64, i64 }, { i64, i64 }, i64, i64, i64, i64, i64, i64, i64, i64, i64, i64, i64, i64, i64, i64 }
%"unix::ipv6_mreq" = type { %"unix::align::in6_addr", i32 }
%"unix::align::in6_addr" = type { [16 x i8] }
%"unix::hostent" = type { i8*, i8**, i32, i32, i8** }
%"unix::pollfd" = type { i32, i16, i16 }
%"unix::winsize" = type { i16, i16, i16, i16 }
%"unix::sigval" = type { i8* }
%"unix::itimerval" = type { { i64, i64 }, { i64, i64 } }
%"unix::tms" = type { i64, i64, i64, i64 }
%"unix::servent" = type { i8*, i8**, i32, [1 x i32], i8* }
%"unix::protoent" = type { i8*, i8**, i32, [1 x i32] }
%"unix::linux_like::in_addr" = type { i32 }
%"unix::linux_like::ip_mreq" = type { %"unix::linux_like::in_addr", %"unix::linux_like::in_addr" }
%"unix::linux_like::ip_mreqn" = type { %"unix::linux_like::in_addr", %"unix::linux_like::in_addr", i32 }
%"unix::linux_like::ip_mreq_source" = type { %"unix::linux_like::in_addr", %"unix::linux_like::in_addr", %"unix::linux_like::in_addr" }
%"unix::linux_like::sockaddr" = type { i16, [14 x i8] }
%"unix::linux_like::sockaddr_in" = type { i16, i16, %"unix::linux_like::in_addr", [8 x i8] }
%"unix::linux_like::sockaddr_in6" = type { i16, i16, i32, %"unix::align::in6_addr", i32 }
%"unix::linux_like::addrinfo" = type { i32, i32, i32, i32, i32, [1 x i32], %"unix::linux_like::sockaddr"*, i8*, %"unix::linux_like::addrinfo"* }
%"unix::linux_like::sockaddr_ll" = type { i16, i16, i32, i16, i8, i8, [8 x i8] }
%"unix::linux_like::fd_set" = type { [16 x i64] }
%"unix::linux_like::tm" = type { i32, i32, i32, i32, i32, i32, i32, i32, i32, [1 x i32], i64, i8* }
%"unix::linux_like::sched_param" = type { i32 }
%"unix::linux_like::Dl_info" = type { i8*, i8*, i8*, i8* }
%"unix::linux_like::lconv" = type { i8*, i8*, i8*, i8*, i8*, i8*, i8*, i8*, i8*, i8*, i8, i8, i8, i8, i8, i8, i8, i8, i8, i8, i8, i8, i8, i8, [2 x i8] }
%"unix::linux_like::in_pktinfo" = type { i32, %"unix::linux_like::in_addr", %"unix::linux_like::in_addr" }
%"unix::linux_like::ifaddrs" = type { %"unix::linux_like::ifaddrs"*, i8*, i32, [1 x i32], %"unix::linux_like::sockaddr"*, %"unix::linux_like::sockaddr"*, %"unix::linux_like::sockaddr"*, i8* }
%"unix::linux_like::in6_rtmsg" = type { %"unix::align::in6_addr", %"unix::align::in6_addr", %"unix::align::in6_addr", i32, i16, i16, i32, [1 x i32], i64, i32, i32 }
%"unix::linux_like::arpreq" = type { %"unix::linux_like::sockaddr", %"unix::linux_like::sockaddr", i32, %"unix::linux_like::sockaddr", [16 x i8] }
%"unix::linux_like::arpreq_old" = type { %"unix::linux_like::sockaddr", %"unix::linux_like::sockaddr", i32, %"unix::linux_like::sockaddr" }
%"unix::linux_like::arphdr" = type { i16, i16, i8, i8, i16 }
%"unix::linux_like::mmsghdr" = type { %"unix::linux_like::linux::gnu::msghdr", i32, [1 x i32] }
%"unix::linux_like::linux::gnu::msghdr" = type { i8*, i32, [1 x i32], { i8*, i64 }*, i64, i8*, i64, i32, [1 x i32] }
%"unix::linux_like::epoll_event" = type <{ i32, i64 }>
%"unix::linux_like::sockaddr_un" = type { i16, [108 x i8] }
%"unix::linux_like::sockaddr_storage" = type { i16, [118 x i8], i64 }
%"unix::linux_like::utsname" = type { [65 x i8], [65 x i8], [65 x i8], [65 x i8], [65 x i8], [65 x i8] }
%"unix::linux_like::sigevent" = type { %"unix::sigval", i32, i32, i32, [11 x i32] }
%"unix::linux_like::linux::glob_t" = type { i64, i8**, i64, i32, [1 x i32], i8*, i8*, i8*, i8*, i8* }
%"unix::linux_like::linux::passwd" = type { i8*, i8*, i32, i32, i8*, i8*, i8* }
%"unix::linux_like::linux::spwd" = type { i8*, i8*, i64, i64, i64, i64, i64, i64, i64 }
%"unix::linux_like::linux::dqblk" = type { i64, i64, i64, i64, i64, i64, i64, i64, i32, [1 x i32] }
%"unix::linux_like::linux::signalfd_siginfo" = type { i32, i32, i32, i32, i32, i32, i32, i32, i32, i32, i32, i32, i64, i64, i64, i64, i16, i16, i32, i64, i32, [28 x i8] }
%"unix::linux_like::linux::itimerspec" = type { { i64, i64 }, { i64, i64 } }
%"unix::linux_like::linux::fsid_t" = type { [2 x i32] }
%"unix::linux_like::linux::packet_mreq" = type { i32, i16, i16, [8 x i8] }
%"unix::linux_like::linux::cpu_set_t" = type { [16 x i64] }
%"unix::linux_like::linux::msginfo" = type { i32, i32, i32, i32, i32, i32, i32, i16, [1 x i16] }
%"unix::linux_like::linux::sembuf" = type { i16, i16, i16 }
%"unix::linux_like::linux::input_event" = type { { i64, i64 }, i16, i16, i32 }
%"unix::linux_like::linux::input_id" = type { i16, i16, i16, i16 }
%"unix::linux_like::linux::input_absinfo" = type { i32, i32, i32, i32, i32, i32 }
%"unix::linux_like::linux::input_keymap_entry" = type { i8, i8, i16, i32, [32 x i8] }
%"unix::linux_like::linux::input_mask" = type { i32, i32, i64 }
%"unix::linux_like::linux::ff_envelope" = type { i16, i16, i16, i16 }
%"unix::linux_like::linux::ff_constant_effect" = type { i16, %"unix::linux_like::linux::ff_envelope" }
%"unix::linux_like::linux::ff_ramp_effect" = type { i16, i16, %"unix::linux_like::linux::ff_envelope" }
%"unix::linux_like::linux::ff_condition_effect" = type { i16, i16, i16, i16, i16, i16 }
%"unix::linux_like::linux::ff_periodic_effect" = type { i16, i16, i16, i16, i16, %"unix::linux_like::linux::ff_envelope", [1 x i16], i32, i16* }
%"unix::linux_like::linux::ff_effect" = type { i16, i16, i16, { i16, i16 }, { i16, i16 }, [1 x i16], [4 x i64] }
%"unix::linux_like::linux::uinput_ff_upload" = type { i32, i32, %"unix::linux_like::linux::ff_effect", %"unix::linux_like::linux::ff_effect" }
%"unix::linux_like::linux::uinput_ff_erase" = type { i32, i32, i32 }
%"unix::linux_like::linux::uinput_abs_setup" = type { i16, [1 x i16], %"unix::linux_like::linux::input_absinfo" }
%"unix::linux_like::linux::dl_phdr_info" = type { i64, i8*, %"unix::linux_like::linux::Elf64_Phdr"*, i16, [3 x i16], i64, i64, i64, i8* }
%"unix::linux_like::linux::Elf64_Phdr" = type { i32, i32, i64, i64, i64, i64, i64, i64 }
%"unix::linux_like::linux::Elf32_Ehdr" = type { [16 x i8], i16, i16, i32, i32, i32, i32, i32, i16, i16, i16, i16, i16, i16 }
%"unix::linux_like::linux::Elf64_Ehdr" = type { [16 x i8], i16, i16, i32, i64, i64, i64, i32, i16, i16, i16, i16, i16, i16 }
%"unix::linux_like::linux::Elf32_Sym" = type { i32, i32, i32, i8, i8, i16 }
%"unix::linux_like::linux::Elf64_Sym" = type { i32, i8, i8, i16, i64, i64 }
%"unix::linux_like::linux::Elf32_Phdr" = type { i32, i32, i32, i32, i32, i32, i32, i32 }
%"unix::linux_like::linux::Elf32_Shdr" = type { i32, i32, i32, i32, i32, i32, i32, i32, i32, i32 }
%"unix::linux_like::linux::Elf64_Shdr" = type { i32, i32, i64, i64, i64, i64, i32, i32, i64, i64 }
%"unix::linux_like::linux::ucred" = type { i32, i32, i32 }
%"unix::linux_like::linux::mntent" = type { i8*, i8*, i8*, i8*, i32, i32 }
%"unix::linux_like::linux::posix_spawn_file_actions_t" = type { i32, i32, i32*, [16 x i32] }
%"unix::linux_like::linux::posix_spawnattr_t" = type { i16, [1 x i16], i32, %"unix::linux_like::linux::gnu::b64::sigset_t", %"unix::linux_like::linux::gnu::b64::sigset_t", %"unix::linux_like::sched_param", i32, [16 x i32] }
%"unix::linux_like::linux::gnu::b64::sigset_t" = type { [16 x i64] }
%"unix::linux_like::linux::genlmsghdr" = type { i8, i8, i16 }
%"unix::linux_like::linux::in6_pktinfo" = type { %"unix::align::in6_addr", i32 }
%"unix::linux_like::linux::arpd_request" = type { i16, [1 x i16], i32, i64, i64, i64, [7 x i8], [1 x i8] }
%"unix::linux_like::linux::inotify_event" = type { i32, i32, i32, i32 }
%"unix::linux_like::linux::sockaddr_vm" = type { i16, i16, i32, i32, [4 x i8] }
%"unix::linux_like::linux::sock_extended_err" = type { i32, i8, i8, i8, i8, i32, i32 }
%"unix::linux_like::linux::__c_anonymous_sockaddr_can_j1939" = type { i64, i32, i8, [3 x i8] }
%"unix::linux_like::linux::j1939_filter" = type { i64, i64, i32, i32, i8, i8, [6 x i8] }
%"unix::linux_like::linux::sock_filter" = type { i16, i8, i8, i32 }
%"unix::linux_like::linux::seccomp_data" = type { i32, i32, i64, [6 x i64] }
%"unix::linux_like::linux::seccomp_notif_sizes" = type { i16, i16, i16 }
%"unix::linux_like::linux::seccomp_notif" = type { i64, i32, i32, %"unix::linux_like::linux::seccomp_data" }
%"unix::linux_like::linux::seccomp_notif_resp" = type { i64, i64, i32, i32 }
%"unix::linux_like::linux::seccomp_notif_addfd" = type { i64, i32, i32, i32, i32 }
%"unix::linux_like::linux::nlmsghdr" = type { i32, i16, i16, i32, i32 }
%"unix::linux_like::linux::nlmsgerr" = type { i32, %"unix::linux_like::linux::nlmsghdr" }
%"unix::linux_like::linux::file_clone_range" = type { i64, i64, i64, i64 }
%"unix::linux_like::linux::__c_anonymous_ifru_map" = type { i64, i64, i16, i8, i8, i8, [3 x i8] }
%"unix::linux_like::linux::in6_ifreq" = type { %"unix::align::in6_addr", i32, i32 }
%"unix::linux_like::linux::option" = type { i8*, i32, [1 x i32], i32*, i32, [1 x i32] }
%"unix::linux_like::linux::sctp_initmsg" = type { i16, i16, i16, i16 }
%"unix::linux_like::linux::sctp_sndrcvinfo" = type { i16, i16, i16, [1 x i16], i32, i32, i32, i32, i32, i32 }
%"unix::linux_like::linux::sctp_sndinfo" = type { i16, i16, i32, i32, i32 }
%"unix::linux_like::linux::sctp_rcvinfo" = type { i16, i16, i16, [1 x i16], i32, i32, i32, i32, i32 }
%"unix::linux_like::linux::sctp_nxtinfo" = type { i16, i16, i32, i32, i32 }
%"unix::linux_like::linux::sctp_authinfo" = type { i16 }
%"unix::linux_like::linux::tls12_crypto_info_aes_gcm_128" = type { { i16, i16 }, [8 x i8], [16 x i8], [4 x i8], [8 x i8] }
%"unix::linux_like::linux::tls12_crypto_info_aes_gcm_256" = type { { i16, i16 }, [8 x i8], [32 x i8], [4 x i8], [8 x i8] }
%"unix::linux_like::linux::tls12_crypto_info_chacha20_poly1305" = type { { i16, i16 }, [12 x i8], [32 x i8], [0 x i8], [8 x i8] }
%"unix::linux_like::linux::sockaddr_nl" = type { i16, i16, i32, i32 }
%"unix::linux_like::linux::dirent" = type { i64, i64, i16, i8, [256 x i8], [5 x i8] }
%"unix::linux_like::linux::sockaddr_alg" = type { i16, [14 x i8], i32, i32, [64 x i8] }
%"unix::linux_like::linux::uinput_setup" = type { %"unix::linux_like::linux::input_id", [80 x i8], i32 }
%"unix::linux_like::linux::uinput_user_dev" = type { [80 x i8], %"unix::linux_like::linux::input_id", i32, [64 x i32], [64 x i32], [64 x i32], [64 x i32] }
%"unix::linux_like::linux::af_alg_iv" = type { i32, [0 x i8] }
%"unix::linux_like::linux::mq_attr" = type { i64, i64, i64, i64, [4 x i64] }
%"unix::linux_like::linux::__c_anonymous_ifr_ifru" = type { [3 x i64] }
%"unix::linux_like::linux::ifreq" = type { [16 x i8], %"unix::linux_like::linux::__c_anonymous_ifr_ifru" }
%"unix::linux_like::linux::__c_anonymous_ifc_ifcu" = type { [1 x i64] }
%"unix::linux_like::linux::ifconf" = type { i32, [1 x i32], %"unix::linux_like::linux::__c_anonymous_ifc_ifcu" }
%"unix::linux_like::linux::hwtstamp_config" = type { i32, i32, i32 }
%"unix::linux_like::linux::dirent64" = type { i64, i64, i16, i8, [256 x i8], [5 x i8] }
%"unix::linux_like::linux::sched_attr" = type { i32, i32, i64, i32, i32, i64, i64, i64 }
%"unix::linux_like::linux::__c_anonymous_sockaddr_can_can_addr" = type { [2 x i64] }
%"unix::linux_like::linux::sockaddr_can" = type { i16, [1 x i16], i32, %"unix::linux_like::linux::__c_anonymous_sockaddr_can_can_addr" }
%"unix::linux_like::linux::gnu::b64::x86_64::siginfo_t" = type { i32, i32, i32, [29 x i32], [0 x i64] }
%"unix::linux_like::linux::gnu::<impl unix::linux_like::linux::gnu::b64::x86_64::siginfo_t>::si_addr::siginfo_sigfault" = type { i32, i32, i32, [1 x i32], i8* }
%"unix::linux_like::linux::gnu::<impl unix::linux_like::linux::gnu::b64::x86_64::siginfo_t>::si_value::siginfo_timer" = type { i32, i32, i32, i32, i32, [1 x i32], %"unix::sigval" }
%"unix::linux_like::linux::gnu::statx" = type { i32, i32, i64, i32, i32, i32, i16, [1 x i16], i64, i64, i64, i64, %"unix::linux_like::linux::gnu::statx_timestamp", %"unix::linux_like::linux::gnu::statx_timestamp", %"unix::linux_like::linux::gnu::statx_timestamp", %"unix::linux_like::linux::gnu::statx_timestamp", i32, i32, i32, i32, i64, i32, i32, [12 x i64] }
%"unix::linux_like::linux::gnu::statx_timestamp" = type { i64, i32, [1 x i32] }
%"unix::linux_like::linux::gnu::aiocb" = type { i32, i32, i32, [1 x i32], i8*, i64, %"unix::linux_like::sigevent", %"unix::linux_like::linux::gnu::aiocb"*, i32, i32, i32, [1 x i32], i64, i64, [32 x i8] }
%"unix::linux_like::linux::gnu::glob64_t" = type { i64, i8**, i64, i32, [1 x i32], i8*, i8*, i8*, i8*, i8* }
%"unix::linux_like::linux::gnu::cmsghdr" = type { i64, i32, i32 }
%"unix::linux_like::linux::gnu::termios" = type { i32, i32, i32, i32, i8, [32 x i8], [3 x i8], i32, i32 }
%"unix::linux_like::linux::gnu::mallinfo" = type { i32, i32, i32, i32, i32, i32, i32, i32, i32, i32 }
%"unix::linux_like::linux::gnu::mallinfo2" = type { i64, i64, i64, i64, i64, i64, i64, i64, i64, i64 }
%"unix::linux_like::linux::gnu::nl_pktinfo" = type { i32 }
%"unix::linux_like::linux::gnu::nl_mmap_req" = type { i32, i32, i32, i32 }
%"unix::linux_like::linux::gnu::nl_mmap_hdr" = type { i32, i32, i32, i32, i32, i32 }
%"unix::linux_like::linux::gnu::rtentry" = type { i64, %"unix::linux_like::sockaddr", %"unix::linux_like::sockaddr", %"unix::linux_like::sockaddr", i16, i16, [2 x i16], i64, i8, i8, [3 x i16], i16, [3 x i16], i8*, i64, i64, i16, [3 x i16] }
%"unix::linux_like::linux::gnu::timex" = type { i32, [1 x i32], i64, i64, i64, i64, i32, [1 x i32], i64, i64, i64, { i64, i64 }, i64, i64, i64, i32, [1 x i32], i64, i64, i64, i64, i64, i32, i32, i32, i32, i32, i32, i32, i32, i32, i32, i32, i32 }
%"unix::linux_like::linux::gnu::ntptimeval" = type { { i64, i64 }, i64, i64, i64, i64, i64, i64, i64 }
%"unix::linux_like::linux::gnu::regex_t" = type { i8*, i64, i64, i64, i8*, i8*, i64, i8, [7 x i8] }
%"unix::linux_like::linux::gnu::Elf64_Chdr" = type { i32, i32, i64, i64 }
%"unix::linux_like::linux::gnu::Elf32_Chdr" = type { i32, i32, i32 }
%"unix::linux_like::linux::gnu::seminfo" = type { i32, i32, i32, i32, i32, i32, i32, i32, i32, i32 }
%"unix::linux_like::linux::gnu::ptrace_peeksiginfo_args" = type { i64, i32, i32 }
%"unix::linux_like::linux::gnu::__c_anonymous_ptrace_syscall_info_entry" = type { i64, [6 x i64] }
%"unix::linux_like::linux::gnu::__c_anonymous_ptrace_syscall_info_seccomp" = type { i64, [6 x i64], i32, [1 x i32] }
%"unix::linux_like::linux::gnu::ptrace_syscall_info" = type { i8, [3 x i8], i32, i64, i64, %"unix::linux_like::linux::gnu::__c_anonymous_ptrace_syscall_info_data" }
%"unix::linux_like::linux::gnu::__c_anonymous_ptrace_syscall_info_data" = type { [8 x i64] }
%"unix::linux_like::linux::gnu::sockaddr_xdp" = type { i16, i16, i32, i32, i32 }
%"unix::linux_like::linux::gnu::xdp_ring_offset" = type { i64, i64, i64, i64 }
%"unix::linux_like::linux::gnu::xdp_mmap_offsets" = type { %"unix::linux_like::linux::gnu::xdp_ring_offset", %"unix::linux_like::linux::gnu::xdp_ring_offset", %"unix::linux_like::linux::gnu::xdp_ring_offset", %"unix::linux_like::linux::gnu::xdp_ring_offset" }
%"unix::linux_like::linux::gnu::xdp_ring_offset_v1" = type { i64, i64, i64 }
%"unix::linux_like::linux::gnu::xdp_mmap_offsets_v1" = type { %"unix::linux_like::linux::gnu::xdp_ring_offset_v1", %"unix::linux_like::linux::gnu::xdp_ring_offset_v1", %"unix::linux_like::linux::gnu::xdp_ring_offset_v1", %"unix::linux_like::linux::gnu::xdp_ring_offset_v1" }
%"unix::linux_like::linux::gnu::xdp_umem_reg" = type { i64, i64, i32, i32, i32, [1 x i32] }
%"unix::linux_like::linux::gnu::xdp_umem_reg_v1" = type { i64, i64, i32, i32 }
%"unix::linux_like::linux::gnu::xdp_statistics" = type { i64, i64, i64, i64, i64, i64 }
%"unix::linux_like::linux::gnu::xdp_statistics_v1" = type { i64, i64, i64 }
%"unix::linux_like::linux::gnu::xdp_options" = type { i32 }
%"unix::linux_like::linux::gnu::xdp_desc" = type { i64, i32, i32 }
%"unix::linux_like::linux::gnu::iocb" = type { i64, i32, i32, i16, i16, i32, i64, i64, i64, i64, i32, i32 }
%"unix::linux_like::linux::gnu::sifields_sigchld" = type { i32, i32, i32, [1 x i32], i64, i64 }
%"unix::linux_like::linux::gnu::sifields" = type { [4 x i64] }
%"unix::linux_like::linux::gnu::siginfo_f" = type { [3 x i32], [1 x i32], %"unix::linux_like::linux::gnu::sifields" }
%"unix::linux_like::linux::gnu::utmpx" = type { i16, [1 x i16], i32, [32 x i8], [4 x i8], [32 x i8], [256 x i8], { i16, i16 }, i32, { i32, i32 }, [4 x i32], [20 x i8] }
%"unix::linux_like::linux::gnu::b64::sysinfo" = type { i64, [3 x i64], i64, i64, i64, i64, i64, i64, i16, i16, [2 x i16], i64, i64, i32, [0 x i8], [4 x i8] }
%"unix::linux_like::linux::gnu::b64::msqid_ds" = type { %"unix::linux_like::linux::gnu::b64::x86_64::ipc_perm", i64, i64, i64, i64, i64, i64, i32, i32, i64, i64 }
%"unix::linux_like::linux::gnu::b64::x86_64::ipc_perm" = type { i32, i32, i32, i32, i32, i16, i16, i16, i16, [2 x i16], i64, i64 }
%"unix::linux_like::linux::gnu::b64::semid_ds" = type { %"unix::linux_like::linux::gnu::b64::x86_64::ipc_perm", i64, i64, i64, i64, i64, i64, i64 }
%"unix::linux_like::linux::gnu::b64::x86_64::sigaction" = type { i64, %"unix::linux_like::linux::gnu::b64::sigset_t", i32, [1 x i32], i64* }
%"unix::linux_like::linux::gnu::b64::x86_64::statfs" = type { i64, i64, i64, i64, i64, i64, i64, %"unix::linux_like::linux::fsid_t", i64, i64, [5 x i64] }
%"unix::linux_like::linux::gnu::b64::x86_64::flock" = type { i16, i16, [2 x i16], i64, i64, i32, [1 x i32] }
%"unix::linux_like::linux::gnu::b64::x86_64::flock64" = type { i16, i16, [2 x i16], i64, i64, i32, [1 x i32] }
%"unix::linux_like::linux::gnu::b64::x86_64::stack_t" = type { i8*, i32, [1 x i32], i64 }
%"unix::linux_like::linux::gnu::b64::x86_64::stat" = type { i64, i64, i64, i32, i32, i32, i32, i64, i64, i64, i64, i64, i64, i64, i64, i64, i64, [3 x i64] }
%"unix::linux_like::linux::gnu::b64::x86_64::stat64" = type { i64, i64, i64, i32, i32, i32, i32, i64, i64, i64, i64, i64, i64, i64, i64, i64, i64, [3 x i64] }
%"unix::linux_like::linux::gnu::b64::x86_64::statfs64" = type { i64, i64, i64, i64, i64, i64, i64, %"unix::linux_like::linux::fsid_t", i64, i64, i64, [4 x i64] }
%"unix::linux_like::linux::gnu::b64::x86_64::statvfs64" = type { i64, i64, i64, i64, i64, i64, i64, i64, i64, i64, i64, [6 x i32] }
%"unix::linux_like::linux::gnu::b64::x86_64::pthread_attr_t" = type { [7 x i64] }
%"unix::linux_like::linux::gnu::b64::x86_64::_libc_fpxreg" = type { [4 x i16], i16, [3 x i16] }
%"unix::linux_like::linux::gnu::b64::x86_64::_libc_xmmreg" = type { [4 x i32] }
%"unix::linux_like::linux::gnu::b64::x86_64::_libc_fpstate" = type { i16, i16, i16, i16, i64, i64, i32, i32, [8 x %"unix::linux_like::linux::gnu::b64::x86_64::_libc_fpxreg"], [16 x %"unix::linux_like::linux::gnu::b64::x86_64::_libc_xmmreg"], [12 x i64] }
%"unix::linux_like::linux::gnu::b64::x86_64::user_regs_struct" = type { i64, i64, i64, i64, i64, i64, i64, i64, i64, i64, i64, i64, i64, i64, i64, i64, i64, i64, i64, i64, i64, i64, i64, i64, i64, i64, i64 }
%"unix::linux_like::linux::gnu::b64::x86_64::user" = type { %"unix::linux_like::linux::gnu::b64::x86_64::user_regs_struct", i32, [1 x i32], %"unix::linux_like::linux::gnu::b64::x86_64::user_fpregs_struct", i64, i64, i64, i64, i64, i64, i32, [1 x i32], %"unix::linux_like::linux::gnu::b64::x86_64::user_regs_struct"*, %"unix::linux_like::linux::gnu::b64::x86_64::user_fpregs_struct"*, i64, [32 x i8], [8 x i64] }
%"unix::linux_like::linux::gnu::b64::x86_64::user_fpregs_struct" = type { i16, i16, i16, i16, i64, i64, i32, i32, [32 x i32], [64 x i32], [24 x i32] }
%"unix::linux_like::linux::gnu::b64::x86_64::mcontext_t" = type { [23 x i64], %"unix::linux_like::linux::gnu::b64::x86_64::_libc_fpstate"*, [8 x i64] }
%"unix::linux_like::linux::gnu::b64::x86_64::shmid_ds" = type { %"unix::linux_like::linux::gnu::b64::x86_64::ipc_perm", i64, i64, i64, i64, i32, i32, i64, i64, i64 }
%"unix::linux_like::linux::gnu::b64::x86_64::ptrace_rseq_configuration" = type { i64, i32, i32, i32, i32 }
%"unix::linux_like::linux::gnu::b64::x86_64::ucontext_t" = type { i64, %"unix::linux_like::linux::gnu::b64::x86_64::ucontext_t"*, %"unix::linux_like::linux::gnu::b64::x86_64::stack_t", %"unix::linux_like::linux::gnu::b64::x86_64::mcontext_t", %"unix::linux_like::linux::gnu::b64::sigset_t", [512 x i8] }
%"unix::linux_like::linux::gnu::b64::x86_64::not_x32::statvfs" = type { i64, i64, i64, i64, i64, i64, i64, i64, i64, i64, i64, [6 x i32] }
%"unix::linux_like::linux::gnu::b64::x86_64::align::max_align_t" = type { [4 x double] }
%"unix::linux_like::linux::gnu::b64::x86_64::align::clone_args" = type { i64, i64, i64, i64, i64, i64, i64, i64, i64, i64, i64 }
%"unix::linux_like::linux::gnu::align::sem_t" = type { [32 x i8] }
%"unix::linux_like::linux::arch::generic::termios2" = type { i32, i32, i32, i32, i8, [19 x i8], i32, i32 }
%"unix::linux_like::linux::pthread_mutexattr_t" = type { [4 x i8] }
%"unix::linux_like::linux::pthread_rwlockattr_t" = type { [8 x i8] }
%"unix::linux_like::linux::pthread_condattr_t" = type { [4 x i8] }
%"unix::linux_like::linux::pthread_barrierattr_t" = type { [4 x i8] }
%"unix::linux_like::linux::fanotify_event_metadata" = type { i32, i8, i8, i16, i64, i32, i32 }
%"unix::linux_like::linux::pthread_cond_t" = type { [48 x i8] }
%"unix::linux_like::linux::pthread_mutex_t" = type { [40 x i8] }
%"unix::linux_like::linux::pthread_rwlock_t" = type { [56 x i8] }
%"unix::linux_like::linux::pthread_barrier_t" = type { [32 x i8] }
%"unix::linux_like::linux::can_frame" = type { i32, i8, i8, i8, i8, [8 x i8] }
%"unix::linux_like::linux::canfd_frame" = type { i32, i8, i8, i8, i8, [64 x i8] }
%"unix::linux_like::linux::canxl_frame" = type { i32, i8, i8, i16, i32, [2048 x i8], [4 x i8] }
%"unix::linux_like::linux::non_exhaustive::open_how" = type { i64, i64, i64 }

; <libc::unix::group as core::clone::Clone>::clone
; Function Attrs: nonlazybind uwtable
define void @"_ZN56_$LT$libc..unix..group$u20$as$u20$core..clone..Clone$GT$5clone17h2f344ce9779ffe88E"(%"unix::group"* sret(%"unix::group") %0, %"unix::group"* align 8 %self) unnamed_addr #0 !dbg !14 {
start:
  %self.dbg.spill = alloca %"unix::group"*, align 8
  store %"unix::group"* %self, %"unix::group"** %self.dbg.spill, align 8
  call void @llvm.dbg.declare(metadata %"unix::group"** %self.dbg.spill, metadata !34, metadata !DIExpression()), !dbg !35
  %1 = bitcast %"unix::group"* %0 to i8*, !dbg !36
  %2 = bitcast %"unix::group"* %self to i8*, !dbg !36
  call void @llvm.memcpy.p0i8.p0i8.i64(i8* align 8 %1, i8* align 8 %2, i64 32, i1 false), !dbg !36
  ret void, !dbg !37
}

; <libc::unix::utimbuf as core::clone::Clone>::clone
; Function Attrs: nonlazybind uwtable
define { i64, i64 } @"_ZN58_$LT$libc..unix..utimbuf$u20$as$u20$core..clone..Clone$GT$5clone17h8c1206026ab47a9bE"({ i64, i64 }* align 8 %self) unnamed_addr #0 !dbg !38 {
start:
  %self.dbg.spill = alloca { i64, i64 }*, align 8
  store { i64, i64 }* %self, { i64, i64 }** %self.dbg.spill, align 8
  call void @llvm.dbg.declare(metadata { i64, i64 }** %self.dbg.spill, metadata !49, metadata !DIExpression()), !dbg !50
  %0 = getelementptr inbounds { i64, i64 }, { i64, i64 }* %self, i32 0, i32 0, !dbg !51
  %1 = load i64, i64* %0, align 8, !dbg !51
  %2 = getelementptr inbounds { i64, i64 }, { i64, i64 }* %self, i32 0, i32 1, !dbg !51
  %3 = load i64, i64* %2, align 8, !dbg !51
  %4 = insertvalue { i64, i64 } undef, i64 %1, 0, !dbg !52
  %5 = insertvalue { i64, i64 } %4, i64 %3, 1, !dbg !52
  ret { i64, i64 } %5, !dbg !52
}

; <libc::unix::timeval as core::clone::Clone>::clone
; Function Attrs: nonlazybind uwtable
define { i64, i64 } @"_ZN58_$LT$libc..unix..timeval$u20$as$u20$core..clone..Clone$GT$5clone17hbdc7ff4d606587a4E"({ i64, i64 }* align 8 %self) unnamed_addr #0 !dbg !53 {
start:
  %self.dbg.spill = alloca { i64, i64 }*, align 8
  store { i64, i64 }* %self, { i64, i64 }** %self.dbg.spill, align 8
  call void @llvm.dbg.declare(metadata { i64, i64 }** %self.dbg.spill, metadata !63, metadata !DIExpression()), !dbg !64
  %0 = getelementptr inbounds { i64, i64 }, { i64, i64 }* %self, i32 0, i32 0, !dbg !65
  %1 = load i64, i64* %0, align 8, !dbg !65
  %2 = getelementptr inbounds { i64, i64 }, { i64, i64 }* %self, i32 0, i32 1, !dbg !65
  %3 = load i64, i64* %2, align 8, !dbg !65
  %4 = insertvalue { i64, i64 } undef, i64 %1, 0, !dbg !66
  %5 = insertvalue { i64, i64 } %4, i64 %3, 1, !dbg !66
  ret { i64, i64 } %5, !dbg !66
}

; <libc::unix::timespec as core::clone::Clone>::clone
; Function Attrs: nonlazybind uwtable
define { i64, i64 } @"_ZN59_$LT$libc..unix..timespec$u20$as$u20$core..clone..Clone$GT$5clone17ha24f0ac632c10e18E"({ i64, i64 }* align 8 %self) unnamed_addr #0 !dbg !67 {
start:
  %self.dbg.spill = alloca { i64, i64 }*, align 8
  store { i64, i64 }* %self, { i64, i64 }** %self.dbg.spill, align 8
  call void @llvm.dbg.declare(metadata { i64, i64 }** %self.dbg.spill, metadata !77, metadata !DIExpression()), !dbg !78
  %0 = getelementptr inbounds { i64, i64 }, { i64, i64 }* %self, i32 0, i32 0, !dbg !79
  %1 = load i64, i64* %0, align 8, !dbg !79
  %2 = getelementptr inbounds { i64, i64 }, { i64, i64 }* %self, i32 0, i32 1, !dbg !79
  %3 = load i64, i64* %2, align 8, !dbg !79
  %4 = insertvalue { i64, i64 } undef, i64 %1, 0, !dbg !80
  %5 = insertvalue { i64, i64 } %4, i64 %3, 1, !dbg !80
  ret { i64, i64 } %5, !dbg !80
}

; <libc::unix::rlimit as core::clone::Clone>::clone
; Function Attrs: nonlazybind uwtable
define { i64, i64 } @"_ZN57_$LT$libc..unix..rlimit$u20$as$u20$core..clone..Clone$GT$5clone17h65273c076e650f6cE"({ i64, i64 }* align 8 %self) unnamed_addr #0 !dbg !81 {
start:
  %self.dbg.spill = alloca { i64, i64 }*, align 8
  store { i64, i64 }* %self, { i64, i64 }** %self.dbg.spill, align 8
  call void @llvm.dbg.declare(metadata { i64, i64 }** %self.dbg.spill, metadata !92, metadata !DIExpression()), !dbg !93
  %0 = getelementptr inbounds { i64, i64 }, { i64, i64 }* %self, i32 0, i32 0, !dbg !94
  %1 = load i64, i64* %0, align 8, !dbg !94
  %2 = getelementptr inbounds { i64, i64 }, { i64, i64 }* %self, i32 0, i32 1, !dbg !94
  %3 = load i64, i64* %2, align 8, !dbg !94
  %4 = insertvalue { i64, i64 } undef, i64 %1, 0, !dbg !95
  %5 = insertvalue { i64, i64 } %4, i64 %3, 1, !dbg !95
  ret { i64, i64 } %5, !dbg !95
}

; <libc::unix::rusage as core::clone::Clone>::clone
; Function Attrs: nonlazybind uwtable
define void @"_ZN57_$LT$libc..unix..rusage$u20$as$u20$core..clone..Clone$GT$5clone17hac759a16d59fbe09E"(%"unix::rusage"* sret(%"unix::rusage") %0, %"unix::rusage"* align 8 %self) unnamed_addr #0 !dbg !96 {
start:
  %self.dbg.spill = alloca %"unix::rusage"*, align 8
  store %"unix::rusage"* %self, %"unix::rusage"** %self.dbg.spill, align 8
  call void @llvm.dbg.declare(metadata %"unix::rusage"** %self.dbg.spill, metadata !120, metadata !DIExpression()), !dbg !121
  %1 = bitcast %"unix::rusage"* %0 to i8*, !dbg !122
  %2 = bitcast %"unix::rusage"* %self to i8*, !dbg !122
  call void @llvm.memcpy.p0i8.p0i8.i64(i8* align 8 %1, i8* align 8 %2, i64 144, i1 false), !dbg !122
  ret void, !dbg !123
}

; <libc::unix::ipv6_mreq as core::clone::Clone>::clone
; Function Attrs: nonlazybind uwtable
define void @"_ZN60_$LT$libc..unix..ipv6_mreq$u20$as$u20$core..clone..Clone$GT$5clone17h10a9df314b18f5cdE"(%"unix::ipv6_mreq"* sret(%"unix::ipv6_mreq") %0, %"unix::ipv6_mreq"* align 4 %self) unnamed_addr #0 !dbg !124 {
start:
  %self.dbg.spill = alloca %"unix::ipv6_mreq"*, align 8
  store %"unix::ipv6_mreq"* %self, %"unix::ipv6_mreq"** %self.dbg.spill, align 8
  call void @llvm.dbg.declare(metadata %"unix::ipv6_mreq"** %self.dbg.spill, metadata !141, metadata !DIExpression()), !dbg !142
  %1 = bitcast %"unix::ipv6_mreq"* %0 to i8*, !dbg !143
  %2 = bitcast %"unix::ipv6_mreq"* %self to i8*, !dbg !143
  call void @llvm.memcpy.p0i8.p0i8.i64(i8* align 4 %1, i8* align 4 %2, i64 20, i1 false), !dbg !143
  ret void, !dbg !144
}

; <libc::unix::hostent as core::clone::Clone>::clone
; Function Attrs: nonlazybind uwtable
define void @"_ZN58_$LT$libc..unix..hostent$u20$as$u20$core..clone..Clone$GT$5clone17h45b926df452f85cfE"(%"unix::hostent"* sret(%"unix::hostent") %0, %"unix::hostent"* align 8 %self) unnamed_addr #0 !dbg !145 {
start:
  %self.dbg.spill = alloca %"unix::hostent"*, align 8
  store %"unix::hostent"* %self, %"unix::hostent"** %self.dbg.spill, align 8
  call void @llvm.dbg.declare(metadata %"unix::hostent"** %self.dbg.spill, metadata !159, metadata !DIExpression()), !dbg !160
  %1 = bitcast %"unix::hostent"* %0 to i8*, !dbg !161
  %2 = bitcast %"unix::hostent"* %self to i8*, !dbg !161
  call void @llvm.memcpy.p0i8.p0i8.i64(i8* align 8 %1, i8* align 8 %2, i64 32, i1 false), !dbg !161
  ret void, !dbg !162
}

; <libc::unix::iovec as core::clone::Clone>::clone
; Function Attrs: nonlazybind uwtable
define { i8*, i64 } @"_ZN56_$LT$libc..unix..iovec$u20$as$u20$core..clone..Clone$GT$5clone17hd8bc7173669988d9E"({ i8*, i64 }* align 8 %self) unnamed_addr #0 !dbg !163 {
start:
  %self.dbg.spill = alloca { i8*, i64 }*, align 8
  store { i8*, i64 }* %self, { i8*, i64 }** %self.dbg.spill, align 8
  call void @llvm.dbg.declare(metadata { i8*, i64 }** %self.dbg.spill, metadata !175, metadata !DIExpression()), !dbg !176
  %0 = getelementptr inbounds { i8*, i64 }, { i8*, i64 }* %self, i32 0, i32 0, !dbg !177
  %1 = load i8*, i8** %0, align 8, !dbg !177
  %2 = getelementptr inbounds { i8*, i64 }, { i8*, i64 }* %self, i32 0, i32 1, !dbg !177
  %3 = load i64, i64* %2, align 8, !dbg !177
  %4 = insertvalue { i8*, i64 } undef, i8* %1, 0, !dbg !178
  %5 = insertvalue { i8*, i64 } %4, i64 %3, 1, !dbg !178
  ret { i8*, i64 } %5, !dbg !178
}

; <libc::unix::pollfd as core::clone::Clone>::clone
; Function Attrs: nonlazybind uwtable
define i64 @"_ZN57_$LT$libc..unix..pollfd$u20$as$u20$core..clone..Clone$GT$5clone17h226447c2249322bcE"(%"unix::pollfd"* align 4 %self) unnamed_addr #0 !dbg !179 {
start:
  %self.dbg.spill = alloca %"unix::pollfd"*, align 8
  %0 = alloca %"unix::pollfd", align 4
  store %"unix::pollfd"* %self, %"unix::pollfd"** %self.dbg.spill, align 8
  call void @llvm.dbg.declare(metadata %"unix::pollfd"** %self.dbg.spill, metadata !191, metadata !DIExpression()), !dbg !192
  %1 = bitcast %"unix::pollfd"* %0 to i8*, !dbg !193
  %2 = bitcast %"unix::pollfd"* %self to i8*, !dbg !193
  call void @llvm.memcpy.p0i8.p0i8.i64(i8* align 4 %1, i8* align 4 %2, i64 8, i1 false), !dbg !193
  %3 = bitcast %"unix::pollfd"* %0 to i64*, !dbg !194
  %4 = load i64, i64* %3, align 4, !dbg !194
  ret i64 %4, !dbg !194
}

; <libc::unix::winsize as core::clone::Clone>::clone
; Function Attrs: nonlazybind uwtable
define i64 @"_ZN58_$LT$libc..unix..winsize$u20$as$u20$core..clone..Clone$GT$5clone17h21a96aabc08ddf49E"(%"unix::winsize"* align 2 %self) unnamed_addr #0 !dbg !195 {
start:
  %self.dbg.spill = alloca %"unix::winsize"*, align 8
  %0 = alloca %"unix::winsize", align 2
  store %"unix::winsize"* %self, %"unix::winsize"** %self.dbg.spill, align 8
  call void @llvm.dbg.declare(metadata %"unix::winsize"** %self.dbg.spill, metadata !208, metadata !DIExpression()), !dbg !209
  %1 = bitcast %"unix::winsize"* %0 to i8*, !dbg !210
  %2 = bitcast %"unix::winsize"* %self to i8*, !dbg !210
  call void @llvm.memcpy.p0i8.p0i8.i64(i8* align 2 %1, i8* align 2 %2, i64 8, i1 false), !dbg !210
  %3 = bitcast %"unix::winsize"* %0 to i64*, !dbg !211
  %4 = load i64, i64* %3, align 2, !dbg !211
  ret i64 %4, !dbg !211
}

; <libc::unix::linger as core::clone::Clone>::clone
; Function Attrs: nonlazybind uwtable
define { i32, i32 } @"_ZN57_$LT$libc..unix..linger$u20$as$u20$core..clone..Clone$GT$5clone17h0aebe3d3e451553bE"({ i32, i32 }* align 4 %self) unnamed_addr #0 !dbg !212 {
start:
  %self.dbg.spill = alloca { i32, i32 }*, align 8
  store { i32, i32 }* %self, { i32, i32 }** %self.dbg.spill, align 8
  call void @llvm.dbg.declare(metadata { i32, i32 }** %self.dbg.spill, metadata !222, metadata !DIExpression()), !dbg !223
  %0 = getelementptr inbounds { i32, i32 }, { i32, i32 }* %self, i32 0, i32 0, !dbg !224
  %1 = load i32, i32* %0, align 4, !dbg !224
  %2 = getelementptr inbounds { i32, i32 }, { i32, i32 }* %self, i32 0, i32 1, !dbg !224
  %3 = load i32, i32* %2, align 4, !dbg !224
  %4 = insertvalue { i32, i32 } undef, i32 %1, 0, !dbg !225
  %5 = insertvalue { i32, i32 } %4, i32 %3, 1, !dbg !225
  ret { i32, i32 } %5, !dbg !225
}

; <libc::unix::sigval as core::clone::Clone>::clone
; Function Attrs: nonlazybind uwtable
define i64 @"_ZN57_$LT$libc..unix..sigval$u20$as$u20$core..clone..Clone$GT$5clone17h8af6970776166b52E"(%"unix::sigval"* align 8 %self) unnamed_addr #0 !dbg !226 {
start:
  %self.dbg.spill = alloca %"unix::sigval"*, align 8
  %0 = alloca %"unix::sigval", align 8
  store %"unix::sigval"* %self, %"unix::sigval"** %self.dbg.spill, align 8
  call void @llvm.dbg.declare(metadata %"unix::sigval"** %self.dbg.spill, metadata !235, metadata !DIExpression()), !dbg !236
  %1 = bitcast %"unix::sigval"* %0 to i8*, !dbg !237
  %2 = bitcast %"unix::sigval"* %self to i8*, !dbg !237
  call void @llvm.memcpy.p0i8.p0i8.i64(i8* align 8 %1, i8* align 8 %2, i64 8, i1 false), !dbg !237
  %3 = bitcast %"unix::sigval"* %0 to i64*, !dbg !238
  %4 = load i64, i64* %3, align 8, !dbg !238
  ret i64 %4, !dbg !238
}

; <libc::unix::itimerval as core::clone::Clone>::clone
; Function Attrs: nonlazybind uwtable
define void @"_ZN60_$LT$libc..unix..itimerval$u20$as$u20$core..clone..Clone$GT$5clone17h8a05fff16e038219E"(%"unix::itimerval"* sret(%"unix::itimerval") %0, %"unix::itimerval"* align 8 %self) unnamed_addr #0 !dbg !239 {
start:
  %self.dbg.spill = alloca %"unix::itimerval"*, align 8
  store %"unix::itimerval"* %self, %"unix::itimerval"** %self.dbg.spill, align 8
  call void @llvm.dbg.declare(metadata %"unix::itimerval"** %self.dbg.spill, metadata !249, metadata !DIExpression()), !dbg !250
  %1 = bitcast %"unix::itimerval"* %0 to i8*, !dbg !251
  %2 = bitcast %"unix::itimerval"* %self to i8*, !dbg !251
  call void @llvm.memcpy.p0i8.p0i8.i64(i8* align 8 %1, i8* align 8 %2, i64 32, i1 false), !dbg !251
  ret void, !dbg !252
}

; <libc::unix::tms as core::clone::Clone>::clone
; Function Attrs: nonlazybind uwtable
define void @"_ZN54_$LT$libc..unix..tms$u20$as$u20$core..clone..Clone$GT$5clone17h09f8e9bd54119a5eE"(%"unix::tms"* sret(%"unix::tms") %0, %"unix::tms"* align 8 %self) unnamed_addr #0 !dbg !253 {
start:
  %self.dbg.spill = alloca %"unix::tms"*, align 8
  store %"unix::tms"* %self, %"unix::tms"** %self.dbg.spill, align 8
  call void @llvm.dbg.declare(metadata %"unix::tms"** %self.dbg.spill, metadata !265, metadata !DIExpression()), !dbg !266
  %1 = bitcast %"unix::tms"* %0 to i8*, !dbg !267
  %2 = bitcast %"unix::tms"* %self to i8*, !dbg !267
  call void @llvm.memcpy.p0i8.p0i8.i64(i8* align 8 %1, i8* align 8 %2, i64 32, i1 false), !dbg !267
  ret void, !dbg !268
}

; <libc::unix::servent as core::clone::Clone>::clone
; Function Attrs: nonlazybind uwtable
define void @"_ZN58_$LT$libc..unix..servent$u20$as$u20$core..clone..Clone$GT$5clone17h936e533bd3566ad1E"(%"unix::servent"* sret(%"unix::servent") %0, %"unix::servent"* align 8 %self) unnamed_addr #0 !dbg !269 {
start:
  %self.dbg.spill = alloca %"unix::servent"*, align 8
  store %"unix::servent"* %self, %"unix::servent"** %self.dbg.spill, align 8
  call void @llvm.dbg.declare(metadata %"unix::servent"** %self.dbg.spill, metadata !281, metadata !DIExpression()), !dbg !282
  %1 = bitcast %"unix::servent"* %0 to i8*, !dbg !283
  %2 = bitcast %"unix::servent"* %self to i8*, !dbg !283
  call void @llvm.memcpy.p0i8.p0i8.i64(i8* align 8 %1, i8* align 8 %2, i64 32, i1 false), !dbg !283
  ret void, !dbg !284
}

; <libc::unix::protoent as core::clone::Clone>::clone
; Function Attrs: nonlazybind uwtable
define void @"_ZN59_$LT$libc..unix..protoent$u20$as$u20$core..clone..Clone$GT$5clone17hd4a3a81331fb32c2E"(%"unix::protoent"* sret(%"unix::protoent") %0, %"unix::protoent"* align 8 %self) unnamed_addr #0 !dbg !285 {
start:
  %self.dbg.spill = alloca %"unix::protoent"*, align 8
  store %"unix::protoent"* %self, %"unix::protoent"** %self.dbg.spill, align 8
  call void @llvm.dbg.declare(metadata %"unix::protoent"** %self.dbg.spill, metadata !296, metadata !DIExpression()), !dbg !297
  %1 = bitcast %"unix::protoent"* %0 to i8*, !dbg !298
  %2 = bitcast %"unix::protoent"* %self to i8*, !dbg !298
  call void @llvm.memcpy.p0i8.p0i8.i64(i8* align 8 %1, i8* align 8 %2, i64 24, i1 false), !dbg !298
  ret void, !dbg !299
}

; <libc::unix::linux_like::in_addr as core::clone::Clone>::clone
; Function Attrs: nonlazybind uwtable
define i32 @"_ZN70_$LT$libc..unix..linux_like..in_addr$u20$as$u20$core..clone..Clone$GT$5clone17h538ccddd0badb1a8E"(%"unix::linux_like::in_addr"* align 4 %self) unnamed_addr #0 !dbg !300 {
start:
  %self.dbg.spill = alloca %"unix::linux_like::in_addr"*, align 8
  %0 = alloca %"unix::linux_like::in_addr", align 4
  store %"unix::linux_like::in_addr"* %self, %"unix::linux_like::in_addr"** %self.dbg.spill, align 8
  call void @llvm.dbg.declare(metadata %"unix::linux_like::in_addr"** %self.dbg.spill, metadata !310, metadata !DIExpression()), !dbg !311
  %1 = bitcast %"unix::linux_like::in_addr"* %0 to i8*, !dbg !312
  %2 = bitcast %"unix::linux_like::in_addr"* %self to i8*, !dbg !312
  call void @llvm.memcpy.p0i8.p0i8.i64(i8* align 4 %1, i8* align 4 %2, i64 4, i1 false), !dbg !312
  %3 = bitcast %"unix::linux_like::in_addr"* %0 to i32*, !dbg !313
  %4 = load i32, i32* %3, align 4, !dbg !313
  ret i32 %4, !dbg !313
}

; <libc::unix::linux_like::ip_mreq as core::clone::Clone>::clone
; Function Attrs: nonlazybind uwtable
define i64 @"_ZN70_$LT$libc..unix..linux_like..ip_mreq$u20$as$u20$core..clone..Clone$GT$5clone17h5c84cda9314c77baE"(%"unix::linux_like::ip_mreq"* align 4 %self) unnamed_addr #0 !dbg !314 {
start:
  %self.dbg.spill = alloca %"unix::linux_like::ip_mreq"*, align 8
  %0 = alloca %"unix::linux_like::ip_mreq", align 4
  store %"unix::linux_like::ip_mreq"* %self, %"unix::linux_like::ip_mreq"** %self.dbg.spill, align 8
  call void @llvm.dbg.declare(metadata %"unix::linux_like::ip_mreq"** %self.dbg.spill, metadata !324, metadata !DIExpression()), !dbg !325
  %1 = bitcast %"unix::linux_like::ip_mreq"* %0 to i8*, !dbg !326
  %2 = bitcast %"unix::linux_like::ip_mreq"* %self to i8*, !dbg !326
  call void @llvm.memcpy.p0i8.p0i8.i64(i8* align 4 %1, i8* align 4 %2, i64 8, i1 false), !dbg !326
  %3 = bitcast %"unix::linux_like::ip_mreq"* %0 to i64*, !dbg !327
  %4 = load i64, i64* %3, align 4, !dbg !327
  ret i64 %4, !dbg !327
}

; <libc::unix::linux_like::ip_mreqn as core::clone::Clone>::clone
; Function Attrs: nonlazybind uwtable
define void @"_ZN71_$LT$libc..unix..linux_like..ip_mreqn$u20$as$u20$core..clone..Clone$GT$5clone17h38a7024dcfd2025dE"(%"unix::linux_like::ip_mreqn"* sret(%"unix::linux_like::ip_mreqn") %0, %"unix::linux_like::ip_mreqn"* align 4 %self) unnamed_addr #0 !dbg !328 {
start:
  %self.dbg.spill = alloca %"unix::linux_like::ip_mreqn"*, align 8
  store %"unix::linux_like::ip_mreqn"* %self, %"unix::linux_like::ip_mreqn"** %self.dbg.spill, align 8
  call void @llvm.dbg.declare(metadata %"unix::linux_like::ip_mreqn"** %self.dbg.spill, metadata !339, metadata !DIExpression()), !dbg !340
  %1 = bitcast %"unix::linux_like::ip_mreqn"* %0 to i8*, !dbg !341
  %2 = bitcast %"unix::linux_like::ip_mreqn"* %self to i8*, !dbg !341
  call void @llvm.memcpy.p0i8.p0i8.i64(i8* align 4 %1, i8* align 4 %2, i64 12, i1 false), !dbg !341
  ret void, !dbg !342
}

; <libc::unix::linux_like::ip_mreq_source as core::clone::Clone>::clone
; Function Attrs: nonlazybind uwtable
define void @"_ZN77_$LT$libc..unix..linux_like..ip_mreq_source$u20$as$u20$core..clone..Clone$GT$5clone17h396f21afedff0d29E"(%"unix::linux_like::ip_mreq_source"* sret(%"unix::linux_like::ip_mreq_source") %0, %"unix::linux_like::ip_mreq_source"* align 4 %self) unnamed_addr #0 !dbg !343 {
start:
  %self.dbg.spill = alloca %"unix::linux_like::ip_mreq_source"*, align 8
  store %"unix::linux_like::ip_mreq_source"* %self, %"unix::linux_like::ip_mreq_source"** %self.dbg.spill, align 8
  call void @llvm.dbg.declare(metadata %"unix::linux_like::ip_mreq_source"** %self.dbg.spill, metadata !354, metadata !DIExpression()), !dbg !355
  %1 = bitcast %"unix::linux_like::ip_mreq_source"* %0 to i8*, !dbg !356
  %2 = bitcast %"unix::linux_like::ip_mreq_source"* %self to i8*, !dbg !356
  call void @llvm.memcpy.p0i8.p0i8.i64(i8* align 4 %1, i8* align 4 %2, i64 12, i1 false), !dbg !356
  ret void, !dbg !357
}

; <libc::unix::linux_like::sockaddr as core::clone::Clone>::clone
; Function Attrs: nonlazybind uwtable
define void @"_ZN71_$LT$libc..unix..linux_like..sockaddr$u20$as$u20$core..clone..Clone$GT$5clone17hb056148e5cc1523fE"(%"unix::linux_like::sockaddr"* sret(%"unix::linux_like::sockaddr") %0, %"unix::linux_like::sockaddr"* align 2 %self) unnamed_addr #0 !dbg !358 {
start:
  %self.dbg.spill = alloca %"unix::linux_like::sockaddr"*, align 8
  store %"unix::linux_like::sockaddr"* %self, %"unix::linux_like::sockaddr"** %self.dbg.spill, align 8
  call void @llvm.dbg.declare(metadata %"unix::linux_like::sockaddr"** %self.dbg.spill, metadata !371, metadata !DIExpression()), !dbg !372
  %1 = bitcast %"unix::linux_like::sockaddr"* %0 to i8*, !dbg !373
  %2 = bitcast %"unix::linux_like::sockaddr"* %self to i8*, !dbg !373
  call void @llvm.memcpy.p0i8.p0i8.i64(i8* align 2 %1, i8* align 2 %2, i64 16, i1 false), !dbg !373
  ret void, !dbg !374
}

; <libc::unix::linux_like::sockaddr_in as core::clone::Clone>::clone
; Function Attrs: nonlazybind uwtable
define void @"_ZN74_$LT$libc..unix..linux_like..sockaddr_in$u20$as$u20$core..clone..Clone$GT$5clone17heb24fea9b7efb9e9E"(%"unix::linux_like::sockaddr_in"* sret(%"unix::linux_like::sockaddr_in") %0, %"unix::linux_like::sockaddr_in"* align 4 %self) unnamed_addr #0 !dbg !375 {
start:
  %self.dbg.spill = alloca %"unix::linux_like::sockaddr_in"*, align 8
  store %"unix::linux_like::sockaddr_in"* %self, %"unix::linux_like::sockaddr_in"** %self.dbg.spill, align 8
  call void @llvm.dbg.declare(metadata %"unix::linux_like::sockaddr_in"** %self.dbg.spill, metadata !390, metadata !DIExpression()), !dbg !391
  %1 = bitcast %"unix::linux_like::sockaddr_in"* %0 to i8*, !dbg !392
  %2 = bitcast %"unix::linux_like::sockaddr_in"* %self to i8*, !dbg !392
  call void @llvm.memcpy.p0i8.p0i8.i64(i8* align 4 %1, i8* align 4 %2, i64 16, i1 false), !dbg !392
  ret void, !dbg !393
}

; <libc::unix::linux_like::sockaddr_in6 as core::clone::Clone>::clone
; Function Attrs: nonlazybind uwtable
define void @"_ZN75_$LT$libc..unix..linux_like..sockaddr_in6$u20$as$u20$core..clone..Clone$GT$5clone17hed006e2c486502ceE"(%"unix::linux_like::sockaddr_in6"* sret(%"unix::linux_like::sockaddr_in6") %0, %"unix::linux_like::sockaddr_in6"* align 4 %self) unnamed_addr #0 !dbg !394 {
start:
  %self.dbg.spill = alloca %"unix::linux_like::sockaddr_in6"*, align 8
  store %"unix::linux_like::sockaddr_in6"* %self, %"unix::linux_like::sockaddr_in6"** %self.dbg.spill, align 8
  call void @llvm.dbg.declare(metadata %"unix::linux_like::sockaddr_in6"** %self.dbg.spill, metadata !407, metadata !DIExpression()), !dbg !408
  %1 = bitcast %"unix::linux_like::sockaddr_in6"* %0 to i8*, !dbg !409
  %2 = bitcast %"unix::linux_like::sockaddr_in6"* %self to i8*, !dbg !409
  call void @llvm.memcpy.p0i8.p0i8.i64(i8* align 4 %1, i8* align 4 %2, i64 28, i1 false), !dbg !409
  ret void, !dbg !410
}

; <libc::unix::linux_like::addrinfo as core::clone::Clone>::clone
; Function Attrs: nonlazybind uwtable
define void @"_ZN71_$LT$libc..unix..linux_like..addrinfo$u20$as$u20$core..clone..Clone$GT$5clone17ha066be4ca2288ed7E"(%"unix::linux_like::addrinfo"* sret(%"unix::linux_like::addrinfo") %0, %"unix::linux_like::addrinfo"* align 8 %self) unnamed_addr #0 !dbg !411 {
start:
  %self.dbg.spill = alloca %"unix::linux_like::addrinfo"*, align 8
  store %"unix::linux_like::addrinfo"* %self, %"unix::linux_like::addrinfo"** %self.dbg.spill, align 8
  call void @llvm.dbg.declare(metadata %"unix::linux_like::addrinfo"** %self.dbg.spill, metadata !429, metadata !DIExpression()), !dbg !430
  %1 = bitcast %"unix::linux_like::addrinfo"* %0 to i8*, !dbg !431
  %2 = bitcast %"unix::linux_like::addrinfo"* %self to i8*, !dbg !431
  call void @llvm.memcpy.p0i8.p0i8.i64(i8* align 8 %1, i8* align 8 %2, i64 48, i1 false), !dbg !431
  ret void, !dbg !432
}

; <libc::unix::linux_like::sockaddr_ll as core::clone::Clone>::clone
; Function Attrs: nonlazybind uwtable
define void @"_ZN74_$LT$libc..unix..linux_like..sockaddr_ll$u20$as$u20$core..clone..Clone$GT$5clone17hb7bbd3db5b8097d2E"(%"unix::linux_like::sockaddr_ll"* sret(%"unix::linux_like::sockaddr_ll") %0, %"unix::linux_like::sockaddr_ll"* align 4 %self) unnamed_addr #0 !dbg !433 {
start:
  %self.dbg.spill = alloca %"unix::linux_like::sockaddr_ll"*, align 8
  store %"unix::linux_like::sockaddr_ll"* %self, %"unix::linux_like::sockaddr_ll"** %self.dbg.spill, align 8
  call void @llvm.dbg.declare(metadata %"unix::linux_like::sockaddr_ll"** %self.dbg.spill, metadata !448, metadata !DIExpression()), !dbg !449
  %1 = bitcast %"unix::linux_like::sockaddr_ll"* %0 to i8*, !dbg !450
  %2 = bitcast %"unix::linux_like::sockaddr_ll"* %self to i8*, !dbg !450
  call void @llvm.memcpy.p0i8.p0i8.i64(i8* align 4 %1, i8* align 4 %2, i64 20, i1 false), !dbg !450
  ret void, !dbg !451
}

; <libc::unix::linux_like::fd_set as core::clone::Clone>::clone
; Function Attrs: nonlazybind uwtable
define void @"_ZN69_$LT$libc..unix..linux_like..fd_set$u20$as$u20$core..clone..Clone$GT$5clone17ha99b51645e743db1E"(%"unix::linux_like::fd_set"* sret(%"unix::linux_like::fd_set") %0, %"unix::linux_like::fd_set"* align 8 %self) unnamed_addr #0 !dbg !452 {
start:
  %self.dbg.spill = alloca %"unix::linux_like::fd_set"*, align 8
  store %"unix::linux_like::fd_set"* %self, %"unix::linux_like::fd_set"** %self.dbg.spill, align 8
  call void @llvm.dbg.declare(metadata %"unix::linux_like::fd_set"** %self.dbg.spill, metadata !462, metadata !DIExpression()), !dbg !463
  %1 = bitcast %"unix::linux_like::fd_set"* %0 to i8*, !dbg !464
  %2 = bitcast %"unix::linux_like::fd_set"* %self to i8*, !dbg !464
  call void @llvm.memcpy.p0i8.p0i8.i64(i8* align 8 %1, i8* align 8 %2, i64 128, i1 false), !dbg !464
  ret void, !dbg !465
}

; <libc::unix::linux_like::tm as core::clone::Clone>::clone
; Function Attrs: nonlazybind uwtable
define void @"_ZN65_$LT$libc..unix..linux_like..tm$u20$as$u20$core..clone..Clone$GT$5clone17h9535e110717af77fE"(%"unix::linux_like::tm"* sret(%"unix::linux_like::tm") %0, %"unix::linux_like::tm"* align 8 %self) unnamed_addr #0 !dbg !466 {
start:
  %self.dbg.spill = alloca %"unix::linux_like::tm"*, align 8
  store %"unix::linux_like::tm"* %self, %"unix::linux_like::tm"** %self.dbg.spill, align 8
  call void @llvm.dbg.declare(metadata %"unix::linux_like::tm"** %self.dbg.spill, metadata !486, metadata !DIExpression()), !dbg !487
  %1 = bitcast %"unix::linux_like::tm"* %0 to i8*, !dbg !488
  %2 = bitcast %"unix::linux_like::tm"* %self to i8*, !dbg !488
  call void @llvm.memcpy.p0i8.p0i8.i64(i8* align 8 %1, i8* align 8 %2, i64 56, i1 false), !dbg !488
  ret void, !dbg !489
}

; <libc::unix::linux_like::sched_param as core::clone::Clone>::clone
; Function Attrs: nonlazybind uwtable
define i32 @"_ZN74_$LT$libc..unix..linux_like..sched_param$u20$as$u20$core..clone..Clone$GT$5clone17h0c9a8c2f3f2b780fE"(%"unix::linux_like::sched_param"* align 4 %self) unnamed_addr #0 !dbg !490 {
start:
  %self.dbg.spill = alloca %"unix::linux_like::sched_param"*, align 8
  %0 = alloca %"unix::linux_like::sched_param", align 4
  store %"unix::linux_like::sched_param"* %self, %"unix::linux_like::sched_param"** %self.dbg.spill, align 8
  call void @llvm.dbg.declare(metadata %"unix::linux_like::sched_param"** %self.dbg.spill, metadata !499, metadata !DIExpression()), !dbg !500
  %1 = bitcast %"unix::linux_like::sched_param"* %0 to i8*, !dbg !501
  %2 = bitcast %"unix::linux_like::sched_param"* %self to i8*, !dbg !501
  call void @llvm.memcpy.p0i8.p0i8.i64(i8* align 4 %1, i8* align 4 %2, i64 4, i1 false), !dbg !501
  %3 = bitcast %"unix::linux_like::sched_param"* %0 to i32*, !dbg !502
  %4 = load i32, i32* %3, align 4, !dbg !502
  ret i32 %4, !dbg !502
}

; <libc::unix::linux_like::Dl_info as core::clone::Clone>::clone
; Function Attrs: nonlazybind uwtable
define void @"_ZN70_$LT$libc..unix..linux_like..Dl_info$u20$as$u20$core..clone..Clone$GT$5clone17ha6cc33c9553058baE"(%"unix::linux_like::Dl_info"* sret(%"unix::linux_like::Dl_info") %0, %"unix::linux_like::Dl_info"* align 8 %self) unnamed_addr #0 !dbg !503 {
start:
  %self.dbg.spill = alloca %"unix::linux_like::Dl_info"*, align 8
  store %"unix::linux_like::Dl_info"* %self, %"unix::linux_like::Dl_info"** %self.dbg.spill, align 8
  call void @llvm.dbg.declare(metadata %"unix::linux_like::Dl_info"** %self.dbg.spill, metadata !515, metadata !DIExpression()), !dbg !516
  %1 = bitcast %"unix::linux_like::Dl_info"* %0 to i8*, !dbg !517
  %2 = bitcast %"unix::linux_like::Dl_info"* %self to i8*, !dbg !517
  call void @llvm.memcpy.p0i8.p0i8.i64(i8* align 8 %1, i8* align 8 %2, i64 32, i1 false), !dbg !517
  ret void, !dbg !518
}

; <libc::unix::linux_like::lconv as core::clone::Clone>::clone
; Function Attrs: nonlazybind uwtable
define void @"_ZN68_$LT$libc..unix..linux_like..lconv$u20$as$u20$core..clone..Clone$GT$5clone17h0025df0c3ba42662E"(%"unix::linux_like::lconv"* sret(%"unix::linux_like::lconv") %0, %"unix::linux_like::lconv"* align 8 %self) unnamed_addr #0 !dbg !519 {
start:
  %self.dbg.spill = alloca %"unix::linux_like::lconv"*, align 8
  store %"unix::linux_like::lconv"* %self, %"unix::linux_like::lconv"** %self.dbg.spill, align 8
  call void @llvm.dbg.declare(metadata %"unix::linux_like::lconv"** %self.dbg.spill, metadata !551, metadata !DIExpression()), !dbg !552
  %1 = bitcast %"unix::linux_like::lconv"* %0 to i8*, !dbg !553
  %2 = bitcast %"unix::linux_like::lconv"* %self to i8*, !dbg !553
  call void @llvm.memcpy.p0i8.p0i8.i64(i8* align 8 %1, i8* align 8 %2, i64 96, i1 false), !dbg !553
  ret void, !dbg !554
}

; <libc::unix::linux_like::in_pktinfo as core::clone::Clone>::clone
; Function Attrs: nonlazybind uwtable
define void @"_ZN73_$LT$libc..unix..linux_like..in_pktinfo$u20$as$u20$core..clone..Clone$GT$5clone17hfb368e063c60f13fE"(%"unix::linux_like::in_pktinfo"* sret(%"unix::linux_like::in_pktinfo") %0, %"unix::linux_like::in_pktinfo"* align 4 %self) unnamed_addr #0 !dbg !555 {
start:
  %self.dbg.spill = alloca %"unix::linux_like::in_pktinfo"*, align 8
  store %"unix::linux_like::in_pktinfo"* %self, %"unix::linux_like::in_pktinfo"** %self.dbg.spill, align 8
  call void @llvm.dbg.declare(metadata %"unix::linux_like::in_pktinfo"** %self.dbg.spill, metadata !566, metadata !DIExpression()), !dbg !567
  %1 = bitcast %"unix::linux_like::in_pktinfo"* %0 to i8*, !dbg !568
  %2 = bitcast %"unix::linux_like::in_pktinfo"* %self to i8*, !dbg !568
  call void @llvm.memcpy.p0i8.p0i8.i64(i8* align 4 %1, i8* align 4 %2, i64 12, i1 false), !dbg !568
  ret void, !dbg !569
}

; <libc::unix::linux_like::ifaddrs as core::clone::Clone>::clone
; Function Attrs: nonlazybind uwtable
define void @"_ZN70_$LT$libc..unix..linux_like..ifaddrs$u20$as$u20$core..clone..Clone$GT$5clone17hba08771cba0cf3a0E"(%"unix::linux_like::ifaddrs"* sret(%"unix::linux_like::ifaddrs") %0, %"unix::linux_like::ifaddrs"* align 8 %self) unnamed_addr #0 !dbg !570 {
start:
  %self.dbg.spill = alloca %"unix::linux_like::ifaddrs"*, align 8
  store %"unix::linux_like::ifaddrs"* %self, %"unix::linux_like::ifaddrs"** %self.dbg.spill, align 8
  call void @llvm.dbg.declare(metadata %"unix::linux_like::ifaddrs"** %self.dbg.spill, metadata !586, metadata !DIExpression()), !dbg !587
  %1 = bitcast %"unix::linux_like::ifaddrs"* %0 to i8*, !dbg !588
  %2 = bitcast %"unix::linux_like::ifaddrs"* %self to i8*, !dbg !588
  call void @llvm.memcpy.p0i8.p0i8.i64(i8* align 8 %1, i8* align 8 %2, i64 56, i1 false), !dbg !588
  ret void, !dbg !589
}

; <libc::unix::linux_like::in6_rtmsg as core::clone::Clone>::clone
; Function Attrs: nonlazybind uwtable
define void @"_ZN72_$LT$libc..unix..linux_like..in6_rtmsg$u20$as$u20$core..clone..Clone$GT$5clone17hba151cf5a1977132E"(%"unix::linux_like::in6_rtmsg"* sret(%"unix::linux_like::in6_rtmsg") %0, %"unix::linux_like::in6_rtmsg"* align 8 %self) unnamed_addr #0 !dbg !590 {
start:
  %self.dbg.spill = alloca %"unix::linux_like::in6_rtmsg"*, align 8
  store %"unix::linux_like::in6_rtmsg"* %self, %"unix::linux_like::in6_rtmsg"** %self.dbg.spill, align 8
  call void @llvm.dbg.declare(metadata %"unix::linux_like::in6_rtmsg"** %self.dbg.spill, metadata !608, metadata !DIExpression()), !dbg !609
  %1 = bitcast %"unix::linux_like::in6_rtmsg"* %0 to i8*, !dbg !610
  %2 = bitcast %"unix::linux_like::in6_rtmsg"* %self to i8*, !dbg !610
  call void @llvm.memcpy.p0i8.p0i8.i64(i8* align 8 %1, i8* align 8 %2, i64 80, i1 false), !dbg !610
  ret void, !dbg !611
}

; <libc::unix::linux_like::arpreq as core::clone::Clone>::clone
; Function Attrs: nonlazybind uwtable
define void @"_ZN69_$LT$libc..unix..linux_like..arpreq$u20$as$u20$core..clone..Clone$GT$5clone17h33b42c23c1489e03E"(%"unix::linux_like::arpreq"* sret(%"unix::linux_like::arpreq") %0, %"unix::linux_like::arpreq"* align 4 %self) unnamed_addr #0 !dbg !612 {
start:
  %self.dbg.spill = alloca %"unix::linux_like::arpreq"*, align 8
  store %"unix::linux_like::arpreq"* %self, %"unix::linux_like::arpreq"** %self.dbg.spill, align 8
  call void @llvm.dbg.declare(metadata %"unix::linux_like::arpreq"** %self.dbg.spill, metadata !626, metadata !DIExpression()), !dbg !627
  %1 = bitcast %"unix::linux_like::arpreq"* %0 to i8*, !dbg !628
  %2 = bitcast %"unix::linux_like::arpreq"* %self to i8*, !dbg !628
  call void @llvm.memcpy.p0i8.p0i8.i64(i8* align 4 %1, i8* align 4 %2, i64 68, i1 false), !dbg !628
  ret void, !dbg !629
}

; <libc::unix::linux_like::arpreq_old as core::clone::Clone>::clone
; Function Attrs: nonlazybind uwtable
define void @"_ZN73_$LT$libc..unix..linux_like..arpreq_old$u20$as$u20$core..clone..Clone$GT$5clone17ha289e847a3844786E"(%"unix::linux_like::arpreq_old"* sret(%"unix::linux_like::arpreq_old") %0, %"unix::linux_like::arpreq_old"* align 4 %self) unnamed_addr #0 !dbg !630 {
start:
  %self.dbg.spill = alloca %"unix::linux_like::arpreq_old"*, align 8
  store %"unix::linux_like::arpreq_old"* %self, %"unix::linux_like::arpreq_old"** %self.dbg.spill, align 8
  call void @llvm.dbg.declare(metadata %"unix::linux_like::arpreq_old"** %self.dbg.spill, metadata !642, metadata !DIExpression()), !dbg !643
  %1 = bitcast %"unix::linux_like::arpreq_old"* %0 to i8*, !dbg !644
  %2 = bitcast %"unix::linux_like::arpreq_old"* %self to i8*, !dbg !644
  call void @llvm.memcpy.p0i8.p0i8.i64(i8* align 4 %1, i8* align 4 %2, i64 52, i1 false), !dbg !644
  ret void, !dbg !645
}

; <libc::unix::linux_like::arphdr as core::clone::Clone>::clone
; Function Attrs: nonlazybind uwtable
define i64 @"_ZN69_$LT$libc..unix..linux_like..arphdr$u20$as$u20$core..clone..Clone$GT$5clone17h31b39eb88de3f3fbE"(%"unix::linux_like::arphdr"* align 2 %self) unnamed_addr #0 !dbg !646 {
start:
  %self.dbg.spill = alloca %"unix::linux_like::arphdr"*, align 8
  %0 = alloca %"unix::linux_like::arphdr", align 2
  store %"unix::linux_like::arphdr"* %self, %"unix::linux_like::arphdr"** %self.dbg.spill, align 8
  call void @llvm.dbg.declare(metadata %"unix::linux_like::arphdr"** %self.dbg.spill, metadata !659, metadata !DIExpression()), !dbg !660
  %1 = bitcast %"unix::linux_like::arphdr"* %0 to i8*, !dbg !661
  %2 = bitcast %"unix::linux_like::arphdr"* %self to i8*, !dbg !661
  call void @llvm.memcpy.p0i8.p0i8.i64(i8* align 2 %1, i8* align 2 %2, i64 8, i1 false), !dbg !661
  %3 = bitcast %"unix::linux_like::arphdr"* %0 to i64*, !dbg !662
  %4 = load i64, i64* %3, align 2, !dbg !662
  ret i64 %4, !dbg !662
}

; <libc::unix::linux_like::mmsghdr as core::clone::Clone>::clone
; Function Attrs: nonlazybind uwtable
define void @"_ZN70_$LT$libc..unix..linux_like..mmsghdr$u20$as$u20$core..clone..Clone$GT$5clone17hae27fb12f8e3e313E"(%"unix::linux_like::mmsghdr"* sret(%"unix::linux_like::mmsghdr") %0, %"unix::linux_like::mmsghdr"* align 8 %self) unnamed_addr #0 !dbg !663 {
start:
  %self.dbg.spill = alloca %"unix::linux_like::mmsghdr"*, align 8
  store %"unix::linux_like::mmsghdr"* %self, %"unix::linux_like::mmsghdr"** %self.dbg.spill, align 8
  call void @llvm.dbg.declare(metadata %"unix::linux_like::mmsghdr"** %self.dbg.spill, metadata !685, metadata !DIExpression()), !dbg !686
  %1 = bitcast %"unix::linux_like::mmsghdr"* %0 to i8*, !dbg !687
  %2 = bitcast %"unix::linux_like::mmsghdr"* %self to i8*, !dbg !687
  call void @llvm.memcpy.p0i8.p0i8.i64(i8* align 8 %1, i8* align 8 %2, i64 64, i1 false), !dbg !687
  ret void, !dbg !688
}

; <libc::unix::linux_like::epoll_event as core::clone::Clone>::clone
; Function Attrs: nonlazybind uwtable
define void @"_ZN74_$LT$libc..unix..linux_like..epoll_event$u20$as$u20$core..clone..Clone$GT$5clone17h4da04e871c0bcf65E"(%"unix::linux_like::epoll_event"* sret(%"unix::linux_like::epoll_event") %0, %"unix::linux_like::epoll_event"* align 1 %self) unnamed_addr #0 !dbg !689 {
start:
  %self.dbg.spill = alloca %"unix::linux_like::epoll_event"*, align 8
  store %"unix::linux_like::epoll_event"* %self, %"unix::linux_like::epoll_event"** %self.dbg.spill, align 8
  call void @llvm.dbg.declare(metadata %"unix::linux_like::epoll_event"** %self.dbg.spill, metadata !699, metadata !DIExpression()), !dbg !700
  %1 = bitcast %"unix::linux_like::epoll_event"* %0 to i8*, !dbg !701
  %2 = bitcast %"unix::linux_like::epoll_event"* %self to i8*, !dbg !701
  call void @llvm.memcpy.p0i8.p0i8.i64(i8* align 1 %1, i8* align 1 %2, i64 12, i1 false), !dbg !701
  ret void, !dbg !702
}

; <libc::unix::linux_like::sockaddr_un as core::clone::Clone>::clone
; Function Attrs: nonlazybind uwtable
define void @"_ZN74_$LT$libc..unix..linux_like..sockaddr_un$u20$as$u20$core..clone..Clone$GT$5clone17h03d0aee06ab8efedE"(%"unix::linux_like::sockaddr_un"* sret(%"unix::linux_like::sockaddr_un") %0, %"unix::linux_like::sockaddr_un"* align 2 %self) unnamed_addr #0 !dbg !703 {
start:
  %self.dbg.spill = alloca %"unix::linux_like::sockaddr_un"*, align 8
  store %"unix::linux_like::sockaddr_un"* %self, %"unix::linux_like::sockaddr_un"** %self.dbg.spill, align 8
  call void @llvm.dbg.declare(metadata %"unix::linux_like::sockaddr_un"** %self.dbg.spill, metadata !716, metadata !DIExpression()), !dbg !717
  %1 = bitcast %"unix::linux_like::sockaddr_un"* %0 to i8*, !dbg !718
  %2 = bitcast %"unix::linux_like::sockaddr_un"* %self to i8*, !dbg !718
  call void @llvm.memcpy.p0i8.p0i8.i64(i8* align 2 %1, i8* align 2 %2, i64 110, i1 false), !dbg !718
  ret void, !dbg !719
}

; <libc::unix::linux_like::sockaddr_storage as core::clone::Clone>::clone
; Function Attrs: nonlazybind uwtable
define void @"_ZN79_$LT$libc..unix..linux_like..sockaddr_storage$u20$as$u20$core..clone..Clone$GT$5clone17h3509007ac7aa1b30E"(%"unix::linux_like::sockaddr_storage"* sret(%"unix::linux_like::sockaddr_storage") %0, %"unix::linux_like::sockaddr_storage"* align 8 %self) unnamed_addr #0 !dbg !720 {
start:
  %self.dbg.spill = alloca %"unix::linux_like::sockaddr_storage"*, align 8
  store %"unix::linux_like::sockaddr_storage"* %self, %"unix::linux_like::sockaddr_storage"** %self.dbg.spill, align 8
  call void @llvm.dbg.declare(metadata %"unix::linux_like::sockaddr_storage"** %self.dbg.spill, metadata !734, metadata !DIExpression()), !dbg !735
  %1 = bitcast %"unix::linux_like::sockaddr_storage"* %0 to i8*, !dbg !736
  %2 = bitcast %"unix::linux_like::sockaddr_storage"* %self to i8*, !dbg !736
  call void @llvm.memcpy.p0i8.p0i8.i64(i8* align 8 %1, i8* align 8 %2, i64 128, i1 false), !dbg !736
  ret void, !dbg !737
}

; <libc::unix::linux_like::utsname as core::clone::Clone>::clone
; Function Attrs: nonlazybind uwtable
define void @"_ZN70_$LT$libc..unix..linux_like..utsname$u20$as$u20$core..clone..Clone$GT$5clone17hc7ad7a7ea7c69986E"(%"unix::linux_like::utsname"* sret(%"unix::linux_like::utsname") %0, %"unix::linux_like::utsname"* align 1 %self) unnamed_addr #0 !dbg !738 {
start:
  %self.dbg.spill = alloca %"unix::linux_like::utsname"*, align 8
  store %"unix::linux_like::utsname"* %self, %"unix::linux_like::utsname"** %self.dbg.spill, align 8
  call void @llvm.dbg.declare(metadata %"unix::linux_like::utsname"** %self.dbg.spill, metadata !755, metadata !DIExpression()), !dbg !756
  %1 = bitcast %"unix::linux_like::utsname"* %0 to i8*, !dbg !757
  %2 = bitcast %"unix::linux_like::utsname"* %self to i8*, !dbg !757
  call void @llvm.memcpy.p0i8.p0i8.i64(i8* align 1 %1, i8* align 1 %2, i64 390, i1 false), !dbg !757
  ret void, !dbg !758
}

; <libc::unix::linux_like::sigevent as core::clone::Clone>::clone
; Function Attrs: nonlazybind uwtable
define void @"_ZN71_$LT$libc..unix..linux_like..sigevent$u20$as$u20$core..clone..Clone$GT$5clone17h8ac5aa3bd151f430E"(%"unix::linux_like::sigevent"* sret(%"unix::linux_like::sigevent") %0, %"unix::linux_like::sigevent"* align 8 %self) unnamed_addr #0 !dbg !759 {
start:
  %self.dbg.spill = alloca %"unix::linux_like::sigevent"*, align 8
  store %"unix::linux_like::sigevent"* %self, %"unix::linux_like::sigevent"** %self.dbg.spill, align 8
  call void @llvm.dbg.declare(metadata %"unix::linux_like::sigevent"** %self.dbg.spill, metadata !775, metadata !DIExpression()), !dbg !776
  %1 = bitcast %"unix::linux_like::sigevent"* %0 to i8*, !dbg !777
  %2 = bitcast %"unix::linux_like::sigevent"* %self to i8*, !dbg !777
  call void @llvm.memcpy.p0i8.p0i8.i64(i8* align 8 %1, i8* align 8 %2, i64 64, i1 false), !dbg !777
  ret void, !dbg !778
}

; libc::unix::linux_like::linux::FUTEX_OP
; Function Attrs: nonlazybind uwtable
define i32 @_ZN4libc4unix10linux_like5linux8FUTEX_OP17h91a7eab9233828aaE(i32 %op, i32 %oparg, i32 %cmp, i32 %cmparg) unnamed_addr #0 !dbg !779 {
start:
  %cmparg.dbg.spill = alloca i32, align 4
  %cmp.dbg.spill = alloca i32, align 4
  %oparg.dbg.spill = alloca i32, align 4
  %op.dbg.spill = alloca i32, align 4
  store i32 %op, i32* %op.dbg.spill, align 4
  call void @llvm.dbg.declare(metadata i32* %op.dbg.spill, metadata !784, metadata !DIExpression()), !dbg !788
  store i32 %oparg, i32* %oparg.dbg.spill, align 4
  call void @llvm.dbg.declare(metadata i32* %oparg.dbg.spill, metadata !785, metadata !DIExpression()), !dbg !789
  store i32 %cmp, i32* %cmp.dbg.spill, align 4
  call void @llvm.dbg.declare(metadata i32* %cmp.dbg.spill, metadata !786, metadata !DIExpression()), !dbg !790
  store i32 %cmparg, i32* %cmparg.dbg.spill, align 4
  call void @llvm.dbg.declare(metadata i32* %cmparg.dbg.spill, metadata !787, metadata !DIExpression()), !dbg !791
  %_8 = and i32 %op, 15, !dbg !792
  %_10.0 = shl i32 %_8, 28, !dbg !793
  br label %bb1, !dbg !793

bb1:                                              ; preds = %start
  %_12 = and i32 %cmp, 15, !dbg !794
  %_14.0 = shl i32 %_12, 24, !dbg !795
  br label %bb2, !dbg !795

bb2:                                              ; preds = %bb1
  %_6 = or i32 %_10.0, %_14.0, !dbg !793
  %_16 = and i32 %oparg, 4095, !dbg !796
  %_18.0 = shl i32 %_16, 12, !dbg !797
  br label %bb3, !dbg !797

bb3:                                              ; preds = %bb2
  %_5 = or i32 %_6, %_18.0, !dbg !793
  %_19 = and i32 %cmparg, 4095, !dbg !798
  %0 = or i32 %_5, %_19, !dbg !793
  ret i32 %0, !dbg !799
}

; <libc::unix::linux_like::linux::glob_t as core::clone::Clone>::clone
; Function Attrs: nonlazybind uwtable
define void @"_ZN76_$LT$libc..unix..linux_like..linux..glob_t$u20$as$u20$core..clone..Clone$GT$5clone17hceb693c19067729eE"(%"unix::linux_like::linux::glob_t"* sret(%"unix::linux_like::linux::glob_t") %0, %"unix::linux_like::linux::glob_t"* align 8 %self) unnamed_addr #0 !dbg !800 {
start:
  %self.dbg.spill = alloca %"unix::linux_like::linux::glob_t"*, align 8
  store %"unix::linux_like::linux::glob_t"* %self, %"unix::linux_like::linux::glob_t"** %self.dbg.spill, align 8
  call void @llvm.dbg.declare(metadata %"unix::linux_like::linux::glob_t"** %self.dbg.spill, metadata !817, metadata !DIExpression()), !dbg !818
  %1 = bitcast %"unix::linux_like::linux::glob_t"* %0 to i8*, !dbg !819
  %2 = bitcast %"unix::linux_like::linux::glob_t"* %self to i8*, !dbg !819
  call void @llvm.memcpy.p0i8.p0i8.i64(i8* align 8 %1, i8* align 8 %2, i64 72, i1 false), !dbg !819
  ret void, !dbg !820
}

; <libc::unix::linux_like::linux::passwd as core::clone::Clone>::clone
; Function Attrs: nonlazybind uwtable
define void @"_ZN76_$LT$libc..unix..linux_like..linux..passwd$u20$as$u20$core..clone..Clone$GT$5clone17h639b3f463860ec61E"(%"unix::linux_like::linux::passwd"* sret(%"unix::linux_like::linux::passwd") %0, %"unix::linux_like::linux::passwd"* align 8 %self) unnamed_addr #0 !dbg !821 {
start:
  %self.dbg.spill = alloca %"unix::linux_like::linux::passwd"*, align 8
  store %"unix::linux_like::linux::passwd"* %self, %"unix::linux_like::linux::passwd"** %self.dbg.spill, align 8
  call void @llvm.dbg.declare(metadata %"unix::linux_like::linux::passwd"** %self.dbg.spill, metadata !836, metadata !DIExpression()), !dbg !837
  %1 = bitcast %"unix::linux_like::linux::passwd"* %0 to i8*, !dbg !838
  %2 = bitcast %"unix::linux_like::linux::passwd"* %self to i8*, !dbg !838
  call void @llvm.memcpy.p0i8.p0i8.i64(i8* align 8 %1, i8* align 8 %2, i64 48, i1 false), !dbg !838
  ret void, !dbg !839
}

; <libc::unix::linux_like::linux::spwd as core::clone::Clone>::clone
; Function Attrs: nonlazybind uwtable
define void @"_ZN74_$LT$libc..unix..linux_like..linux..spwd$u20$as$u20$core..clone..Clone$GT$5clone17h51552c6b27dc66fcE"(%"unix::linux_like::linux::spwd"* sret(%"unix::linux_like::linux::spwd") %0, %"unix::linux_like::linux::spwd"* align 8 %self) unnamed_addr #0 !dbg !840 {
start:
  %self.dbg.spill = alloca %"unix::linux_like::linux::spwd"*, align 8
  store %"unix::linux_like::linux::spwd"* %self, %"unix::linux_like::linux::spwd"** %self.dbg.spill, align 8
  call void @llvm.dbg.declare(metadata %"unix::linux_like::linux::spwd"** %self.dbg.spill, metadata !857, metadata !DIExpression()), !dbg !858
  %1 = bitcast %"unix::linux_like::linux::spwd"* %0 to i8*, !dbg !859
  %2 = bitcast %"unix::linux_like::linux::spwd"* %self to i8*, !dbg !859
  call void @llvm.memcpy.p0i8.p0i8.i64(i8* align 8 %1, i8* align 8 %2, i64 72, i1 false), !dbg !859
  ret void, !dbg !860
}

; <libc::unix::linux_like::linux::dqblk as core::clone::Clone>::clone
; Function Attrs: nonlazybind uwtable
define void @"_ZN75_$LT$libc..unix..linux_like..linux..dqblk$u20$as$u20$core..clone..Clone$GT$5clone17hc829ceb5fb406ae4E"(%"unix::linux_like::linux::dqblk"* sret(%"unix::linux_like::linux::dqblk") %0, %"unix::linux_like::linux::dqblk"* align 8 %self) unnamed_addr #0 !dbg !861 {
start:
  %self.dbg.spill = alloca %"unix::linux_like::linux::dqblk"*, align 8
  store %"unix::linux_like::linux::dqblk"* %self, %"unix::linux_like::linux::dqblk"** %self.dbg.spill, align 8
  call void @llvm.dbg.declare(metadata %"unix::linux_like::linux::dqblk"** %self.dbg.spill, metadata !878, metadata !DIExpression()), !dbg !879
  %1 = bitcast %"unix::linux_like::linux::dqblk"* %0 to i8*, !dbg !880
  %2 = bitcast %"unix::linux_like::linux::dqblk"* %self to i8*, !dbg !880
  call void @llvm.memcpy.p0i8.p0i8.i64(i8* align 8 %1, i8* align 8 %2, i64 72, i1 false), !dbg !880
  ret void, !dbg !881
}

; <libc::unix::linux_like::linux::signalfd_siginfo as core::clone::Clone>::clone
; Function Attrs: nonlazybind uwtable
define void @"_ZN86_$LT$libc..unix..linux_like..linux..signalfd_siginfo$u20$as$u20$core..clone..Clone$GT$5clone17h1a477afd0947f27eE"(%"unix::linux_like::linux::signalfd_siginfo"* sret(%"unix::linux_like::linux::signalfd_siginfo") %0, %"unix::linux_like::linux::signalfd_siginfo"* align 8 %self) unnamed_addr #0 !dbg !882 {
start:
  %self.dbg.spill = alloca %"unix::linux_like::linux::signalfd_siginfo"*, align 8
  store %"unix::linux_like::linux::signalfd_siginfo"* %self, %"unix::linux_like::linux::signalfd_siginfo"** %self.dbg.spill, align 8
  call void @llvm.dbg.declare(metadata %"unix::linux_like::linux::signalfd_siginfo"** %self.dbg.spill, metadata !915, metadata !DIExpression()), !dbg !916
  %1 = bitcast %"unix::linux_like::linux::signalfd_siginfo"* %0 to i8*, !dbg !917
  %2 = bitcast %"unix::linux_like::linux::signalfd_siginfo"* %self to i8*, !dbg !917
  call void @llvm.memcpy.p0i8.p0i8.i64(i8* align 8 %1, i8* align 8 %2, i64 128, i1 false), !dbg !917
  ret void, !dbg !918
}

; <libc::unix::linux_like::linux::itimerspec as core::clone::Clone>::clone
; Function Attrs: nonlazybind uwtable
define void @"_ZN80_$LT$libc..unix..linux_like..linux..itimerspec$u20$as$u20$core..clone..Clone$GT$5clone17hd38c86cee7989028E"(%"unix::linux_like::linux::itimerspec"* sret(%"unix::linux_like::linux::itimerspec") %0, %"unix::linux_like::linux::itimerspec"* align 8 %self) unnamed_addr #0 !dbg !919 {
start:
  %self.dbg.spill = alloca %"unix::linux_like::linux::itimerspec"*, align 8
  store %"unix::linux_like::linux::itimerspec"* %self, %"unix::linux_like::linux::itimerspec"** %self.dbg.spill, align 8
  call void @llvm.dbg.declare(metadata %"unix::linux_like::linux::itimerspec"** %self.dbg.spill, metadata !929, metadata !DIExpression()), !dbg !930
  %1 = bitcast %"unix::linux_like::linux::itimerspec"* %0 to i8*, !dbg !931
  %2 = bitcast %"unix::linux_like::linux::itimerspec"* %self to i8*, !dbg !931
  call void @llvm.memcpy.p0i8.p0i8.i64(i8* align 8 %1, i8* align 8 %2, i64 32, i1 false), !dbg !931
  ret void, !dbg !932
}

; <libc::unix::linux_like::linux::fsid_t as core::clone::Clone>::clone
; Function Attrs: nonlazybind uwtable
define i64 @"_ZN76_$LT$libc..unix..linux_like..linux..fsid_t$u20$as$u20$core..clone..Clone$GT$5clone17h76e2f231896c9681E"(%"unix::linux_like::linux::fsid_t"* align 4 %self) unnamed_addr #0 !dbg !933 {
start:
  %self.dbg.spill = alloca %"unix::linux_like::linux::fsid_t"*, align 8
  %0 = alloca %"unix::linux_like::linux::fsid_t", align 4
  store %"unix::linux_like::linux::fsid_t"* %self, %"unix::linux_like::linux::fsid_t"** %self.dbg.spill, align 8
  call void @llvm.dbg.declare(metadata %"unix::linux_like::linux::fsid_t"** %self.dbg.spill, metadata !945, metadata !DIExpression()), !dbg !946
  %1 = bitcast %"unix::linux_like::linux::fsid_t"* %0 to i8*, !dbg !947
  %2 = bitcast %"unix::linux_like::linux::fsid_t"* %self to i8*, !dbg !947
  call void @llvm.memcpy.p0i8.p0i8.i64(i8* align 4 %1, i8* align 4 %2, i64 8, i1 false), !dbg !947
  %3 = bitcast %"unix::linux_like::linux::fsid_t"* %0 to i64*, !dbg !948
  %4 = load i64, i64* %3, align 4, !dbg !948
  ret i64 %4, !dbg !948
}

; <libc::unix::linux_like::linux::packet_mreq as core::clone::Clone>::clone
; Function Attrs: nonlazybind uwtable
define void @"_ZN81_$LT$libc..unix..linux_like..linux..packet_mreq$u20$as$u20$core..clone..Clone$GT$5clone17hb6881fd7e1aecd59E"(%"unix::linux_like::linux::packet_mreq"* sret(%"unix::linux_like::linux::packet_mreq") %0, %"unix::linux_like::linux::packet_mreq"* align 4 %self) unnamed_addr #0 !dbg !949 {
start:
  %self.dbg.spill = alloca %"unix::linux_like::linux::packet_mreq"*, align 8
  store %"unix::linux_like::linux::packet_mreq"* %self, %"unix::linux_like::linux::packet_mreq"** %self.dbg.spill, align 8
  call void @llvm.dbg.declare(metadata %"unix::linux_like::linux::packet_mreq"** %self.dbg.spill, metadata !961, metadata !DIExpression()), !dbg !962
  %1 = bitcast %"unix::linux_like::linux::packet_mreq"* %0 to i8*, !dbg !963
  %2 = bitcast %"unix::linux_like::linux::packet_mreq"* %self to i8*, !dbg !963
  call void @llvm.memcpy.p0i8.p0i8.i64(i8* align 4 %1, i8* align 4 %2, i64 16, i1 false), !dbg !963
  ret void, !dbg !964
}

; <libc::unix::linux_like::linux::cpu_set_t as core::clone::Clone>::clone
; Function Attrs: nonlazybind uwtable
define void @"_ZN79_$LT$libc..unix..linux_like..linux..cpu_set_t$u20$as$u20$core..clone..Clone$GT$5clone17he7541c481968a157E"(%"unix::linux_like::linux::cpu_set_t"* sret(%"unix::linux_like::linux::cpu_set_t") %0, %"unix::linux_like::linux::cpu_set_t"* align 8 %self) unnamed_addr #0 !dbg !965 {
start:
  %self.dbg.spill = alloca %"unix::linux_like::linux::cpu_set_t"*, align 8
  store %"unix::linux_like::linux::cpu_set_t"* %self, %"unix::linux_like::linux::cpu_set_t"** %self.dbg.spill, align 8
  call void @llvm.dbg.declare(metadata %"unix::linux_like::linux::cpu_set_t"** %self.dbg.spill, metadata !974, metadata !DIExpression()), !dbg !975
  %1 = bitcast %"unix::linux_like::linux::cpu_set_t"* %0 to i8*, !dbg !976
  %2 = bitcast %"unix::linux_like::linux::cpu_set_t"* %self to i8*, !dbg !976
  call void @llvm.memcpy.p0i8.p0i8.i64(i8* align 8 %1, i8* align 8 %2, i64 128, i1 false), !dbg !976
  ret void, !dbg !977
}

; <libc::unix::linux_like::linux::if_nameindex as core::clone::Clone>::clone
; Function Attrs: nonlazybind uwtable
define { i32, i8* } @"_ZN82_$LT$libc..unix..linux_like..linux..if_nameindex$u20$as$u20$core..clone..Clone$GT$5clone17h3ff11f09c9d388f9E"({ i32, i8* }* align 8 %self) unnamed_addr #0 !dbg !978 {
start:
  %self.dbg.spill = alloca { i32, i8* }*, align 8
  store { i32, i8* }* %self, { i32, i8* }** %self.dbg.spill, align 8
  call void @llvm.dbg.declare(metadata { i32, i8* }** %self.dbg.spill, metadata !988, metadata !DIExpression()), !dbg !989
  %0 = getelementptr inbounds { i32, i8* }, { i32, i8* }* %self, i32 0, i32 0, !dbg !990
  %1 = load i32, i32* %0, align 8, !dbg !990
  %2 = getelementptr inbounds { i32, i8* }, { i32, i8* }* %self, i32 0, i32 1, !dbg !990
  %3 = load i8*, i8** %2, align 8, !dbg !990
  %4 = insertvalue { i32, i8* } undef, i32 %1, 0, !dbg !991
  %5 = insertvalue { i32, i8* } %4, i8* %3, 1, !dbg !991
  ret { i32, i8* } %5, !dbg !991
}

; <libc::unix::linux_like::linux::msginfo as core::clone::Clone>::clone
; Function Attrs: nonlazybind uwtable
define void @"_ZN77_$LT$libc..unix..linux_like..linux..msginfo$u20$as$u20$core..clone..Clone$GT$5clone17h502a9a7edf3cc0f7E"(%"unix::linux_like::linux::msginfo"* sret(%"unix::linux_like::linux::msginfo") %0, %"unix::linux_like::linux::msginfo"* align 4 %self) unnamed_addr #0 !dbg !992 {
start:
  %self.dbg.spill = alloca %"unix::linux_like::linux::msginfo"*, align 8
  store %"unix::linux_like::linux::msginfo"* %self, %"unix::linux_like::linux::msginfo"** %self.dbg.spill, align 8
  call void @llvm.dbg.declare(metadata %"unix::linux_like::linux::msginfo"** %self.dbg.spill, metadata !1008, metadata !DIExpression()), !dbg !1009
  %1 = bitcast %"unix::linux_like::linux::msginfo"* %0 to i8*, !dbg !1010
  %2 = bitcast %"unix::linux_like::linux::msginfo"* %self to i8*, !dbg !1010
  call void @llvm.memcpy.p0i8.p0i8.i64(i8* align 4 %1, i8* align 4 %2, i64 32, i1 false), !dbg !1010
  ret void, !dbg !1011
}

; <libc::unix::linux_like::linux::sembuf as core::clone::Clone>::clone
; Function Attrs: nonlazybind uwtable
define i48 @"_ZN76_$LT$libc..unix..linux_like..linux..sembuf$u20$as$u20$core..clone..Clone$GT$5clone17h73119c54ec6b98b8E"(%"unix::linux_like::linux::sembuf"* align 2 %self) unnamed_addr #0 !dbg !1012 {
start:
  %self.dbg.spill = alloca %"unix::linux_like::linux::sembuf"*, align 8
  %0 = alloca %"unix::linux_like::linux::sembuf", align 2
  store %"unix::linux_like::linux::sembuf"* %self, %"unix::linux_like::linux::sembuf"** %self.dbg.spill, align 8
  call void @llvm.dbg.declare(metadata %"unix::linux_like::linux::sembuf"** %self.dbg.spill, metadata !1023, metadata !DIExpression()), !dbg !1024
  %1 = bitcast %"unix::linux_like::linux::sembuf"* %0 to i8*, !dbg !1025
  %2 = bitcast %"unix::linux_like::linux::sembuf"* %self to i8*, !dbg !1025
  call void @llvm.memcpy.p0i8.p0i8.i64(i8* align 2 %1, i8* align 2 %2, i64 6, i1 false), !dbg !1025
  %3 = bitcast %"unix::linux_like::linux::sembuf"* %0 to i48*, !dbg !1026
  %4 = load i48, i48* %3, align 2, !dbg !1026
  ret i48 %4, !dbg !1026
}

; <libc::unix::linux_like::linux::input_event as core::clone::Clone>::clone
; Function Attrs: nonlazybind uwtable
define void @"_ZN81_$LT$libc..unix..linux_like..linux..input_event$u20$as$u20$core..clone..Clone$GT$5clone17ha5f9df22e5e8c696E"(%"unix::linux_like::linux::input_event"* sret(%"unix::linux_like::linux::input_event") %0, %"unix::linux_like::linux::input_event"* align 8 %self) unnamed_addr #0 !dbg !1027 {
start:
  %self.dbg.spill = alloca %"unix::linux_like::linux::input_event"*, align 8
  store %"unix::linux_like::linux::input_event"* %self, %"unix::linux_like::linux::input_event"** %self.dbg.spill, align 8
  call void @llvm.dbg.declare(metadata %"unix::linux_like::linux::input_event"** %self.dbg.spill, metadata !1039, metadata !DIExpression()), !dbg !1040
  %1 = bitcast %"unix::linux_like::linux::input_event"* %0 to i8*, !dbg !1041
  %2 = bitcast %"unix::linux_like::linux::input_event"* %self to i8*, !dbg !1041
  call void @llvm.memcpy.p0i8.p0i8.i64(i8* align 8 %1, i8* align 8 %2, i64 24, i1 false), !dbg !1041
  ret void, !dbg !1042
}

; <libc::unix::linux_like::linux::input_id as core::clone::Clone>::clone
; Function Attrs: nonlazybind uwtable
define i64 @"_ZN78_$LT$libc..unix..linux_like..linux..input_id$u20$as$u20$core..clone..Clone$GT$5clone17h1b7444418007f54bE"(%"unix::linux_like::linux::input_id"* align 2 %self) unnamed_addr #0 !dbg !1043 {
start:
  %self.dbg.spill = alloca %"unix::linux_like::linux::input_id"*, align 8
  %0 = alloca %"unix::linux_like::linux::input_id", align 2
  store %"unix::linux_like::linux::input_id"* %self, %"unix::linux_like::linux::input_id"** %self.dbg.spill, align 8
  call void @llvm.dbg.declare(metadata %"unix::linux_like::linux::input_id"** %self.dbg.spill, metadata !1055, metadata !DIExpression()), !dbg !1056
  %1 = bitcast %"unix::linux_like::linux::input_id"* %0 to i8*, !dbg !1057
  %2 = bitcast %"unix::linux_like::linux::input_id"* %self to i8*, !dbg !1057
  call void @llvm.memcpy.p0i8.p0i8.i64(i8* align 2 %1, i8* align 2 %2, i64 8, i1 false), !dbg !1057
  %3 = bitcast %"unix::linux_like::linux::input_id"* %0 to i64*, !dbg !1058
  %4 = load i64, i64* %3, align 2, !dbg !1058
  ret i64 %4, !dbg !1058
}

; <libc::unix::linux_like::linux::input_absinfo as core::clone::Clone>::clone
; Function Attrs: nonlazybind uwtable
define void @"_ZN83_$LT$libc..unix..linux_like..linux..input_absinfo$u20$as$u20$core..clone..Clone$GT$5clone17ha643765e10cf46b3E"(%"unix::linux_like::linux::input_absinfo"* sret(%"unix::linux_like::linux::input_absinfo") %0, %"unix::linux_like::linux::input_absinfo"* align 4 %self) unnamed_addr #0 !dbg !1059 {
start:
  %self.dbg.spill = alloca %"unix::linux_like::linux::input_absinfo"*, align 8
  store %"unix::linux_like::linux::input_absinfo"* %self, %"unix::linux_like::linux::input_absinfo"** %self.dbg.spill, align 8
  call void @llvm.dbg.declare(metadata %"unix::linux_like::linux::input_absinfo"** %self.dbg.spill, metadata !1073, metadata !DIExpression()), !dbg !1074
  %1 = bitcast %"unix::linux_like::linux::input_absinfo"* %0 to i8*, !dbg !1075
  %2 = bitcast %"unix::linux_like::linux::input_absinfo"* %self to i8*, !dbg !1075
  call void @llvm.memcpy.p0i8.p0i8.i64(i8* align 4 %1, i8* align 4 %2, i64 24, i1 false), !dbg !1075
  ret void, !dbg !1076
}

; <libc::unix::linux_like::linux::input_keymap_entry as core::clone::Clone>::clone
; Function Attrs: nonlazybind uwtable
define void @"_ZN88_$LT$libc..unix..linux_like..linux..input_keymap_entry$u20$as$u20$core..clone..Clone$GT$5clone17h9fa73fa5701e1bedE"(%"unix::linux_like::linux::input_keymap_entry"* sret(%"unix::linux_like::linux::input_keymap_entry") %0, %"unix::linux_like::linux::input_keymap_entry"* align 4 %self) unnamed_addr #0 !dbg !1077 {
start:
  %self.dbg.spill = alloca %"unix::linux_like::linux::input_keymap_entry"*, align 8
  store %"unix::linux_like::linux::input_keymap_entry"* %self, %"unix::linux_like::linux::input_keymap_entry"** %self.dbg.spill, align 8
  call void @llvm.dbg.declare(metadata %"unix::linux_like::linux::input_keymap_entry"** %self.dbg.spill, metadata !1093, metadata !DIExpression()), !dbg !1094
  %1 = bitcast %"unix::linux_like::linux::input_keymap_entry"* %0 to i8*, !dbg !1095
  %2 = bitcast %"unix::linux_like::linux::input_keymap_entry"* %self to i8*, !dbg !1095
  call void @llvm.memcpy.p0i8.p0i8.i64(i8* align 4 %1, i8* align 4 %2, i64 40, i1 false), !dbg !1095
  ret void, !dbg !1096
}

; <libc::unix::linux_like::linux::input_mask as core::clone::Clone>::clone
; Function Attrs: nonlazybind uwtable
define void @"_ZN80_$LT$libc..unix..linux_like..linux..input_mask$u20$as$u20$core..clone..Clone$GT$5clone17h52a3fbdef9d92a53E"(%"unix::linux_like::linux::input_mask"* sret(%"unix::linux_like::linux::input_mask") %0, %"unix::linux_like::linux::input_mask"* align 8 %self) unnamed_addr #0 !dbg !1097 {
start:
  %self.dbg.spill = alloca %"unix::linux_like::linux::input_mask"*, align 8
  store %"unix::linux_like::linux::input_mask"* %self, %"unix::linux_like::linux::input_mask"** %self.dbg.spill, align 8
  call void @llvm.dbg.declare(metadata %"unix::linux_like::linux::input_mask"** %self.dbg.spill, metadata !1108, metadata !DIExpression()), !dbg !1109
  %1 = bitcast %"unix::linux_like::linux::input_mask"* %0 to i8*, !dbg !1110
  %2 = bitcast %"unix::linux_like::linux::input_mask"* %self to i8*, !dbg !1110
  call void @llvm.memcpy.p0i8.p0i8.i64(i8* align 8 %1, i8* align 8 %2, i64 16, i1 false), !dbg !1110
  ret void, !dbg !1111
}

; <libc::unix::linux_like::linux::ff_replay as core::clone::Clone>::clone
; Function Attrs: nonlazybind uwtable
define { i16, i16 } @"_ZN79_$LT$libc..unix..linux_like..linux..ff_replay$u20$as$u20$core..clone..Clone$GT$5clone17h96d2552365bdc483E"({ i16, i16 }* align 2 %self) unnamed_addr #0 !dbg !1112 {
start:
  %self.dbg.spill = alloca { i16, i16 }*, align 8
  store { i16, i16 }* %self, { i16, i16 }** %self.dbg.spill, align 8
  call void @llvm.dbg.declare(metadata { i16, i16 }** %self.dbg.spill, metadata !1122, metadata !DIExpression()), !dbg !1123
  %0 = getelementptr inbounds { i16, i16 }, { i16, i16 }* %self, i32 0, i32 0, !dbg !1124
  %1 = load i16, i16* %0, align 2, !dbg !1124
  %2 = getelementptr inbounds { i16, i16 }, { i16, i16 }* %self, i32 0, i32 1, !dbg !1124
  %3 = load i16, i16* %2, align 2, !dbg !1124
  %4 = insertvalue { i16, i16 } undef, i16 %1, 0, !dbg !1125
  %5 = insertvalue { i16, i16 } %4, i16 %3, 1, !dbg !1125
  ret { i16, i16 } %5, !dbg !1125
}

; <libc::unix::linux_like::linux::ff_trigger as core::clone::Clone>::clone
; Function Attrs: nonlazybind uwtable
define { i16, i16 } @"_ZN80_$LT$libc..unix..linux_like..linux..ff_trigger$u20$as$u20$core..clone..Clone$GT$5clone17he75fcb79f1562c8bE"({ i16, i16 }* align 2 %self) unnamed_addr #0 !dbg !1126 {
start:
  %self.dbg.spill = alloca { i16, i16 }*, align 8
  store { i16, i16 }* %self, { i16, i16 }** %self.dbg.spill, align 8
  call void @llvm.dbg.declare(metadata { i16, i16 }** %self.dbg.spill, metadata !1136, metadata !DIExpression()), !dbg !1137
  %0 = getelementptr inbounds { i16, i16 }, { i16, i16 }* %self, i32 0, i32 0, !dbg !1138
  %1 = load i16, i16* %0, align 2, !dbg !1138
  %2 = getelementptr inbounds { i16, i16 }, { i16, i16 }* %self, i32 0, i32 1, !dbg !1138
  %3 = load i16, i16* %2, align 2, !dbg !1138
  %4 = insertvalue { i16, i16 } undef, i16 %1, 0, !dbg !1139
  %5 = insertvalue { i16, i16 } %4, i16 %3, 1, !dbg !1139
  ret { i16, i16 } %5, !dbg !1139
}

; <libc::unix::linux_like::linux::ff_envelope as core::clone::Clone>::clone
; Function Attrs: nonlazybind uwtable
define i64 @"_ZN81_$LT$libc..unix..linux_like..linux..ff_envelope$u20$as$u20$core..clone..Clone$GT$5clone17he3558589ec02d24eE"(%"unix::linux_like::linux::ff_envelope"* align 2 %self) unnamed_addr #0 !dbg !1140 {
start:
  %self.dbg.spill = alloca %"unix::linux_like::linux::ff_envelope"*, align 8
  %0 = alloca %"unix::linux_like::linux::ff_envelope", align 2
  store %"unix::linux_like::linux::ff_envelope"* %self, %"unix::linux_like::linux::ff_envelope"** %self.dbg.spill, align 8
  call void @llvm.dbg.declare(metadata %"unix::linux_like::linux::ff_envelope"** %self.dbg.spill, metadata !1152, metadata !DIExpression()), !dbg !1153
  %1 = bitcast %"unix::linux_like::linux::ff_envelope"* %0 to i8*, !dbg !1154
  %2 = bitcast %"unix::linux_like::linux::ff_envelope"* %self to i8*, !dbg !1154
  call void @llvm.memcpy.p0i8.p0i8.i64(i8* align 2 %1, i8* align 2 %2, i64 8, i1 false), !dbg !1154
  %3 = bitcast %"unix::linux_like::linux::ff_envelope"* %0 to i64*, !dbg !1155
  %4 = load i64, i64* %3, align 2, !dbg !1155
  ret i64 %4, !dbg !1155
}

; <libc::unix::linux_like::linux::ff_constant_effect as core::clone::Clone>::clone
; Function Attrs: nonlazybind uwtable
define void @"_ZN88_$LT$libc..unix..linux_like..linux..ff_constant_effect$u20$as$u20$core..clone..Clone$GT$5clone17h960301397af3a1eeE"(%"unix::linux_like::linux::ff_constant_effect"* sret(%"unix::linux_like::linux::ff_constant_effect") %0, %"unix::linux_like::linux::ff_constant_effect"* align 2 %self) unnamed_addr #0 !dbg !1156 {
start:
  %self.dbg.spill = alloca %"unix::linux_like::linux::ff_constant_effect"*, align 8
  store %"unix::linux_like::linux::ff_constant_effect"* %self, %"unix::linux_like::linux::ff_constant_effect"** %self.dbg.spill, align 8
  call void @llvm.dbg.declare(metadata %"unix::linux_like::linux::ff_constant_effect"** %self.dbg.spill, metadata !1166, metadata !DIExpression()), !dbg !1167
  %1 = bitcast %"unix::linux_like::linux::ff_constant_effect"* %0 to i8*, !dbg !1168
  %2 = bitcast %"unix::linux_like::linux::ff_constant_effect"* %self to i8*, !dbg !1168
  call void @llvm.memcpy.p0i8.p0i8.i64(i8* align 2 %1, i8* align 2 %2, i64 10, i1 false), !dbg !1168
  ret void, !dbg !1169
}

; <libc::unix::linux_like::linux::ff_ramp_effect as core::clone::Clone>::clone
; Function Attrs: nonlazybind uwtable
define void @"_ZN84_$LT$libc..unix..linux_like..linux..ff_ramp_effect$u20$as$u20$core..clone..Clone$GT$5clone17h2c97715faf3810d7E"(%"unix::linux_like::linux::ff_ramp_effect"* sret(%"unix::linux_like::linux::ff_ramp_effect") %0, %"unix::linux_like::linux::ff_ramp_effect"* align 2 %self) unnamed_addr #0 !dbg !1170 {
start:
  %self.dbg.spill = alloca %"unix::linux_like::linux::ff_ramp_effect"*, align 8
  store %"unix::linux_like::linux::ff_ramp_effect"* %self, %"unix::linux_like::linux::ff_ramp_effect"** %self.dbg.spill, align 8
  call void @llvm.dbg.declare(metadata %"unix::linux_like::linux::ff_ramp_effect"** %self.dbg.spill, metadata !1181, metadata !DIExpression()), !dbg !1182
  %1 = bitcast %"unix::linux_like::linux::ff_ramp_effect"* %0 to i8*, !dbg !1183
  %2 = bitcast %"unix::linux_like::linux::ff_ramp_effect"* %self to i8*, !dbg !1183
  call void @llvm.memcpy.p0i8.p0i8.i64(i8* align 2 %1, i8* align 2 %2, i64 12, i1 false), !dbg !1183
  ret void, !dbg !1184
}

; <libc::unix::linux_like::linux::ff_condition_effect as core::clone::Clone>::clone
; Function Attrs: nonlazybind uwtable
define void @"_ZN89_$LT$libc..unix..linux_like..linux..ff_condition_effect$u20$as$u20$core..clone..Clone$GT$5clone17h07337340308542f4E"(%"unix::linux_like::linux::ff_condition_effect"* sret(%"unix::linux_like::linux::ff_condition_effect") %0, %"unix::linux_like::linux::ff_condition_effect"* align 2 %self) unnamed_addr #0 !dbg !1185 {
start:
  %self.dbg.spill = alloca %"unix::linux_like::linux::ff_condition_effect"*, align 8
  store %"unix::linux_like::linux::ff_condition_effect"* %self, %"unix::linux_like::linux::ff_condition_effect"** %self.dbg.spill, align 8
  call void @llvm.dbg.declare(metadata %"unix::linux_like::linux::ff_condition_effect"** %self.dbg.spill, metadata !1199, metadata !DIExpression()), !dbg !1200
  %1 = bitcast %"unix::linux_like::linux::ff_condition_effect"* %0 to i8*, !dbg !1201
  %2 = bitcast %"unix::linux_like::linux::ff_condition_effect"* %self to i8*, !dbg !1201
  call void @llvm.memcpy.p0i8.p0i8.i64(i8* align 2 %1, i8* align 2 %2, i64 12, i1 false), !dbg !1201
  ret void, !dbg !1202
}

; <libc::unix::linux_like::linux::ff_periodic_effect as core::clone::Clone>::clone
; Function Attrs: nonlazybind uwtable
define void @"_ZN88_$LT$libc..unix..linux_like..linux..ff_periodic_effect$u20$as$u20$core..clone..Clone$GT$5clone17h52d952f9860ab392E"(%"unix::linux_like::linux::ff_periodic_effect"* sret(%"unix::linux_like::linux::ff_periodic_effect") %0, %"unix::linux_like::linux::ff_periodic_effect"* align 8 %self) unnamed_addr #0 !dbg !1203 {
start:
  %self.dbg.spill = alloca %"unix::linux_like::linux::ff_periodic_effect"*, align 8
  store %"unix::linux_like::linux::ff_periodic_effect"* %self, %"unix::linux_like::linux::ff_periodic_effect"** %self.dbg.spill, align 8
  call void @llvm.dbg.declare(metadata %"unix::linux_like::linux::ff_periodic_effect"** %self.dbg.spill, metadata !1220, metadata !DIExpression()), !dbg !1221
  %1 = bitcast %"unix::linux_like::linux::ff_periodic_effect"* %0 to i8*, !dbg !1222
  %2 = bitcast %"unix::linux_like::linux::ff_periodic_effect"* %self to i8*, !dbg !1222
  call void @llvm.memcpy.p0i8.p0i8.i64(i8* align 8 %1, i8* align 8 %2, i64 32, i1 false), !dbg !1222
  ret void, !dbg !1223
}

; <libc::unix::linux_like::linux::ff_rumble_effect as core::clone::Clone>::clone
; Function Attrs: nonlazybind uwtable
define { i16, i16 } @"_ZN86_$LT$libc..unix..linux_like..linux..ff_rumble_effect$u20$as$u20$core..clone..Clone$GT$5clone17haf57eaf0a4400afbE"({ i16, i16 }* align 2 %self) unnamed_addr #0 !dbg !1224 {
start:
  %self.dbg.spill = alloca { i16, i16 }*, align 8
  store { i16, i16 }* %self, { i16, i16 }** %self.dbg.spill, align 8
  call void @llvm.dbg.declare(metadata { i16, i16 }** %self.dbg.spill, metadata !1234, metadata !DIExpression()), !dbg !1235
  %0 = getelementptr inbounds { i16, i16 }, { i16, i16 }* %self, i32 0, i32 0, !dbg !1236
  %1 = load i16, i16* %0, align 2, !dbg !1236
  %2 = getelementptr inbounds { i16, i16 }, { i16, i16 }* %self, i32 0, i32 1, !dbg !1236
  %3 = load i16, i16* %2, align 2, !dbg !1236
  %4 = insertvalue { i16, i16 } undef, i16 %1, 0, !dbg !1237
  %5 = insertvalue { i16, i16 } %4, i16 %3, 1, !dbg !1237
  ret { i16, i16 } %5, !dbg !1237
}

; <libc::unix::linux_like::linux::ff_effect as core::clone::Clone>::clone
; Function Attrs: nonlazybind uwtable
define void @"_ZN79_$LT$libc..unix..linux_like..linux..ff_effect$u20$as$u20$core..clone..Clone$GT$5clone17h0508dda3bcc72feaE"(%"unix::linux_like::linux::ff_effect"* sret(%"unix::linux_like::linux::ff_effect") %0, %"unix::linux_like::linux::ff_effect"* align 8 %self) unnamed_addr #0 !dbg !1238 {
start:
  %self.dbg.spill = alloca %"unix::linux_like::linux::ff_effect"*, align 8
  store %"unix::linux_like::linux::ff_effect"* %self, %"unix::linux_like::linux::ff_effect"** %self.dbg.spill, align 8
  call void @llvm.dbg.declare(metadata %"unix::linux_like::linux::ff_effect"** %self.dbg.spill, metadata !1255, metadata !DIExpression()), !dbg !1256
  %1 = bitcast %"unix::linux_like::linux::ff_effect"* %0 to i8*, !dbg !1257
  %2 = bitcast %"unix::linux_like::linux::ff_effect"* %self to i8*, !dbg !1257
  call void @llvm.memcpy.p0i8.p0i8.i64(i8* align 8 %1, i8* align 8 %2, i64 48, i1 false), !dbg !1257
  ret void, !dbg !1258
}

; <libc::unix::linux_like::linux::uinput_ff_upload as core::clone::Clone>::clone
; Function Attrs: nonlazybind uwtable
define void @"_ZN86_$LT$libc..unix..linux_like..linux..uinput_ff_upload$u20$as$u20$core..clone..Clone$GT$5clone17h01a16213fc627f36E"(%"unix::linux_like::linux::uinput_ff_upload"* sret(%"unix::linux_like::linux::uinput_ff_upload") %0, %"unix::linux_like::linux::uinput_ff_upload"* align 8 %self) unnamed_addr #0 !dbg !1259 {
start:
  %self.dbg.spill = alloca %"unix::linux_like::linux::uinput_ff_upload"*, align 8
  store %"unix::linux_like::linux::uinput_ff_upload"* %self, %"unix::linux_like::linux::uinput_ff_upload"** %self.dbg.spill, align 8
  call void @llvm.dbg.declare(metadata %"unix::linux_like::linux::uinput_ff_upload"** %self.dbg.spill, metadata !1271, metadata !DIExpression()), !dbg !1272
  %1 = bitcast %"unix::linux_like::linux::uinput_ff_upload"* %0 to i8*, !dbg !1273
  %2 = bitcast %"unix::linux_like::linux::uinput_ff_upload"* %self to i8*, !dbg !1273
  call void @llvm.memcpy.p0i8.p0i8.i64(i8* align 8 %1, i8* align 8 %2, i64 104, i1 false), !dbg !1273
  ret void, !dbg !1274
}

; <libc::unix::linux_like::linux::uinput_ff_erase as core::clone::Clone>::clone
; Function Attrs: nonlazybind uwtable
define void @"_ZN85_$LT$libc..unix..linux_like..linux..uinput_ff_erase$u20$as$u20$core..clone..Clone$GT$5clone17h61287d5ca4f9ec06E"(%"unix::linux_like::linux::uinput_ff_erase"* sret(%"unix::linux_like::linux::uinput_ff_erase") %0, %"unix::linux_like::linux::uinput_ff_erase"* align 4 %self) unnamed_addr #0 !dbg !1275 {
start:
  %self.dbg.spill = alloca %"unix::linux_like::linux::uinput_ff_erase"*, align 8
  store %"unix::linux_like::linux::uinput_ff_erase"* %self, %"unix::linux_like::linux::uinput_ff_erase"** %self.dbg.spill, align 8
  call void @llvm.dbg.declare(metadata %"unix::linux_like::linux::uinput_ff_erase"** %self.dbg.spill, metadata !1286, metadata !DIExpression()), !dbg !1287
  %1 = bitcast %"unix::linux_like::linux::uinput_ff_erase"* %0 to i8*, !dbg !1288
  %2 = bitcast %"unix::linux_like::linux::uinput_ff_erase"* %self to i8*, !dbg !1288
  call void @llvm.memcpy.p0i8.p0i8.i64(i8* align 4 %1, i8* align 4 %2, i64 12, i1 false), !dbg !1288
  ret void, !dbg !1289
}

; <libc::unix::linux_like::linux::uinput_abs_setup as core::clone::Clone>::clone
; Function Attrs: nonlazybind uwtable
define void @"_ZN86_$LT$libc..unix..linux_like..linux..uinput_abs_setup$u20$as$u20$core..clone..Clone$GT$5clone17h37f85f0bb157b771E"(%"unix::linux_like::linux::uinput_abs_setup"* sret(%"unix::linux_like::linux::uinput_abs_setup") %0, %"unix::linux_like::linux::uinput_abs_setup"* align 4 %self) unnamed_addr #0 !dbg !1290 {
start:
  %self.dbg.spill = alloca %"unix::linux_like::linux::uinput_abs_setup"*, align 8
  store %"unix::linux_like::linux::uinput_abs_setup"* %self, %"unix::linux_like::linux::uinput_abs_setup"** %self.dbg.spill, align 8
  call void @llvm.dbg.declare(metadata %"unix::linux_like::linux::uinput_abs_setup"** %self.dbg.spill, metadata !1300, metadata !DIExpression()), !dbg !1301
  %1 = bitcast %"unix::linux_like::linux::uinput_abs_setup"* %0 to i8*, !dbg !1302
  %2 = bitcast %"unix::linux_like::linux::uinput_abs_setup"* %self to i8*, !dbg !1302
  call void @llvm.memcpy.p0i8.p0i8.i64(i8* align 4 %1, i8* align 4 %2, i64 28, i1 false), !dbg !1302
  ret void, !dbg !1303
}

; <libc::unix::linux_like::linux::dl_phdr_info as core::clone::Clone>::clone
; Function Attrs: nonlazybind uwtable
define void @"_ZN82_$LT$libc..unix..linux_like..linux..dl_phdr_info$u20$as$u20$core..clone..Clone$GT$5clone17h16edaa6c2d74c3f3E"(%"unix::linux_like::linux::dl_phdr_info"* sret(%"unix::linux_like::linux::dl_phdr_info") %0, %"unix::linux_like::linux::dl_phdr_info"* align 8 %self) unnamed_addr #0 !dbg !1304 {
start:
  %self.dbg.spill = alloca %"unix::linux_like::linux::dl_phdr_info"*, align 8
  store %"unix::linux_like::linux::dl_phdr_info"* %self, %"unix::linux_like::linux::dl_phdr_info"** %self.dbg.spill, align 8
  call void @llvm.dbg.declare(metadata %"unix::linux_like::linux::dl_phdr_info"** %self.dbg.spill, metadata !1331, metadata !DIExpression()), !dbg !1332
  %1 = bitcast %"unix::linux_like::linux::dl_phdr_info"* %0 to i8*, !dbg !1333
  %2 = bitcast %"unix::linux_like::linux::dl_phdr_info"* %self to i8*, !dbg !1333
  call void @llvm.memcpy.p0i8.p0i8.i64(i8* align 8 %1, i8* align 8 %2, i64 64, i1 false), !dbg !1333
  ret void, !dbg !1334
}

; <libc::unix::linux_like::linux::Elf32_Ehdr as core::clone::Clone>::clone
; Function Attrs: nonlazybind uwtable
define void @"_ZN80_$LT$libc..unix..linux_like..linux..Elf32_Ehdr$u20$as$u20$core..clone..Clone$GT$5clone17hcfd0c19d7c02680bE"(%"unix::linux_like::linux::Elf32_Ehdr"* sret(%"unix::linux_like::linux::Elf32_Ehdr") %0, %"unix::linux_like::linux::Elf32_Ehdr"* align 4 %self) unnamed_addr #0 !dbg !1335 {
start:
  %self.dbg.spill = alloca %"unix::linux_like::linux::Elf32_Ehdr"*, align 8
  store %"unix::linux_like::linux::Elf32_Ehdr"* %self, %"unix::linux_like::linux::Elf32_Ehdr"** %self.dbg.spill, align 8
  call void @llvm.dbg.declare(metadata %"unix::linux_like::linux::Elf32_Ehdr"** %self.dbg.spill, metadata !1357, metadata !DIExpression()), !dbg !1358
  %1 = bitcast %"unix::linux_like::linux::Elf32_Ehdr"* %0 to i8*, !dbg !1359
  %2 = bitcast %"unix::linux_like::linux::Elf32_Ehdr"* %self to i8*, !dbg !1359
  call void @llvm.memcpy.p0i8.p0i8.i64(i8* align 4 %1, i8* align 4 %2, i64 52, i1 false), !dbg !1359
  ret void, !dbg !1360
}

; <libc::unix::linux_like::linux::Elf64_Ehdr as core::clone::Clone>::clone
; Function Attrs: nonlazybind uwtable
define void @"_ZN80_$LT$libc..unix..linux_like..linux..Elf64_Ehdr$u20$as$u20$core..clone..Clone$GT$5clone17hfccd58e691297cfeE"(%"unix::linux_like::linux::Elf64_Ehdr"* sret(%"unix::linux_like::linux::Elf64_Ehdr") %0, %"unix::linux_like::linux::Elf64_Ehdr"* align 8 %self) unnamed_addr #0 !dbg !1361 {
start:
  %self.dbg.spill = alloca %"unix::linux_like::linux::Elf64_Ehdr"*, align 8
  store %"unix::linux_like::linux::Elf64_Ehdr"* %self, %"unix::linux_like::linux::Elf64_Ehdr"** %self.dbg.spill, align 8
  call void @llvm.dbg.declare(metadata %"unix::linux_like::linux::Elf64_Ehdr"** %self.dbg.spill, metadata !1383, metadata !DIExpression()), !dbg !1384
  %1 = bitcast %"unix::linux_like::linux::Elf64_Ehdr"* %0 to i8*, !dbg !1385
  %2 = bitcast %"unix::linux_like::linux::Elf64_Ehdr"* %self to i8*, !dbg !1385
  call void @llvm.memcpy.p0i8.p0i8.i64(i8* align 8 %1, i8* align 8 %2, i64 64, i1 false), !dbg !1385
  ret void, !dbg !1386
}

; <libc::unix::linux_like::linux::Elf32_Sym as core::clone::Clone>::clone
; Function Attrs: nonlazybind uwtable
define void @"_ZN79_$LT$libc..unix..linux_like..linux..Elf32_Sym$u20$as$u20$core..clone..Clone$GT$5clone17h77dd07397299aa09E"(%"unix::linux_like::linux::Elf32_Sym"* sret(%"unix::linux_like::linux::Elf32_Sym") %0, %"unix::linux_like::linux::Elf32_Sym"* align 4 %self) unnamed_addr #0 !dbg !1387 {
start:
  %self.dbg.spill = alloca %"unix::linux_like::linux::Elf32_Sym"*, align 8
  store %"unix::linux_like::linux::Elf32_Sym"* %self, %"unix::linux_like::linux::Elf32_Sym"** %self.dbg.spill, align 8
  call void @llvm.dbg.declare(metadata %"unix::linux_like::linux::Elf32_Sym"** %self.dbg.spill, metadata !1401, metadata !DIExpression()), !dbg !1402
  %1 = bitcast %"unix::linux_like::linux::Elf32_Sym"* %0 to i8*, !dbg !1403
  %2 = bitcast %"unix::linux_like::linux::Elf32_Sym"* %self to i8*, !dbg !1403
  call void @llvm.memcpy.p0i8.p0i8.i64(i8* align 4 %1, i8* align 4 %2, i64 16, i1 false), !dbg !1403
  ret void, !dbg !1404
}

; <libc::unix::linux_like::linux::Elf64_Sym as core::clone::Clone>::clone
; Function Attrs: nonlazybind uwtable
define void @"_ZN79_$LT$libc..unix..linux_like..linux..Elf64_Sym$u20$as$u20$core..clone..Clone$GT$5clone17ha7357bdc0334ae12E"(%"unix::linux_like::linux::Elf64_Sym"* sret(%"unix::linux_like::linux::Elf64_Sym") %0, %"unix::linux_like::linux::Elf64_Sym"* align 8 %self) unnamed_addr #0 !dbg !1405 {
start:
  %self.dbg.spill = alloca %"unix::linux_like::linux::Elf64_Sym"*, align 8
  store %"unix::linux_like::linux::Elf64_Sym"* %self, %"unix::linux_like::linux::Elf64_Sym"** %self.dbg.spill, align 8
  call void @llvm.dbg.declare(metadata %"unix::linux_like::linux::Elf64_Sym"** %self.dbg.spill, metadata !1419, metadata !DIExpression()), !dbg !1420
  %1 = bitcast %"unix::linux_like::linux::Elf64_Sym"* %0 to i8*, !dbg !1421
  %2 = bitcast %"unix::linux_like::linux::Elf64_Sym"* %self to i8*, !dbg !1421
  call void @llvm.memcpy.p0i8.p0i8.i64(i8* align 8 %1, i8* align 8 %2, i64 24, i1 false), !dbg !1421
  ret void, !dbg !1422
}

; <libc::unix::linux_like::linux::Elf32_Phdr as core::clone::Clone>::clone
; Function Attrs: nonlazybind uwtable
define void @"_ZN80_$LT$libc..unix..linux_like..linux..Elf32_Phdr$u20$as$u20$core..clone..Clone$GT$5clone17h13f855916c665accE"(%"unix::linux_like::linux::Elf32_Phdr"* sret(%"unix::linux_like::linux::Elf32_Phdr") %0, %"unix::linux_like::linux::Elf32_Phdr"* align 4 %self) unnamed_addr #0 !dbg !1423 {
start:
  %self.dbg.spill = alloca %"unix::linux_like::linux::Elf32_Phdr"*, align 8
  store %"unix::linux_like::linux::Elf32_Phdr"* %self, %"unix::linux_like::linux::Elf32_Phdr"** %self.dbg.spill, align 8
  call void @llvm.dbg.declare(metadata %"unix::linux_like::linux::Elf32_Phdr"** %self.dbg.spill, metadata !1439, metadata !DIExpression()), !dbg !1440
  %1 = bitcast %"unix::linux_like::linux::Elf32_Phdr"* %0 to i8*, !dbg !1441
  %2 = bitcast %"unix::linux_like::linux::Elf32_Phdr"* %self to i8*, !dbg !1441
  call void @llvm.memcpy.p0i8.p0i8.i64(i8* align 4 %1, i8* align 4 %2, i64 32, i1 false), !dbg !1441
  ret void, !dbg !1442
}

; <libc::unix::linux_like::linux::Elf64_Phdr as core::clone::Clone>::clone
; Function Attrs: nonlazybind uwtable
define void @"_ZN80_$LT$libc..unix..linux_like..linux..Elf64_Phdr$u20$as$u20$core..clone..Clone$GT$5clone17h81dca8cfa2391fd8E"(%"unix::linux_like::linux::Elf64_Phdr"* sret(%"unix::linux_like::linux::Elf64_Phdr") %0, %"unix::linux_like::linux::Elf64_Phdr"* align 8 %self) unnamed_addr #0 !dbg !1443 {
start:
  %self.dbg.spill = alloca %"unix::linux_like::linux::Elf64_Phdr"*, align 8
  store %"unix::linux_like::linux::Elf64_Phdr"* %self, %"unix::linux_like::linux::Elf64_Phdr"** %self.dbg.spill, align 8
  call void @llvm.dbg.declare(metadata %"unix::linux_like::linux::Elf64_Phdr"** %self.dbg.spill, metadata !1449, metadata !DIExpression()), !dbg !1450
  %1 = bitcast %"unix::linux_like::linux::Elf64_Phdr"* %0 to i8*, !dbg !1451
  %2 = bitcast %"unix::linux_like::linux::Elf64_Phdr"* %self to i8*, !dbg !1451
  call void @llvm.memcpy.p0i8.p0i8.i64(i8* align 8 %1, i8* align 8 %2, i64 56, i1 false), !dbg !1451
  ret void, !dbg !1452
}

; <libc::unix::linux_like::linux::Elf32_Shdr as core::clone::Clone>::clone
; Function Attrs: nonlazybind uwtable
define void @"_ZN80_$LT$libc..unix..linux_like..linux..Elf32_Shdr$u20$as$u20$core..clone..Clone$GT$5clone17h522e35ccd521121cE"(%"unix::linux_like::linux::Elf32_Shdr"* sret(%"unix::linux_like::linux::Elf32_Shdr") %0, %"unix::linux_like::linux::Elf32_Shdr"* align 4 %self) unnamed_addr #0 !dbg !1453 {
start:
  %self.dbg.spill = alloca %"unix::linux_like::linux::Elf32_Shdr"*, align 8
  store %"unix::linux_like::linux::Elf32_Shdr"* %self, %"unix::linux_like::linux::Elf32_Shdr"** %self.dbg.spill, align 8
  call void @llvm.dbg.declare(metadata %"unix::linux_like::linux::Elf32_Shdr"** %self.dbg.spill, metadata !1471, metadata !DIExpression()), !dbg !1472
  %1 = bitcast %"unix::linux_like::linux::Elf32_Shdr"* %0 to i8*, !dbg !1473
  %2 = bitcast %"unix::linux_like::linux::Elf32_Shdr"* %self to i8*, !dbg !1473
  call void @llvm.memcpy.p0i8.p0i8.i64(i8* align 4 %1, i8* align 4 %2, i64 40, i1 false), !dbg !1473
  ret void, !dbg !1474
}

; <libc::unix::linux_like::linux::Elf64_Shdr as core::clone::Clone>::clone
; Function Attrs: nonlazybind uwtable
define void @"_ZN80_$LT$libc..unix..linux_like..linux..Elf64_Shdr$u20$as$u20$core..clone..Clone$GT$5clone17h93e450ec0bd42057E"(%"unix::linux_like::linux::Elf64_Shdr"* sret(%"unix::linux_like::linux::Elf64_Shdr") %0, %"unix::linux_like::linux::Elf64_Shdr"* align 8 %self) unnamed_addr #0 !dbg !1475 {
start:
  %self.dbg.spill = alloca %"unix::linux_like::linux::Elf64_Shdr"*, align 8
  store %"unix::linux_like::linux::Elf64_Shdr"* %self, %"unix::linux_like::linux::Elf64_Shdr"** %self.dbg.spill, align 8
  call void @llvm.dbg.declare(metadata %"unix::linux_like::linux::Elf64_Shdr"** %self.dbg.spill, metadata !1493, metadata !DIExpression()), !dbg !1494
  %1 = bitcast %"unix::linux_like::linux::Elf64_Shdr"* %0 to i8*, !dbg !1495
  %2 = bitcast %"unix::linux_like::linux::Elf64_Shdr"* %self to i8*, !dbg !1495
  call void @llvm.memcpy.p0i8.p0i8.i64(i8* align 8 %1, i8* align 8 %2, i64 64, i1 false), !dbg !1495
  ret void, !dbg !1496
}

; <libc::unix::linux_like::linux::ucred as core::clone::Clone>::clone
; Function Attrs: nonlazybind uwtable
define void @"_ZN75_$LT$libc..unix..linux_like..linux..ucred$u20$as$u20$core..clone..Clone$GT$5clone17h0aed1092c44ba8c4E"(%"unix::linux_like::linux::ucred"* sret(%"unix::linux_like::linux::ucred") %0, %"unix::linux_like::linux::ucred"* align 4 %self) unnamed_addr #0 !dbg !1497 {
start:
  %self.dbg.spill = alloca %"unix::linux_like::linux::ucred"*, align 8
  store %"unix::linux_like::linux::ucred"* %self, %"unix::linux_like::linux::ucred"** %self.dbg.spill, align 8
  call void @llvm.dbg.declare(metadata %"unix::linux_like::linux::ucred"** %self.dbg.spill, metadata !1508, metadata !DIExpression()), !dbg !1509
  %1 = bitcast %"unix::linux_like::linux::ucred"* %0 to i8*, !dbg !1510
  %2 = bitcast %"unix::linux_like::linux::ucred"* %self to i8*, !dbg !1510
  call void @llvm.memcpy.p0i8.p0i8.i64(i8* align 4 %1, i8* align 4 %2, i64 12, i1 false), !dbg !1510
  ret void, !dbg !1511
}

; <libc::unix::linux_like::linux::mntent as core::clone::Clone>::clone
; Function Attrs: nonlazybind uwtable
define void @"_ZN76_$LT$libc..unix..linux_like..linux..mntent$u20$as$u20$core..clone..Clone$GT$5clone17h2c09b4704351f6fdE"(%"unix::linux_like::linux::mntent"* sret(%"unix::linux_like::linux::mntent") %0, %"unix::linux_like::linux::mntent"* align 8 %self) unnamed_addr #0 !dbg !1512 {
start:
  %self.dbg.spill = alloca %"unix::linux_like::linux::mntent"*, align 8
  store %"unix::linux_like::linux::mntent"* %self, %"unix::linux_like::linux::mntent"** %self.dbg.spill, align 8
  call void @llvm.dbg.declare(metadata %"unix::linux_like::linux::mntent"** %self.dbg.spill, metadata !1526, metadata !DIExpression()), !dbg !1527
  %1 = bitcast %"unix::linux_like::linux::mntent"* %0 to i8*, !dbg !1528
  %2 = bitcast %"unix::linux_like::linux::mntent"* %self to i8*, !dbg !1528
  call void @llvm.memcpy.p0i8.p0i8.i64(i8* align 8 %1, i8* align 8 %2, i64 40, i1 false), !dbg !1528
  ret void, !dbg !1529
}

; <libc::unix::linux_like::linux::posix_spawn_file_actions_t as core::clone::Clone>::clone
; Function Attrs: nonlazybind uwtable
define void @"_ZN96_$LT$libc..unix..linux_like..linux..posix_spawn_file_actions_t$u20$as$u20$core..clone..Clone$GT$5clone17h7140f66bd8862834E"(%"unix::linux_like::linux::posix_spawn_file_actions_t"* sret(%"unix::linux_like::linux::posix_spawn_file_actions_t") %0, %"unix::linux_like::linux::posix_spawn_file_actions_t"* align 8 %self) unnamed_addr #0 !dbg !1530 {
start:
  %self.dbg.spill = alloca %"unix::linux_like::linux::posix_spawn_file_actions_t"*, align 8
  store %"unix::linux_like::linux::posix_spawn_file_actions_t"* %self, %"unix::linux_like::linux::posix_spawn_file_actions_t"** %self.dbg.spill, align 8
  call void @llvm.dbg.declare(metadata %"unix::linux_like::linux::posix_spawn_file_actions_t"** %self.dbg.spill, metadata !1544, metadata !DIExpression()), !dbg !1545
  %1 = bitcast %"unix::linux_like::linux::posix_spawn_file_actions_t"* %0 to i8*, !dbg !1546
  %2 = bitcast %"unix::linux_like::linux::posix_spawn_file_actions_t"* %self to i8*, !dbg !1546
  call void @llvm.memcpy.p0i8.p0i8.i64(i8* align 8 %1, i8* align 8 %2, i64 80, i1 false), !dbg !1546
  ret void, !dbg !1547
}

; <libc::unix::linux_like::linux::posix_spawnattr_t as core::clone::Clone>::clone
; Function Attrs: nonlazybind uwtable
define void @"_ZN87_$LT$libc..unix..linux_like..linux..posix_spawnattr_t$u20$as$u20$core..clone..Clone$GT$5clone17h692f10a252291bb8E"(%"unix::linux_like::linux::posix_spawnattr_t"* sret(%"unix::linux_like::linux::posix_spawnattr_t") %0, %"unix::linux_like::linux::posix_spawnattr_t"* align 8 %self) unnamed_addr #0 !dbg !1548 {
start:
  %self.dbg.spill = alloca %"unix::linux_like::linux::posix_spawnattr_t"*, align 8
  store %"unix::linux_like::linux::posix_spawnattr_t"* %self, %"unix::linux_like::linux::posix_spawnattr_t"** %self.dbg.spill, align 8
  call void @llvm.dbg.declare(metadata %"unix::linux_like::linux::posix_spawnattr_t"** %self.dbg.spill, metadata !1567, metadata !DIExpression()), !dbg !1568
  %1 = bitcast %"unix::linux_like::linux::posix_spawnattr_t"* %0 to i8*, !dbg !1569
  %2 = bitcast %"unix::linux_like::linux::posix_spawnattr_t"* %self to i8*, !dbg !1569
  call void @llvm.memcpy.p0i8.p0i8.i64(i8* align 8 %1, i8* align 8 %2, i64 336, i1 false), !dbg !1569
  ret void, !dbg !1570
}

; <libc::unix::linux_like::linux::genlmsghdr as core::clone::Clone>::clone
; Function Attrs: nonlazybind uwtable
define i32 @"_ZN80_$LT$libc..unix..linux_like..linux..genlmsghdr$u20$as$u20$core..clone..Clone$GT$5clone17h7149f4752993ac48E"(%"unix::linux_like::linux::genlmsghdr"* align 2 %self) unnamed_addr #0 !dbg !1571 {
start:
  %self.dbg.spill = alloca %"unix::linux_like::linux::genlmsghdr"*, align 8
  %0 = alloca %"unix::linux_like::linux::genlmsghdr", align 2
  store %"unix::linux_like::linux::genlmsghdr"* %self, %"unix::linux_like::linux::genlmsghdr"** %self.dbg.spill, align 8
  call void @llvm.dbg.declare(metadata %"unix::linux_like::linux::genlmsghdr"** %self.dbg.spill, metadata !1582, metadata !DIExpression()), !dbg !1583
  %1 = bitcast %"unix::linux_like::linux::genlmsghdr"* %0 to i8*, !dbg !1584
  %2 = bitcast %"unix::linux_like::linux::genlmsghdr"* %self to i8*, !dbg !1584
  call void @llvm.memcpy.p0i8.p0i8.i64(i8* align 2 %1, i8* align 2 %2, i64 4, i1 false), !dbg !1584
  %3 = bitcast %"unix::linux_like::linux::genlmsghdr"* %0 to i32*, !dbg !1585
  %4 = load i32, i32* %3, align 2, !dbg !1585
  ret i32 %4, !dbg !1585
}

; <libc::unix::linux_like::linux::in6_pktinfo as core::clone::Clone>::clone
; Function Attrs: nonlazybind uwtable
define void @"_ZN81_$LT$libc..unix..linux_like..linux..in6_pktinfo$u20$as$u20$core..clone..Clone$GT$5clone17hc8d8d6325700f920E"(%"unix::linux_like::linux::in6_pktinfo"* sret(%"unix::linux_like::linux::in6_pktinfo") %0, %"unix::linux_like::linux::in6_pktinfo"* align 4 %self) unnamed_addr #0 !dbg !1586 {
start:
  %self.dbg.spill = alloca %"unix::linux_like::linux::in6_pktinfo"*, align 8
  store %"unix::linux_like::linux::in6_pktinfo"* %self, %"unix::linux_like::linux::in6_pktinfo"** %self.dbg.spill, align 8
  call void @llvm.dbg.declare(metadata %"unix::linux_like::linux::in6_pktinfo"** %self.dbg.spill, metadata !1596, metadata !DIExpression()), !dbg !1597
  %1 = bitcast %"unix::linux_like::linux::in6_pktinfo"* %0 to i8*, !dbg !1598
  %2 = bitcast %"unix::linux_like::linux::in6_pktinfo"* %self to i8*, !dbg !1598
  call void @llvm.memcpy.p0i8.p0i8.i64(i8* align 4 %1, i8* align 4 %2, i64 20, i1 false), !dbg !1598
  ret void, !dbg !1599
}

; <libc::unix::linux_like::linux::arpd_request as core::clone::Clone>::clone
; Function Attrs: nonlazybind uwtable
define void @"_ZN82_$LT$libc..unix..linux_like..linux..arpd_request$u20$as$u20$core..clone..Clone$GT$5clone17he9b87f5f27e9332aE"(%"unix::linux_like::linux::arpd_request"* sret(%"unix::linux_like::linux::arpd_request") %0, %"unix::linux_like::linux::arpd_request"* align 8 %self) unnamed_addr #0 !dbg !1600 {
start:
  %self.dbg.spill = alloca %"unix::linux_like::linux::arpd_request"*, align 8
  store %"unix::linux_like::linux::arpd_request"* %self, %"unix::linux_like::linux::arpd_request"** %self.dbg.spill, align 8
  call void @llvm.dbg.declare(metadata %"unix::linux_like::linux::arpd_request"** %self.dbg.spill, metadata !1617, metadata !DIExpression()), !dbg !1618
  %1 = bitcast %"unix::linux_like::linux::arpd_request"* %0 to i8*, !dbg !1619
  %2 = bitcast %"unix::linux_like::linux::arpd_request"* %self to i8*, !dbg !1619
  call void @llvm.memcpy.p0i8.p0i8.i64(i8* align 8 %1, i8* align 8 %2, i64 40, i1 false), !dbg !1619
  ret void, !dbg !1620
}

; <libc::unix::linux_like::linux::inotify_event as core::clone::Clone>::clone
; Function Attrs: nonlazybind uwtable
define void @"_ZN83_$LT$libc..unix..linux_like..linux..inotify_event$u20$as$u20$core..clone..Clone$GT$5clone17h602aafdf2f1fc323E"(%"unix::linux_like::linux::inotify_event"* sret(%"unix::linux_like::linux::inotify_event") %0, %"unix::linux_like::linux::inotify_event"* align 4 %self) unnamed_addr #0 !dbg !1621 {
start:
  %self.dbg.spill = alloca %"unix::linux_like::linux::inotify_event"*, align 8
  store %"unix::linux_like::linux::inotify_event"* %self, %"unix::linux_like::linux::inotify_event"** %self.dbg.spill, align 8
  call void @llvm.dbg.declare(metadata %"unix::linux_like::linux::inotify_event"** %self.dbg.spill, metadata !1633, metadata !DIExpression()), !dbg !1634
  %1 = bitcast %"unix::linux_like::linux::inotify_event"* %0 to i8*, !dbg !1635
  %2 = bitcast %"unix::linux_like::linux::inotify_event"* %self to i8*, !dbg !1635
  call void @llvm.memcpy.p0i8.p0i8.i64(i8* align 4 %1, i8* align 4 %2, i64 16, i1 false), !dbg !1635
  ret void, !dbg !1636
}

; <libc::unix::linux_like::linux::fanotify_response as core::clone::Clone>::clone
; Function Attrs: nonlazybind uwtable
define { i32, i32 } @"_ZN87_$LT$libc..unix..linux_like..linux..fanotify_response$u20$as$u20$core..clone..Clone$GT$5clone17h727e73da8bdc4d91E"({ i32, i32 }* align 4 %self) unnamed_addr #0 !dbg !1637 {
start:
  %self.dbg.spill = alloca { i32, i32 }*, align 8
  store { i32, i32 }* %self, { i32, i32 }** %self.dbg.spill, align 8
  call void @llvm.dbg.declare(metadata { i32, i32 }** %self.dbg.spill, metadata !1647, metadata !DIExpression()), !dbg !1648
  %0 = getelementptr inbounds { i32, i32 }, { i32, i32 }* %self, i32 0, i32 0, !dbg !1649
  %1 = load i32, i32* %0, align 4, !dbg !1649
  %2 = getelementptr inbounds { i32, i32 }, { i32, i32 }* %self, i32 0, i32 1, !dbg !1649
  %3 = load i32, i32* %2, align 4, !dbg !1649
  %4 = insertvalue { i32, i32 } undef, i32 %1, 0, !dbg !1650
  %5 = insertvalue { i32, i32 } %4, i32 %3, 1, !dbg !1650
  ret { i32, i32 } %5, !dbg !1650
}

; <libc::unix::linux_like::linux::sockaddr_vm as core::clone::Clone>::clone
; Function Attrs: nonlazybind uwtable
define void @"_ZN81_$LT$libc..unix..linux_like..linux..sockaddr_vm$u20$as$u20$core..clone..Clone$GT$5clone17h5c786b4c085acf5aE"(%"unix::linux_like::linux::sockaddr_vm"* sret(%"unix::linux_like::linux::sockaddr_vm") %0, %"unix::linux_like::linux::sockaddr_vm"* align 4 %self) unnamed_addr #0 !dbg !1651 {
start:
  %self.dbg.spill = alloca %"unix::linux_like::linux::sockaddr_vm"*, align 8
  store %"unix::linux_like::linux::sockaddr_vm"* %self, %"unix::linux_like::linux::sockaddr_vm"** %self.dbg.spill, align 8
  call void @llvm.dbg.declare(metadata %"unix::linux_like::linux::sockaddr_vm"** %self.dbg.spill, metadata !1665, metadata !DIExpression()), !dbg !1666
  %1 = bitcast %"unix::linux_like::linux::sockaddr_vm"* %0 to i8*, !dbg !1667
  %2 = bitcast %"unix::linux_like::linux::sockaddr_vm"* %self to i8*, !dbg !1667
  call void @llvm.memcpy.p0i8.p0i8.i64(i8* align 4 %1, i8* align 4 %2, i64 16, i1 false), !dbg !1667
  ret void, !dbg !1668
}

; <libc::unix::linux_like::linux::regmatch_t as core::clone::Clone>::clone
; Function Attrs: nonlazybind uwtable
define { i32, i32 } @"_ZN80_$LT$libc..unix..linux_like..linux..regmatch_t$u20$as$u20$core..clone..Clone$GT$5clone17h89d0de9486ad6783E"({ i32, i32 }* align 4 %self) unnamed_addr #0 !dbg !1669 {
start:
  %self.dbg.spill = alloca { i32, i32 }*, align 8
  store { i32, i32 }* %self, { i32, i32 }** %self.dbg.spill, align 8
  call void @llvm.dbg.declare(metadata { i32, i32 }** %self.dbg.spill, metadata !1679, metadata !DIExpression()), !dbg !1680
  %0 = getelementptr inbounds { i32, i32 }, { i32, i32 }* %self, i32 0, i32 0, !dbg !1681
  %1 = load i32, i32* %0, align 4, !dbg !1681
  %2 = getelementptr inbounds { i32, i32 }, { i32, i32 }* %self, i32 0, i32 1, !dbg !1681
  %3 = load i32, i32* %2, align 4, !dbg !1681
  %4 = insertvalue { i32, i32 } undef, i32 %1, 0, !dbg !1682
  %5 = insertvalue { i32, i32 } %4, i32 %3, 1, !dbg !1682
  ret { i32, i32 } %5, !dbg !1682
}

; <libc::unix::linux_like::linux::sock_extended_err as core::clone::Clone>::clone
; Function Attrs: nonlazybind uwtable
define void @"_ZN87_$LT$libc..unix..linux_like..linux..sock_extended_err$u20$as$u20$core..clone..Clone$GT$5clone17h80cbf7dddeaabad3E"(%"unix::linux_like::linux::sock_extended_err"* sret(%"unix::linux_like::linux::sock_extended_err") %0, %"unix::linux_like::linux::sock_extended_err"* align 4 %self) unnamed_addr #0 !dbg !1683 {
start:
  %self.dbg.spill = alloca %"unix::linux_like::linux::sock_extended_err"*, align 8
  store %"unix::linux_like::linux::sock_extended_err"* %self, %"unix::linux_like::linux::sock_extended_err"** %self.dbg.spill, align 8
  call void @llvm.dbg.declare(metadata %"unix::linux_like::linux::sock_extended_err"** %self.dbg.spill, metadata !1698, metadata !DIExpression()), !dbg !1699
  %1 = bitcast %"unix::linux_like::linux::sock_extended_err"* %0 to i8*, !dbg !1700
  %2 = bitcast %"unix::linux_like::linux::sock_extended_err"* %self to i8*, !dbg !1700
  call void @llvm.memcpy.p0i8.p0i8.i64(i8* align 4 %1, i8* align 4 %2, i64 16, i1 false), !dbg !1700
  ret void, !dbg !1701
}

; <libc::unix::linux_like::linux::__c_anonymous_sockaddr_can_tp as core::clone::Clone>::clone
; Function Attrs: nonlazybind uwtable
define { i32, i32 } @"_ZN99_$LT$libc..unix..linux_like..linux..__c_anonymous_sockaddr_can_tp$u20$as$u20$core..clone..Clone$GT$5clone17h758f1e9fe4d509e7E"({ i32, i32 }* align 4 %self) unnamed_addr #0 !dbg !1702 {
start:
  %self.dbg.spill = alloca { i32, i32 }*, align 8
  store { i32, i32 }* %self, { i32, i32 }** %self.dbg.spill, align 8
  call void @llvm.dbg.declare(metadata { i32, i32 }** %self.dbg.spill, metadata !1712, metadata !DIExpression()), !dbg !1713
  %0 = getelementptr inbounds { i32, i32 }, { i32, i32 }* %self, i32 0, i32 0, !dbg !1714
  %1 = load i32, i32* %0, align 4, !dbg !1714
  %2 = getelementptr inbounds { i32, i32 }, { i32, i32 }* %self, i32 0, i32 1, !dbg !1714
  %3 = load i32, i32* %2, align 4, !dbg !1714
  %4 = insertvalue { i32, i32 } undef, i32 %1, 0, !dbg !1715
  %5 = insertvalue { i32, i32 } %4, i32 %3, 1, !dbg !1715
  ret { i32, i32 } %5, !dbg !1715
}

; <libc::unix::linux_like::linux::__c_anonymous_sockaddr_can_j1939 as core::clone::Clone>::clone
; Function Attrs: nonlazybind uwtable
define void @"_ZN102_$LT$libc..unix..linux_like..linux..__c_anonymous_sockaddr_can_j1939$u20$as$u20$core..clone..Clone$GT$5clone17h1cfcf05a7e5ff08aE"(%"unix::linux_like::linux::__c_anonymous_sockaddr_can_j1939"* sret(%"unix::linux_like::linux::__c_anonymous_sockaddr_can_j1939") %0, %"unix::linux_like::linux::__c_anonymous_sockaddr_can_j1939"* align 8 %self) unnamed_addr #0 !dbg !1716 {
start:
  %self.dbg.spill = alloca %"unix::linux_like::linux::__c_anonymous_sockaddr_can_j1939"*, align 8
  store %"unix::linux_like::linux::__c_anonymous_sockaddr_can_j1939"* %self, %"unix::linux_like::linux::__c_anonymous_sockaddr_can_j1939"** %self.dbg.spill, align 8
  call void @llvm.dbg.declare(metadata %"unix::linux_like::linux::__c_anonymous_sockaddr_can_j1939"** %self.dbg.spill, metadata !1727, metadata !DIExpression()), !dbg !1728
  %1 = bitcast %"unix::linux_like::linux::__c_anonymous_sockaddr_can_j1939"* %0 to i8*, !dbg !1729
  %2 = bitcast %"unix::linux_like::linux::__c_anonymous_sockaddr_can_j1939"* %self to i8*, !dbg !1729
  call void @llvm.memcpy.p0i8.p0i8.i64(i8* align 8 %1, i8* align 8 %2, i64 16, i1 false), !dbg !1729
  ret void, !dbg !1730
}

; <libc::unix::linux_like::linux::can_filter as core::clone::Clone>::clone
; Function Attrs: nonlazybind uwtable
define { i32, i32 } @"_ZN80_$LT$libc..unix..linux_like..linux..can_filter$u20$as$u20$core..clone..Clone$GT$5clone17h00d8162d82ed6784E"({ i32, i32 }* align 4 %self) unnamed_addr #0 !dbg !1731 {
start:
  %self.dbg.spill = alloca { i32, i32 }*, align 8
  store { i32, i32 }* %self, { i32, i32 }** %self.dbg.spill, align 8
  call void @llvm.dbg.declare(metadata { i32, i32 }** %self.dbg.spill, metadata !1741, metadata !DIExpression()), !dbg !1742
  %0 = getelementptr inbounds { i32, i32 }, { i32, i32 }* %self, i32 0, i32 0, !dbg !1743
  %1 = load i32, i32* %0, align 4, !dbg !1743
  %2 = getelementptr inbounds { i32, i32 }, { i32, i32 }* %self, i32 0, i32 1, !dbg !1743
  %3 = load i32, i32* %2, align 4, !dbg !1743
  %4 = insertvalue { i32, i32 } undef, i32 %1, 0, !dbg !1744
  %5 = insertvalue { i32, i32 } %4, i32 %3, 1, !dbg !1744
  ret { i32, i32 } %5, !dbg !1744
}

; <libc::unix::linux_like::linux::j1939_filter as core::clone::Clone>::clone
; Function Attrs: nonlazybind uwtable
define void @"_ZN82_$LT$libc..unix..linux_like..linux..j1939_filter$u20$as$u20$core..clone..Clone$GT$5clone17h8ef91399b71292d6E"(%"unix::linux_like::linux::j1939_filter"* sret(%"unix::linux_like::linux::j1939_filter") %0, %"unix::linux_like::linux::j1939_filter"* align 8 %self) unnamed_addr #0 !dbg !1745 {
start:
  %self.dbg.spill = alloca %"unix::linux_like::linux::j1939_filter"*, align 8
  store %"unix::linux_like::linux::j1939_filter"* %self, %"unix::linux_like::linux::j1939_filter"** %self.dbg.spill, align 8
  call void @llvm.dbg.declare(metadata %"unix::linux_like::linux::j1939_filter"** %self.dbg.spill, metadata !1759, metadata !DIExpression()), !dbg !1760
  %1 = bitcast %"unix::linux_like::linux::j1939_filter"* %0 to i8*, !dbg !1761
  %2 = bitcast %"unix::linux_like::linux::j1939_filter"* %self to i8*, !dbg !1761
  call void @llvm.memcpy.p0i8.p0i8.i64(i8* align 8 %1, i8* align 8 %2, i64 32, i1 false), !dbg !1761
  ret void, !dbg !1762
}

; <libc::unix::linux_like::linux::sock_filter as core::clone::Clone>::clone
; Function Attrs: nonlazybind uwtable
define i64 @"_ZN81_$LT$libc..unix..linux_like..linux..sock_filter$u20$as$u20$core..clone..Clone$GT$5clone17h793b08e0da2ca3ceE"(%"unix::linux_like::linux::sock_filter"* align 4 %self) unnamed_addr #0 !dbg !1763 {
start:
  %self.dbg.spill = alloca %"unix::linux_like::linux::sock_filter"*, align 8
  %0 = alloca %"unix::linux_like::linux::sock_filter", align 4
  store %"unix::linux_like::linux::sock_filter"* %self, %"unix::linux_like::linux::sock_filter"** %self.dbg.spill, align 8
  call void @llvm.dbg.declare(metadata %"unix::linux_like::linux::sock_filter"** %self.dbg.spill, metadata !1775, metadata !DIExpression()), !dbg !1776
  %1 = bitcast %"unix::linux_like::linux::sock_filter"* %0 to i8*, !dbg !1777
  %2 = bitcast %"unix::linux_like::linux::sock_filter"* %self to i8*, !dbg !1777
  call void @llvm.memcpy.p0i8.p0i8.i64(i8* align 4 %1, i8* align 4 %2, i64 8, i1 false), !dbg !1777
  %3 = bitcast %"unix::linux_like::linux::sock_filter"* %0 to i64*, !dbg !1778
  %4 = load i64, i64* %3, align 4, !dbg !1778
  ret i64 %4, !dbg !1778
}

; <libc::unix::linux_like::linux::sock_fprog as core::clone::Clone>::clone
; Function Attrs: nonlazybind uwtable
define { i16, i32* } @"_ZN80_$LT$libc..unix..linux_like..linux..sock_fprog$u20$as$u20$core..clone..Clone$GT$5clone17he3a0a1ebb3a4e9c4E"({ i16, i32* }* align 8 %self) unnamed_addr #0 !dbg !1779 {
start:
  %self.dbg.spill = alloca { i16, i32* }*, align 8
  store { i16, i32* }* %self, { i16, i32* }** %self.dbg.spill, align 8
  call void @llvm.dbg.declare(metadata { i16, i32* }** %self.dbg.spill, metadata !1790, metadata !DIExpression()), !dbg !1791
  %0 = getelementptr inbounds { i16, i32* }, { i16, i32* }* %self, i32 0, i32 0, !dbg !1792
  %1 = load i16, i16* %0, align 8, !dbg !1792
  %2 = getelementptr inbounds { i16, i32* }, { i16, i32* }* %self, i32 0, i32 1, !dbg !1792
  %3 = load i32*, i32** %2, align 8, !dbg !1792
  %4 = insertvalue { i16, i32* } undef, i16 %1, 0, !dbg !1793
  %5 = insertvalue { i16, i32* } %4, i32* %3, 1, !dbg !1793
  ret { i16, i32* } %5, !dbg !1793
}

; <libc::unix::linux_like::linux::seccomp_data as core::clone::Clone>::clone
; Function Attrs: nonlazybind uwtable
define void @"_ZN82_$LT$libc..unix..linux_like..linux..seccomp_data$u20$as$u20$core..clone..Clone$GT$5clone17h261690a40663f880E"(%"unix::linux_like::linux::seccomp_data"* sret(%"unix::linux_like::linux::seccomp_data") %0, %"unix::linux_like::linux::seccomp_data"* align 8 %self) unnamed_addr #0 !dbg !1794 {
start:
  %self.dbg.spill = alloca %"unix::linux_like::linux::seccomp_data"*, align 8
  store %"unix::linux_like::linux::seccomp_data"* %self, %"unix::linux_like::linux::seccomp_data"** %self.dbg.spill, align 8
  call void @llvm.dbg.declare(metadata %"unix::linux_like::linux::seccomp_data"** %self.dbg.spill, metadata !1809, metadata !DIExpression()), !dbg !1810
  %1 = bitcast %"unix::linux_like::linux::seccomp_data"* %0 to i8*, !dbg !1811
  %2 = bitcast %"unix::linux_like::linux::seccomp_data"* %self to i8*, !dbg !1811
  call void @llvm.memcpy.p0i8.p0i8.i64(i8* align 8 %1, i8* align 8 %2, i64 64, i1 false), !dbg !1811
  ret void, !dbg !1812
}

; <libc::unix::linux_like::linux::seccomp_notif_sizes as core::clone::Clone>::clone
; Function Attrs: nonlazybind uwtable
define i48 @"_ZN89_$LT$libc..unix..linux_like..linux..seccomp_notif_sizes$u20$as$u20$core..clone..Clone$GT$5clone17haf260fba4b50f43bE"(%"unix::linux_like::linux::seccomp_notif_sizes"* align 2 %self) unnamed_addr #0 !dbg !1813 {
start:
  %self.dbg.spill = alloca %"unix::linux_like::linux::seccomp_notif_sizes"*, align 8
  %0 = alloca %"unix::linux_like::linux::seccomp_notif_sizes", align 2
  store %"unix::linux_like::linux::seccomp_notif_sizes"* %self, %"unix::linux_like::linux::seccomp_notif_sizes"** %self.dbg.spill, align 8
  call void @llvm.dbg.declare(metadata %"unix::linux_like::linux::seccomp_notif_sizes"** %self.dbg.spill, metadata !1824, metadata !DIExpression()), !dbg !1825
  %1 = bitcast %"unix::linux_like::linux::seccomp_notif_sizes"* %0 to i8*, !dbg !1826
  %2 = bitcast %"unix::linux_like::linux::seccomp_notif_sizes"* %self to i8*, !dbg !1826
  call void @llvm.memcpy.p0i8.p0i8.i64(i8* align 2 %1, i8* align 2 %2, i64 6, i1 false), !dbg !1826
  %3 = bitcast %"unix::linux_like::linux::seccomp_notif_sizes"* %0 to i48*, !dbg !1827
  %4 = load i48, i48* %3, align 2, !dbg !1827
  ret i48 %4, !dbg !1827
}

; <libc::unix::linux_like::linux::seccomp_notif as core::clone::Clone>::clone
; Function Attrs: nonlazybind uwtable
define void @"_ZN83_$LT$libc..unix..linux_like..linux..seccomp_notif$u20$as$u20$core..clone..Clone$GT$5clone17h4c7659a7a346ae35E"(%"unix::linux_like::linux::seccomp_notif"* sret(%"unix::linux_like::linux::seccomp_notif") %0, %"unix::linux_like::linux::seccomp_notif"* align 8 %self) unnamed_addr #0 !dbg !1828 {
start:
  %self.dbg.spill = alloca %"unix::linux_like::linux::seccomp_notif"*, align 8
  store %"unix::linux_like::linux::seccomp_notif"* %self, %"unix::linux_like::linux::seccomp_notif"** %self.dbg.spill, align 8
  call void @llvm.dbg.declare(metadata %"unix::linux_like::linux::seccomp_notif"** %self.dbg.spill, metadata !1840, metadata !DIExpression()), !dbg !1841
  %1 = bitcast %"unix::linux_like::linux::seccomp_notif"* %0 to i8*, !dbg !1842
  %2 = bitcast %"unix::linux_like::linux::seccomp_notif"* %self to i8*, !dbg !1842
  call void @llvm.memcpy.p0i8.p0i8.i64(i8* align 8 %1, i8* align 8 %2, i64 80, i1 false), !dbg !1842
  ret void, !dbg !1843
}

; <libc::unix::linux_like::linux::seccomp_notif_resp as core::clone::Clone>::clone
; Function Attrs: nonlazybind uwtable
define void @"_ZN88_$LT$libc..unix..linux_like..linux..seccomp_notif_resp$u20$as$u20$core..clone..Clone$GT$5clone17heada56edad2bad84E"(%"unix::linux_like::linux::seccomp_notif_resp"* sret(%"unix::linux_like::linux::seccomp_notif_resp") %0, %"unix::linux_like::linux::seccomp_notif_resp"* align 8 %self) unnamed_addr #0 !dbg !1844 {
start:
  %self.dbg.spill = alloca %"unix::linux_like::linux::seccomp_notif_resp"*, align 8
  store %"unix::linux_like::linux::seccomp_notif_resp"* %self, %"unix::linux_like::linux::seccomp_notif_resp"** %self.dbg.spill, align 8
  call void @llvm.dbg.declare(metadata %"unix::linux_like::linux::seccomp_notif_resp"** %self.dbg.spill, metadata !1856, metadata !DIExpression()), !dbg !1857
  %1 = bitcast %"unix::linux_like::linux::seccomp_notif_resp"* %0 to i8*, !dbg !1858
  %2 = bitcast %"unix::linux_like::linux::seccomp_notif_resp"* %self to i8*, !dbg !1858
  call void @llvm.memcpy.p0i8.p0i8.i64(i8* align 8 %1, i8* align 8 %2, i64 24, i1 false), !dbg !1858
  ret void, !dbg !1859
}

; <libc::unix::linux_like::linux::seccomp_notif_addfd as core::clone::Clone>::clone
; Function Attrs: nonlazybind uwtable
define void @"_ZN89_$LT$libc..unix..linux_like..linux..seccomp_notif_addfd$u20$as$u20$core..clone..Clone$GT$5clone17hc0fe5c012e7cd680E"(%"unix::linux_like::linux::seccomp_notif_addfd"* sret(%"unix::linux_like::linux::seccomp_notif_addfd") %0, %"unix::linux_like::linux::seccomp_notif_addfd"* align 8 %self) unnamed_addr #0 !dbg !1860 {
start:
  %self.dbg.spill = alloca %"unix::linux_like::linux::seccomp_notif_addfd"*, align 8
  store %"unix::linux_like::linux::seccomp_notif_addfd"* %self, %"unix::linux_like::linux::seccomp_notif_addfd"** %self.dbg.spill, align 8
  call void @llvm.dbg.declare(metadata %"unix::linux_like::linux::seccomp_notif_addfd"** %self.dbg.spill, metadata !1873, metadata !DIExpression()), !dbg !1874
  %1 = bitcast %"unix::linux_like::linux::seccomp_notif_addfd"* %0 to i8*, !dbg !1875
  %2 = bitcast %"unix::linux_like::linux::seccomp_notif_addfd"* %self to i8*, !dbg !1875
  call void @llvm.memcpy.p0i8.p0i8.i64(i8* align 8 %1, i8* align 8 %2, i64 24, i1 false), !dbg !1875
  ret void, !dbg !1876
}

; <libc::unix::linux_like::linux::nlmsghdr as core::clone::Clone>::clone
; Function Attrs: nonlazybind uwtable
define void @"_ZN78_$LT$libc..unix..linux_like..linux..nlmsghdr$u20$as$u20$core..clone..Clone$GT$5clone17he08566d228326051E"(%"unix::linux_like::linux::nlmsghdr"* sret(%"unix::linux_like::linux::nlmsghdr") %0, %"unix::linux_like::linux::nlmsghdr"* align 4 %self) unnamed_addr #0 !dbg !1877 {
start:
  %self.dbg.spill = alloca %"unix::linux_like::linux::nlmsghdr"*, align 8
  store %"unix::linux_like::linux::nlmsghdr"* %self, %"unix::linux_like::linux::nlmsghdr"** %self.dbg.spill, align 8
  call void @llvm.dbg.declare(metadata %"unix::linux_like::linux::nlmsghdr"** %self.dbg.spill, metadata !1890, metadata !DIExpression()), !dbg !1891
  %1 = bitcast %"unix::linux_like::linux::nlmsghdr"* %0 to i8*, !dbg !1892
  %2 = bitcast %"unix::linux_like::linux::nlmsghdr"* %self to i8*, !dbg !1892
  call void @llvm.memcpy.p0i8.p0i8.i64(i8* align 4 %1, i8* align 4 %2, i64 16, i1 false), !dbg !1892
  ret void, !dbg !1893
}

; <libc::unix::linux_like::linux::nlmsgerr as core::clone::Clone>::clone
; Function Attrs: nonlazybind uwtable
define void @"_ZN78_$LT$libc..unix..linux_like..linux..nlmsgerr$u20$as$u20$core..clone..Clone$GT$5clone17hcd2407d46d6661c5E"(%"unix::linux_like::linux::nlmsgerr"* sret(%"unix::linux_like::linux::nlmsgerr") %0, %"unix::linux_like::linux::nlmsgerr"* align 4 %self) unnamed_addr #0 !dbg !1894 {
start:
  %self.dbg.spill = alloca %"unix::linux_like::linux::nlmsgerr"*, align 8
  store %"unix::linux_like::linux::nlmsgerr"* %self, %"unix::linux_like::linux::nlmsgerr"** %self.dbg.spill, align 8
  call void @llvm.dbg.declare(metadata %"unix::linux_like::linux::nlmsgerr"** %self.dbg.spill, metadata !1904, metadata !DIExpression()), !dbg !1905
  %1 = bitcast %"unix::linux_like::linux::nlmsgerr"* %0 to i8*, !dbg !1906
  %2 = bitcast %"unix::linux_like::linux::nlmsgerr"* %self to i8*, !dbg !1906
  call void @llvm.memcpy.p0i8.p0i8.i64(i8* align 4 %1, i8* align 4 %2, i64 20, i1 false), !dbg !1906
  ret void, !dbg !1907
}

; <libc::unix::linux_like::linux::nlattr as core::clone::Clone>::clone
; Function Attrs: nonlazybind uwtable
define { i16, i16 } @"_ZN76_$LT$libc..unix..linux_like..linux..nlattr$u20$as$u20$core..clone..Clone$GT$5clone17h43c8c9e16c63db77E"({ i16, i16 }* align 2 %self) unnamed_addr #0 !dbg !1908 {
start:
  %self.dbg.spill = alloca { i16, i16 }*, align 8
  store { i16, i16 }* %self, { i16, i16 }** %self.dbg.spill, align 8
  call void @llvm.dbg.declare(metadata { i16, i16 }** %self.dbg.spill, metadata !1918, metadata !DIExpression()), !dbg !1919
  %0 = getelementptr inbounds { i16, i16 }, { i16, i16 }* %self, i32 0, i32 0, !dbg !1920
  %1 = load i16, i16* %0, align 2, !dbg !1920
  %2 = getelementptr inbounds { i16, i16 }, { i16, i16 }* %self, i32 0, i32 1, !dbg !1920
  %3 = load i16, i16* %2, align 2, !dbg !1920
  %4 = insertvalue { i16, i16 } undef, i16 %1, 0, !dbg !1921
  %5 = insertvalue { i16, i16 } %4, i16 %3, 1, !dbg !1921
  ret { i16, i16 } %5, !dbg !1921
}

; <libc::unix::linux_like::linux::file_clone_range as core::clone::Clone>::clone
; Function Attrs: nonlazybind uwtable
define void @"_ZN86_$LT$libc..unix..linux_like..linux..file_clone_range$u20$as$u20$core..clone..Clone$GT$5clone17h5dc433f5f81f0328E"(%"unix::linux_like::linux::file_clone_range"* sret(%"unix::linux_like::linux::file_clone_range") %0, %"unix::linux_like::linux::file_clone_range"* align 8 %self) unnamed_addr #0 !dbg !1922 {
start:
  %self.dbg.spill = alloca %"unix::linux_like::linux::file_clone_range"*, align 8
  store %"unix::linux_like::linux::file_clone_range"* %self, %"unix::linux_like::linux::file_clone_range"** %self.dbg.spill, align 8
  call void @llvm.dbg.declare(metadata %"unix::linux_like::linux::file_clone_range"** %self.dbg.spill, metadata !1934, metadata !DIExpression()), !dbg !1935
  %1 = bitcast %"unix::linux_like::linux::file_clone_range"* %0 to i8*, !dbg !1936
  %2 = bitcast %"unix::linux_like::linux::file_clone_range"* %self to i8*, !dbg !1936
  call void @llvm.memcpy.p0i8.p0i8.i64(i8* align 8 %1, i8* align 8 %2, i64 32, i1 false), !dbg !1936
  ret void, !dbg !1937
}

; <libc::unix::linux_like::linux::__c_anonymous_ifru_map as core::clone::Clone>::clone
; Function Attrs: nonlazybind uwtable
define void @"_ZN92_$LT$libc..unix..linux_like..linux..__c_anonymous_ifru_map$u20$as$u20$core..clone..Clone$GT$5clone17h8b44e0b30184b323E"(%"unix::linux_like::linux::__c_anonymous_ifru_map"* sret(%"unix::linux_like::linux::__c_anonymous_ifru_map") %0, %"unix::linux_like::linux::__c_anonymous_ifru_map"* align 8 %self) unnamed_addr #0 !dbg !1938 {
start:
  %self.dbg.spill = alloca %"unix::linux_like::linux::__c_anonymous_ifru_map"*, align 8
  store %"unix::linux_like::linux::__c_anonymous_ifru_map"* %self, %"unix::linux_like::linux::__c_anonymous_ifru_map"** %self.dbg.spill, align 8
  call void @llvm.dbg.declare(metadata %"unix::linux_like::linux::__c_anonymous_ifru_map"** %self.dbg.spill, metadata !1952, metadata !DIExpression()), !dbg !1953
  %1 = bitcast %"unix::linux_like::linux::__c_anonymous_ifru_map"* %0 to i8*, !dbg !1954
  %2 = bitcast %"unix::linux_like::linux::__c_anonymous_ifru_map"* %self to i8*, !dbg !1954
  call void @llvm.memcpy.p0i8.p0i8.i64(i8* align 8 %1, i8* align 8 %2, i64 24, i1 false), !dbg !1954
  ret void, !dbg !1955
}

; <libc::unix::linux_like::linux::in6_ifreq as core::clone::Clone>::clone
; Function Attrs: nonlazybind uwtable
define void @"_ZN79_$LT$libc..unix..linux_like..linux..in6_ifreq$u20$as$u20$core..clone..Clone$GT$5clone17h2ce5b53f375b4c10E"(%"unix::linux_like::linux::in6_ifreq"* sret(%"unix::linux_like::linux::in6_ifreq") %0, %"unix::linux_like::linux::in6_ifreq"* align 4 %self) unnamed_addr #0 !dbg !1956 {
start:
  %self.dbg.spill = alloca %"unix::linux_like::linux::in6_ifreq"*, align 8
  store %"unix::linux_like::linux::in6_ifreq"* %self, %"unix::linux_like::linux::in6_ifreq"** %self.dbg.spill, align 8
  call void @llvm.dbg.declare(metadata %"unix::linux_like::linux::in6_ifreq"** %self.dbg.spill, metadata !1967, metadata !DIExpression()), !dbg !1968
  %1 = bitcast %"unix::linux_like::linux::in6_ifreq"* %0 to i8*, !dbg !1969
  %2 = bitcast %"unix::linux_like::linux::in6_ifreq"* %self to i8*, !dbg !1969
  call void @llvm.memcpy.p0i8.p0i8.i64(i8* align 4 %1, i8* align 4 %2, i64 24, i1 false), !dbg !1969
  ret void, !dbg !1970
}

; <libc::unix::linux_like::linux::option as core::clone::Clone>::clone
; Function Attrs: nonlazybind uwtable
define void @"_ZN76_$LT$libc..unix..linux_like..linux..option$u20$as$u20$core..clone..Clone$GT$5clone17h7cfb0cc93cbded77E"(%"unix::linux_like::linux::option"* sret(%"unix::linux_like::linux::option") %0, %"unix::linux_like::linux::option"* align 8 %self) unnamed_addr #0 !dbg !1971 {
start:
  %self.dbg.spill = alloca %"unix::linux_like::linux::option"*, align 8
  store %"unix::linux_like::linux::option"* %self, %"unix::linux_like::linux::option"** %self.dbg.spill, align 8
  call void @llvm.dbg.declare(metadata %"unix::linux_like::linux::option"** %self.dbg.spill, metadata !1983, metadata !DIExpression()), !dbg !1984
  %1 = bitcast %"unix::linux_like::linux::option"* %0 to i8*, !dbg !1985
  %2 = bitcast %"unix::linux_like::linux::option"* %self to i8*, !dbg !1985
  call void @llvm.memcpy.p0i8.p0i8.i64(i8* align 8 %1, i8* align 8 %2, i64 32, i1 false), !dbg !1985
  ret void, !dbg !1986
}

; <libc::unix::linux_like::linux::sctp_initmsg as core::clone::Clone>::clone
; Function Attrs: nonlazybind uwtable
define i64 @"_ZN82_$LT$libc..unix..linux_like..linux..sctp_initmsg$u20$as$u20$core..clone..Clone$GT$5clone17ha6235ec8ef0dce70E"(%"unix::linux_like::linux::sctp_initmsg"* align 2 %self) unnamed_addr #0 !dbg !1987 {
start:
  %self.dbg.spill = alloca %"unix::linux_like::linux::sctp_initmsg"*, align 8
  %0 = alloca %"unix::linux_like::linux::sctp_initmsg", align 2
  store %"unix::linux_like::linux::sctp_initmsg"* %self, %"unix::linux_like::linux::sctp_initmsg"** %self.dbg.spill, align 8
  call void @llvm.dbg.declare(metadata %"unix::linux_like::linux::sctp_initmsg"** %self.dbg.spill, metadata !1999, metadata !DIExpression()), !dbg !2000
  %1 = bitcast %"unix::linux_like::linux::sctp_initmsg"* %0 to i8*, !dbg !2001
  %2 = bitcast %"unix::linux_like::linux::sctp_initmsg"* %self to i8*, !dbg !2001
  call void @llvm.memcpy.p0i8.p0i8.i64(i8* align 2 %1, i8* align 2 %2, i64 8, i1 false), !dbg !2001
  %3 = bitcast %"unix::linux_like::linux::sctp_initmsg"* %0 to i64*, !dbg !2002
  %4 = load i64, i64* %3, align 2, !dbg !2002
  ret i64 %4, !dbg !2002
}

; <libc::unix::linux_like::linux::sctp_sndrcvinfo as core::clone::Clone>::clone
; Function Attrs: nonlazybind uwtable
define void @"_ZN85_$LT$libc..unix..linux_like..linux..sctp_sndrcvinfo$u20$as$u20$core..clone..Clone$GT$5clone17h97f3007a3cb8c876E"(%"unix::linux_like::linux::sctp_sndrcvinfo"* sret(%"unix::linux_like::linux::sctp_sndrcvinfo") %0, %"unix::linux_like::linux::sctp_sndrcvinfo"* align 4 %self) unnamed_addr #0 !dbg !2003 {
start:
  %self.dbg.spill = alloca %"unix::linux_like::linux::sctp_sndrcvinfo"*, align 8
  store %"unix::linux_like::linux::sctp_sndrcvinfo"* %self, %"unix::linux_like::linux::sctp_sndrcvinfo"** %self.dbg.spill, align 8
  call void @llvm.dbg.declare(metadata %"unix::linux_like::linux::sctp_sndrcvinfo"** %self.dbg.spill, metadata !2020, metadata !DIExpression()), !dbg !2021
  %1 = bitcast %"unix::linux_like::linux::sctp_sndrcvinfo"* %0 to i8*, !dbg !2022
  %2 = bitcast %"unix::linux_like::linux::sctp_sndrcvinfo"* %self to i8*, !dbg !2022
  call void @llvm.memcpy.p0i8.p0i8.i64(i8* align 4 %1, i8* align 4 %2, i64 32, i1 false), !dbg !2022
  ret void, !dbg !2023
}

; <libc::unix::linux_like::linux::sctp_sndinfo as core::clone::Clone>::clone
; Function Attrs: nonlazybind uwtable
define void @"_ZN82_$LT$libc..unix..linux_like..linux..sctp_sndinfo$u20$as$u20$core..clone..Clone$GT$5clone17had9a26f9a4b59650E"(%"unix::linux_like::linux::sctp_sndinfo"* sret(%"unix::linux_like::linux::sctp_sndinfo") %0, %"unix::linux_like::linux::sctp_sndinfo"* align 4 %self) unnamed_addr #0 !dbg !2024 {
start:
  %self.dbg.spill = alloca %"unix::linux_like::linux::sctp_sndinfo"*, align 8
  store %"unix::linux_like::linux::sctp_sndinfo"* %self, %"unix::linux_like::linux::sctp_sndinfo"** %self.dbg.spill, align 8
  call void @llvm.dbg.declare(metadata %"unix::linux_like::linux::sctp_sndinfo"** %self.dbg.spill, metadata !2037, metadata !DIExpression()), !dbg !2038
  %1 = bitcast %"unix::linux_like::linux::sctp_sndinfo"* %0 to i8*, !dbg !2039
  %2 = bitcast %"unix::linux_like::linux::sctp_sndinfo"* %self to i8*, !dbg !2039
  call void @llvm.memcpy.p0i8.p0i8.i64(i8* align 4 %1, i8* align 4 %2, i64 16, i1 false), !dbg !2039
  ret void, !dbg !2040
}

; <libc::unix::linux_like::linux::sctp_rcvinfo as core::clone::Clone>::clone
; Function Attrs: nonlazybind uwtable
define void @"_ZN82_$LT$libc..unix..linux_like..linux..sctp_rcvinfo$u20$as$u20$core..clone..Clone$GT$5clone17h3549df5197da1cc4E"(%"unix::linux_like::linux::sctp_rcvinfo"* sret(%"unix::linux_like::linux::sctp_rcvinfo") %0, %"unix::linux_like::linux::sctp_rcvinfo"* align 4 %self) unnamed_addr #0 !dbg !2041 {
start:
  %self.dbg.spill = alloca %"unix::linux_like::linux::sctp_rcvinfo"*, align 8
  store %"unix::linux_like::linux::sctp_rcvinfo"* %self, %"unix::linux_like::linux::sctp_rcvinfo"** %self.dbg.spill, align 8
  call void @llvm.dbg.declare(metadata %"unix::linux_like::linux::sctp_rcvinfo"** %self.dbg.spill, metadata !2057, metadata !DIExpression()), !dbg !2058
  %1 = bitcast %"unix::linux_like::linux::sctp_rcvinfo"* %0 to i8*, !dbg !2059
  %2 = bitcast %"unix::linux_like::linux::sctp_rcvinfo"* %self to i8*, !dbg !2059
  call void @llvm.memcpy.p0i8.p0i8.i64(i8* align 4 %1, i8* align 4 %2, i64 28, i1 false), !dbg !2059
  ret void, !dbg !2060
}

; <libc::unix::linux_like::linux::sctp_nxtinfo as core::clone::Clone>::clone
; Function Attrs: nonlazybind uwtable
define void @"_ZN82_$LT$libc..unix..linux_like..linux..sctp_nxtinfo$u20$as$u20$core..clone..Clone$GT$5clone17h6f872e923587ce9bE"(%"unix::linux_like::linux::sctp_nxtinfo"* sret(%"unix::linux_like::linux::sctp_nxtinfo") %0, %"unix::linux_like::linux::sctp_nxtinfo"* align 4 %self) unnamed_addr #0 !dbg !2061 {
start:
  %self.dbg.spill = alloca %"unix::linux_like::linux::sctp_nxtinfo"*, align 8
  store %"unix::linux_like::linux::sctp_nxtinfo"* %self, %"unix::linux_like::linux::sctp_nxtinfo"** %self.dbg.spill, align 8
  call void @llvm.dbg.declare(metadata %"unix::linux_like::linux::sctp_nxtinfo"** %self.dbg.spill, metadata !2074, metadata !DIExpression()), !dbg !2075
  %1 = bitcast %"unix::linux_like::linux::sctp_nxtinfo"* %0 to i8*, !dbg !2076
  %2 = bitcast %"unix::linux_like::linux::sctp_nxtinfo"* %self to i8*, !dbg !2076
  call void @llvm.memcpy.p0i8.p0i8.i64(i8* align 4 %1, i8* align 4 %2, i64 16, i1 false), !dbg !2076
  ret void, !dbg !2077
}

; <libc::unix::linux_like::linux::sctp_prinfo as core::clone::Clone>::clone
; Function Attrs: nonlazybind uwtable
define { i16, i32 } @"_ZN81_$LT$libc..unix..linux_like..linux..sctp_prinfo$u20$as$u20$core..clone..Clone$GT$5clone17hcc955d0015173c67E"({ i16, i32 }* align 4 %self) unnamed_addr #0 !dbg !2078 {
start:
  %self.dbg.spill = alloca { i16, i32 }*, align 8
  store { i16, i32 }* %self, { i16, i32 }** %self.dbg.spill, align 8
  call void @llvm.dbg.declare(metadata { i16, i32 }** %self.dbg.spill, metadata !2088, metadata !DIExpression()), !dbg !2089
  %0 = getelementptr inbounds { i16, i32 }, { i16, i32 }* %self, i32 0, i32 0, !dbg !2090
  %1 = load i16, i16* %0, align 4, !dbg !2090
  %2 = getelementptr inbounds { i16, i32 }, { i16, i32 }* %self, i32 0, i32 1, !dbg !2090
  %3 = load i32, i32* %2, align 4, !dbg !2090
  %4 = insertvalue { i16, i32 } undef, i16 %1, 0, !dbg !2091
  %5 = insertvalue { i16, i32 } %4, i32 %3, 1, !dbg !2091
  ret { i16, i32 } %5, !dbg !2091
}

; <libc::unix::linux_like::linux::sctp_authinfo as core::clone::Clone>::clone
; Function Attrs: nonlazybind uwtable
define i16 @"_ZN83_$LT$libc..unix..linux_like..linux..sctp_authinfo$u20$as$u20$core..clone..Clone$GT$5clone17hf10369b636f52799E"(%"unix::linux_like::linux::sctp_authinfo"* align 2 %self) unnamed_addr #0 !dbg !2092 {
start:
  %self.dbg.spill = alloca %"unix::linux_like::linux::sctp_authinfo"*, align 8
  %0 = alloca %"unix::linux_like::linux::sctp_authinfo", align 2
  store %"unix::linux_like::linux::sctp_authinfo"* %self, %"unix::linux_like::linux::sctp_authinfo"** %self.dbg.spill, align 8
  call void @llvm.dbg.declare(metadata %"unix::linux_like::linux::sctp_authinfo"** %self.dbg.spill, metadata !2101, metadata !DIExpression()), !dbg !2102
  %1 = bitcast %"unix::linux_like::linux::sctp_authinfo"* %0 to i8*, !dbg !2103
  %2 = bitcast %"unix::linux_like::linux::sctp_authinfo"* %self to i8*, !dbg !2103
  call void @llvm.memcpy.p0i8.p0i8.i64(i8* align 2 %1, i8* align 2 %2, i64 2, i1 false), !dbg !2103
  %3 = bitcast %"unix::linux_like::linux::sctp_authinfo"* %0 to i16*, !dbg !2104
  %4 = load i16, i16* %3, align 2, !dbg !2104
  ret i16 %4, !dbg !2104
}

; <libc::unix::linux_like::linux::rlimit64 as core::clone::Clone>::clone
; Function Attrs: nonlazybind uwtable
define { i64, i64 } @"_ZN78_$LT$libc..unix..linux_like..linux..rlimit64$u20$as$u20$core..clone..Clone$GT$5clone17h27491e0660eaa570E"({ i64, i64 }* align 8 %self) unnamed_addr #0 !dbg !2105 {
start:
  %self.dbg.spill = alloca { i64, i64 }*, align 8
  store { i64, i64 }* %self, { i64, i64 }** %self.dbg.spill, align 8
  call void @llvm.dbg.declare(metadata { i64, i64 }** %self.dbg.spill, metadata !2115, metadata !DIExpression()), !dbg !2116
  %0 = getelementptr inbounds { i64, i64 }, { i64, i64 }* %self, i32 0, i32 0, !dbg !2117
  %1 = load i64, i64* %0, align 8, !dbg !2117
  %2 = getelementptr inbounds { i64, i64 }, { i64, i64 }* %self, i32 0, i32 1, !dbg !2117
  %3 = load i64, i64* %2, align 8, !dbg !2117
  %4 = insertvalue { i64, i64 } undef, i64 %1, 0, !dbg !2118
  %5 = insertvalue { i64, i64 } %4, i64 %3, 1, !dbg !2118
  ret { i64, i64 } %5, !dbg !2118
}

; <libc::unix::linux_like::linux::tls_crypto_info as core::clone::Clone>::clone
; Function Attrs: nonlazybind uwtable
define { i16, i16 } @"_ZN85_$LT$libc..unix..linux_like..linux..tls_crypto_info$u20$as$u20$core..clone..Clone$GT$5clone17ha9bf38442c49ee93E"({ i16, i16 }* align 2 %self) unnamed_addr #0 !dbg !2119 {
start:
  %self.dbg.spill = alloca { i16, i16 }*, align 8
  store { i16, i16 }* %self, { i16, i16 }** %self.dbg.spill, align 8
  call void @llvm.dbg.declare(metadata { i16, i16 }** %self.dbg.spill, metadata !2129, metadata !DIExpression()), !dbg !2130
  %0 = getelementptr inbounds { i16, i16 }, { i16, i16 }* %self, i32 0, i32 0, !dbg !2131
  %1 = load i16, i16* %0, align 2, !dbg !2131
  %2 = getelementptr inbounds { i16, i16 }, { i16, i16 }* %self, i32 0, i32 1, !dbg !2131
  %3 = load i16, i16* %2, align 2, !dbg !2131
  %4 = insertvalue { i16, i16 } undef, i16 %1, 0, !dbg !2132
  %5 = insertvalue { i16, i16 } %4, i16 %3, 1, !dbg !2132
  ret { i16, i16 } %5, !dbg !2132
}

; <libc::unix::linux_like::linux::tls12_crypto_info_aes_gcm_128 as core::clone::Clone>::clone
; Function Attrs: nonlazybind uwtable
define void @"_ZN99_$LT$libc..unix..linux_like..linux..tls12_crypto_info_aes_gcm_128$u20$as$u20$core..clone..Clone$GT$5clone17h76d5b281f275dc45E"(%"unix::linux_like::linux::tls12_crypto_info_aes_gcm_128"* sret(%"unix::linux_like::linux::tls12_crypto_info_aes_gcm_128") %0, %"unix::linux_like::linux::tls12_crypto_info_aes_gcm_128"* align 2 %self) unnamed_addr #0 !dbg !2133 {
start:
  %self.dbg.spill = alloca %"unix::linux_like::linux::tls12_crypto_info_aes_gcm_128"*, align 8
  store %"unix::linux_like::linux::tls12_crypto_info_aes_gcm_128"* %self, %"unix::linux_like::linux::tls12_crypto_info_aes_gcm_128"** %self.dbg.spill, align 8
  call void @llvm.dbg.declare(metadata %"unix::linux_like::linux::tls12_crypto_info_aes_gcm_128"** %self.dbg.spill, metadata !2146, metadata !DIExpression()), !dbg !2147
  %1 = bitcast %"unix::linux_like::linux::tls12_crypto_info_aes_gcm_128"* %0 to i8*, !dbg !2148
  %2 = bitcast %"unix::linux_like::linux::tls12_crypto_info_aes_gcm_128"* %self to i8*, !dbg !2148
  call void @llvm.memcpy.p0i8.p0i8.i64(i8* align 2 %1, i8* align 2 %2, i64 40, i1 false), !dbg !2148
  ret void, !dbg !2149
}

; <libc::unix::linux_like::linux::tls12_crypto_info_aes_gcm_256 as core::clone::Clone>::clone
; Function Attrs: nonlazybind uwtable
define void @"_ZN99_$LT$libc..unix..linux_like..linux..tls12_crypto_info_aes_gcm_256$u20$as$u20$core..clone..Clone$GT$5clone17ha44e3768b5e043beE"(%"unix::linux_like::linux::tls12_crypto_info_aes_gcm_256"* sret(%"unix::linux_like::linux::tls12_crypto_info_aes_gcm_256") %0, %"unix::linux_like::linux::tls12_crypto_info_aes_gcm_256"* align 2 %self) unnamed_addr #0 !dbg !2150 {
start:
  %self.dbg.spill = alloca %"unix::linux_like::linux::tls12_crypto_info_aes_gcm_256"*, align 8
  store %"unix::linux_like::linux::tls12_crypto_info_aes_gcm_256"* %self, %"unix::linux_like::linux::tls12_crypto_info_aes_gcm_256"** %self.dbg.spill, align 8
  call void @llvm.dbg.declare(metadata %"unix::linux_like::linux::tls12_crypto_info_aes_gcm_256"** %self.dbg.spill, metadata !2163, metadata !DIExpression()), !dbg !2164
  %1 = bitcast %"unix::linux_like::linux::tls12_crypto_info_aes_gcm_256"* %0 to i8*, !dbg !2165
  %2 = bitcast %"unix::linux_like::linux::tls12_crypto_info_aes_gcm_256"* %self to i8*, !dbg !2165
  call void @llvm.memcpy.p0i8.p0i8.i64(i8* align 2 %1, i8* align 2 %2, i64 56, i1 false), !dbg !2165
  ret void, !dbg !2166
}

; <libc::unix::linux_like::linux::tls12_crypto_info_chacha20_poly1305 as core::clone::Clone>::clone
; Function Attrs: nonlazybind uwtable
define void @"_ZN105_$LT$libc..unix..linux_like..linux..tls12_crypto_info_chacha20_poly1305$u20$as$u20$core..clone..Clone$GT$5clone17h79a39f11569d71b2E"(%"unix::linux_like::linux::tls12_crypto_info_chacha20_poly1305"* sret(%"unix::linux_like::linux::tls12_crypto_info_chacha20_poly1305") %0, %"unix::linux_like::linux::tls12_crypto_info_chacha20_poly1305"* align 2 %self) unnamed_addr #0 !dbg !2167 {
start:
  %self.dbg.spill = alloca %"unix::linux_like::linux::tls12_crypto_info_chacha20_poly1305"*, align 8
  store %"unix::linux_like::linux::tls12_crypto_info_chacha20_poly1305"* %self, %"unix::linux_like::linux::tls12_crypto_info_chacha20_poly1305"** %self.dbg.spill, align 8
  call void @llvm.dbg.declare(metadata %"unix::linux_like::linux::tls12_crypto_info_chacha20_poly1305"** %self.dbg.spill, metadata !2186, metadata !DIExpression()), !dbg !2187
  %1 = bitcast %"unix::linux_like::linux::tls12_crypto_info_chacha20_poly1305"* %0 to i8*, !dbg !2188
  %2 = bitcast %"unix::linux_like::linux::tls12_crypto_info_chacha20_poly1305"* %self to i8*, !dbg !2188
  call void @llvm.memcpy.p0i8.p0i8.i64(i8* align 2 %1, i8* align 2 %2, i64 56, i1 false), !dbg !2188
  ret void, !dbg !2189
}

; <libc::unix::linux_like::linux::sockaddr_nl as core::clone::Clone>::clone
; Function Attrs: nonlazybind uwtable
define void @"_ZN81_$LT$libc..unix..linux_like..linux..sockaddr_nl$u20$as$u20$core..clone..Clone$GT$5clone17h3c0a979cd92adc0fE"(%"unix::linux_like::linux::sockaddr_nl"* sret(%"unix::linux_like::linux::sockaddr_nl") %0, %"unix::linux_like::linux::sockaddr_nl"* align 4 %self) unnamed_addr #0 !dbg !2190 {
start:
  %self.dbg.spill = alloca %"unix::linux_like::linux::sockaddr_nl"*, align 8
  store %"unix::linux_like::linux::sockaddr_nl"* %self, %"unix::linux_like::linux::sockaddr_nl"** %self.dbg.spill, align 8
  call void @llvm.dbg.declare(metadata %"unix::linux_like::linux::sockaddr_nl"** %self.dbg.spill, metadata !2202, metadata !DIExpression()), !dbg !2203
  %1 = bitcast %"unix::linux_like::linux::sockaddr_nl"* %0 to i8*, !dbg !2204
  %2 = bitcast %"unix::linux_like::linux::sockaddr_nl"* %self to i8*, !dbg !2204
  call void @llvm.memcpy.p0i8.p0i8.i64(i8* align 4 %1, i8* align 4 %2, i64 12, i1 false), !dbg !2204
  ret void, !dbg !2205
}

; <libc::unix::linux_like::linux::dirent as core::clone::Clone>::clone
; Function Attrs: nonlazybind uwtable
define void @"_ZN76_$LT$libc..unix..linux_like..linux..dirent$u20$as$u20$core..clone..Clone$GT$5clone17h2113b2e4258eb203E"(%"unix::linux_like::linux::dirent"* sret(%"unix::linux_like::linux::dirent") %0, %"unix::linux_like::linux::dirent"* align 8 %self) unnamed_addr #0 !dbg !2206 {
start:
  %self.dbg.spill = alloca %"unix::linux_like::linux::dirent"*, align 8
  store %"unix::linux_like::linux::dirent"* %self, %"unix::linux_like::linux::dirent"** %self.dbg.spill, align 8
  call void @llvm.dbg.declare(metadata %"unix::linux_like::linux::dirent"** %self.dbg.spill, metadata !2222, metadata !DIExpression()), !dbg !2223
  %1 = bitcast %"unix::linux_like::linux::dirent"* %0 to i8*, !dbg !2224
  %2 = bitcast %"unix::linux_like::linux::dirent"* %self to i8*, !dbg !2224
  call void @llvm.memcpy.p0i8.p0i8.i64(i8* align 8 %1, i8* align 8 %2, i64 280, i1 false), !dbg !2224
  ret void, !dbg !2225
}

; <libc::unix::linux_like::linux::sockaddr_alg as core::clone::Clone>::clone
; Function Attrs: nonlazybind uwtable
define void @"_ZN82_$LT$libc..unix..linux_like..linux..sockaddr_alg$u20$as$u20$core..clone..Clone$GT$5clone17h8a391d53c0359a95E"(%"unix::linux_like::linux::sockaddr_alg"* sret(%"unix::linux_like::linux::sockaddr_alg") %0, %"unix::linux_like::linux::sockaddr_alg"* align 4 %self) unnamed_addr #0 !dbg !2226 {
start:
  %self.dbg.spill = alloca %"unix::linux_like::linux::sockaddr_alg"*, align 8
  store %"unix::linux_like::linux::sockaddr_alg"* %self, %"unix::linux_like::linux::sockaddr_alg"** %self.dbg.spill, align 8
  call void @llvm.dbg.declare(metadata %"unix::linux_like::linux::sockaddr_alg"** %self.dbg.spill, metadata !2243, metadata !DIExpression()), !dbg !2244
  %1 = bitcast %"unix::linux_like::linux::sockaddr_alg"* %0 to i8*, !dbg !2245
  %2 = bitcast %"unix::linux_like::linux::sockaddr_alg"* %self to i8*, !dbg !2245
  call void @llvm.memcpy.p0i8.p0i8.i64(i8* align 4 %1, i8* align 4 %2, i64 88, i1 false), !dbg !2245
  ret void, !dbg !2246
}

; <libc::unix::linux_like::linux::uinput_setup as core::clone::Clone>::clone
; Function Attrs: nonlazybind uwtable
define void @"_ZN82_$LT$libc..unix..linux_like..linux..uinput_setup$u20$as$u20$core..clone..Clone$GT$5clone17hd20102f4a98f4f6cE"(%"unix::linux_like::linux::uinput_setup"* sret(%"unix::linux_like::linux::uinput_setup") %0, %"unix::linux_like::linux::uinput_setup"* align 4 %self) unnamed_addr #0 !dbg !2247 {
start:
  %self.dbg.spill = alloca %"unix::linux_like::linux::uinput_setup"*, align 8
  store %"unix::linux_like::linux::uinput_setup"* %self, %"unix::linux_like::linux::uinput_setup"** %self.dbg.spill, align 8
  call void @llvm.dbg.declare(metadata %"unix::linux_like::linux::uinput_setup"** %self.dbg.spill, metadata !2261, metadata !DIExpression()), !dbg !2262
  %1 = bitcast %"unix::linux_like::linux::uinput_setup"* %0 to i8*, !dbg !2263
  %2 = bitcast %"unix::linux_like::linux::uinput_setup"* %self to i8*, !dbg !2263
  call void @llvm.memcpy.p0i8.p0i8.i64(i8* align 4 %1, i8* align 4 %2, i64 92, i1 false), !dbg !2263
  ret void, !dbg !2264
}

; <libc::unix::linux_like::linux::uinput_user_dev as core::clone::Clone>::clone
; Function Attrs: nonlazybind uwtable
define void @"_ZN85_$LT$libc..unix..linux_like..linux..uinput_user_dev$u20$as$u20$core..clone..Clone$GT$5clone17h69dfbc7a7c66da7dE"(%"unix::linux_like::linux::uinput_user_dev"* sret(%"unix::linux_like::linux::uinput_user_dev") %0, %"unix::linux_like::linux::uinput_user_dev"* align 4 %self) unnamed_addr #0 !dbg !2265 {
start:
  %self.dbg.spill = alloca %"unix::linux_like::linux::uinput_user_dev"*, align 8
  store %"unix::linux_like::linux::uinput_user_dev"* %self, %"unix::linux_like::linux::uinput_user_dev"** %self.dbg.spill, align 8
  call void @llvm.dbg.declare(metadata %"unix::linux_like::linux::uinput_user_dev"** %self.dbg.spill, metadata !2281, metadata !DIExpression()), !dbg !2282
  %1 = bitcast %"unix::linux_like::linux::uinput_user_dev"* %0 to i8*, !dbg !2283
  %2 = bitcast %"unix::linux_like::linux::uinput_user_dev"* %self to i8*, !dbg !2283
  call void @llvm.memcpy.p0i8.p0i8.i64(i8* align 4 %1, i8* align 4 %2, i64 1116, i1 false), !dbg !2283
  ret void, !dbg !2284
}

; <libc::unix::linux_like::linux::af_alg_iv as core::clone::Clone>::clone
; Function Attrs: nonlazybind uwtable
define i32 @"_ZN79_$LT$libc..unix..linux_like..linux..af_alg_iv$u20$as$u20$core..clone..Clone$GT$5clone17h4672d1cd7c892405E"(%"unix::linux_like::linux::af_alg_iv"* align 4 %self) unnamed_addr #0 !dbg !2285 {
start:
  %self.dbg.spill = alloca %"unix::linux_like::linux::af_alg_iv"*, align 8
  %0 = alloca %"unix::linux_like::linux::af_alg_iv", align 4
  store %"unix::linux_like::linux::af_alg_iv"* %self, %"unix::linux_like::linux::af_alg_iv"** %self.dbg.spill, align 8
  call void @llvm.dbg.declare(metadata %"unix::linux_like::linux::af_alg_iv"** %self.dbg.spill, metadata !2295, metadata !DIExpression()), !dbg !2296
  %1 = bitcast %"unix::linux_like::linux::af_alg_iv"* %0 to i8*, !dbg !2297
  %2 = bitcast %"unix::linux_like::linux::af_alg_iv"* %self to i8*, !dbg !2297
  call void @llvm.memcpy.p0i8.p0i8.i64(i8* align 4 %1, i8* align 4 %2, i64 4, i1 false), !dbg !2297
  %3 = bitcast %"unix::linux_like::linux::af_alg_iv"* %0 to i32*, !dbg !2298
  %4 = load i32, i32* %3, align 4, !dbg !2298
  ret i32 %4, !dbg !2298
}

; <libc::unix::linux_like::linux::mq_attr as core::clone::Clone>::clone
; Function Attrs: nonlazybind uwtable
define void @"_ZN77_$LT$libc..unix..linux_like..linux..mq_attr$u20$as$u20$core..clone..Clone$GT$5clone17h532b248855f83738E"(%"unix::linux_like::linux::mq_attr"* sret(%"unix::linux_like::linux::mq_attr") %0, %"unix::linux_like::linux::mq_attr"* align 8 %self) unnamed_addr #0 !dbg !2299 {
start:
  %self.dbg.spill = alloca %"unix::linux_like::linux::mq_attr"*, align 8
  store %"unix::linux_like::linux::mq_attr"* %self, %"unix::linux_like::linux::mq_attr"** %self.dbg.spill, align 8
  call void @llvm.dbg.declare(metadata %"unix::linux_like::linux::mq_attr"** %self.dbg.spill, metadata !2313, metadata !DIExpression()), !dbg !2314
  %1 = bitcast %"unix::linux_like::linux::mq_attr"* %0 to i8*, !dbg !2315
  %2 = bitcast %"unix::linux_like::linux::mq_attr"* %self to i8*, !dbg !2315
  call void @llvm.memcpy.p0i8.p0i8.i64(i8* align 8 %1, i8* align 8 %2, i64 64, i1 false), !dbg !2315
  ret void, !dbg !2316
}

; <libc::unix::linux_like::linux::__c_anonymous_ifr_ifru as core::clone::Clone>::clone
; Function Attrs: nonlazybind uwtable
define void @"_ZN92_$LT$libc..unix..linux_like..linux..__c_anonymous_ifr_ifru$u20$as$u20$core..clone..Clone$GT$5clone17h846b3d3bec605b3aE"(%"unix::linux_like::linux::__c_anonymous_ifr_ifru"* sret(%"unix::linux_like::linux::__c_anonymous_ifr_ifru") %0, %"unix::linux_like::linux::__c_anonymous_ifr_ifru"* align 8 %self) unnamed_addr #0 !dbg !2317 {
start:
  %self.dbg.spill = alloca %"unix::linux_like::linux::__c_anonymous_ifr_ifru"*, align 8
  store %"unix::linux_like::linux::__c_anonymous_ifr_ifru"* %self, %"unix::linux_like::linux::__c_anonymous_ifr_ifru"** %self.dbg.spill, align 8
  call void @llvm.dbg.declare(metadata %"unix::linux_like::linux::__c_anonymous_ifr_ifru"** %self.dbg.spill, metadata !2338, metadata !DIExpression()), !dbg !2339
  %1 = bitcast %"unix::linux_like::linux::__c_anonymous_ifr_ifru"* %0 to i8*, !dbg !2340
  %2 = bitcast %"unix::linux_like::linux::__c_anonymous_ifr_ifru"* %self to i8*, !dbg !2340
  call void @llvm.memcpy.p0i8.p0i8.i64(i8* align 8 %1, i8* align 8 %2, i64 24, i1 false), !dbg !2340
  ret void, !dbg !2341
}

; <libc::unix::linux_like::linux::ifreq as core::clone::Clone>::clone
; Function Attrs: nonlazybind uwtable
define void @"_ZN75_$LT$libc..unix..linux_like..linux..ifreq$u20$as$u20$core..clone..Clone$GT$5clone17h02bbff55d6110e6eE"(%"unix::linux_like::linux::ifreq"* sret(%"unix::linux_like::linux::ifreq") %0, %"unix::linux_like::linux::ifreq"* align 8 %self) unnamed_addr #0 !dbg !2342 {
start:
  %self.dbg.spill = alloca %"unix::linux_like::linux::ifreq"*, align 8
  store %"unix::linux_like::linux::ifreq"* %self, %"unix::linux_like::linux::ifreq"** %self.dbg.spill, align 8
  call void @llvm.dbg.declare(metadata %"unix::linux_like::linux::ifreq"** %self.dbg.spill, metadata !2352, metadata !DIExpression()), !dbg !2353
  %1 = bitcast %"unix::linux_like::linux::ifreq"* %0 to i8*, !dbg !2354
  %2 = bitcast %"unix::linux_like::linux::ifreq"* %self to i8*, !dbg !2354
  call void @llvm.memcpy.p0i8.p0i8.i64(i8* align 8 %1, i8* align 8 %2, i64 40, i1 false), !dbg !2354
  ret void, !dbg !2355
}

; <libc::unix::linux_like::linux::__c_anonymous_ifc_ifcu as core::clone::Clone>::clone
; Function Attrs: nonlazybind uwtable
define i64 @"_ZN92_$LT$libc..unix..linux_like..linux..__c_anonymous_ifc_ifcu$u20$as$u20$core..clone..Clone$GT$5clone17h72d0d6472fd944bbE"(%"unix::linux_like::linux::__c_anonymous_ifc_ifcu"* align 8 %self) unnamed_addr #0 !dbg !2356 {
start:
  %self.dbg.spill = alloca %"unix::linux_like::linux::__c_anonymous_ifc_ifcu"*, align 8
  %0 = alloca %"unix::linux_like::linux::__c_anonymous_ifc_ifcu", align 8
  store %"unix::linux_like::linux::__c_anonymous_ifc_ifcu"* %self, %"unix::linux_like::linux::__c_anonymous_ifc_ifcu"** %self.dbg.spill, align 8
  call void @llvm.dbg.declare(metadata %"unix::linux_like::linux::__c_anonymous_ifc_ifcu"** %self.dbg.spill, metadata !2367, metadata !DIExpression()), !dbg !2368
  %1 = bitcast %"unix::linux_like::linux::__c_anonymous_ifc_ifcu"* %0 to i8*, !dbg !2369
  %2 = bitcast %"unix::linux_like::linux::__c_anonymous_ifc_ifcu"* %self to i8*, !dbg !2369
  call void @llvm.memcpy.p0i8.p0i8.i64(i8* align 8 %1, i8* align 8 %2, i64 8, i1 false), !dbg !2369
  %3 = bitcast %"unix::linux_like::linux::__c_anonymous_ifc_ifcu"* %0 to i64*, !dbg !2370
  %4 = load i64, i64* %3, align 8, !dbg !2370
  ret i64 %4, !dbg !2370
}

; <libc::unix::linux_like::linux::ifconf as core::clone::Clone>::clone
; Function Attrs: nonlazybind uwtable
define void @"_ZN76_$LT$libc..unix..linux_like..linux..ifconf$u20$as$u20$core..clone..Clone$GT$5clone17hac18978a6e776deeE"(%"unix::linux_like::linux::ifconf"* sret(%"unix::linux_like::linux::ifconf") %0, %"unix::linux_like::linux::ifconf"* align 8 %self) unnamed_addr #0 !dbg !2371 {
start:
  %self.dbg.spill = alloca %"unix::linux_like::linux::ifconf"*, align 8
  store %"unix::linux_like::linux::ifconf"* %self, %"unix::linux_like::linux::ifconf"** %self.dbg.spill, align 8
  call void @llvm.dbg.declare(metadata %"unix::linux_like::linux::ifconf"** %self.dbg.spill, metadata !2381, metadata !DIExpression()), !dbg !2382
  %1 = bitcast %"unix::linux_like::linux::ifconf"* %0 to i8*, !dbg !2383
  %2 = bitcast %"unix::linux_like::linux::ifconf"* %self to i8*, !dbg !2383
  call void @llvm.memcpy.p0i8.p0i8.i64(i8* align 8 %1, i8* align 8 %2, i64 16, i1 false), !dbg !2383
  ret void, !dbg !2384
}

; <libc::unix::linux_like::linux::hwtstamp_config as core::clone::Clone>::clone
; Function Attrs: nonlazybind uwtable
define void @"_ZN85_$LT$libc..unix..linux_like..linux..hwtstamp_config$u20$as$u20$core..clone..Clone$GT$5clone17h118a77a0e4e72ed2E"(%"unix::linux_like::linux::hwtstamp_config"* sret(%"unix::linux_like::linux::hwtstamp_config") %0, %"unix::linux_like::linux::hwtstamp_config"* align 4 %self) unnamed_addr #0 !dbg !2385 {
start:
  %self.dbg.spill = alloca %"unix::linux_like::linux::hwtstamp_config"*, align 8
  store %"unix::linux_like::linux::hwtstamp_config"* %self, %"unix::linux_like::linux::hwtstamp_config"** %self.dbg.spill, align 8
  call void @llvm.dbg.declare(metadata %"unix::linux_like::linux::hwtstamp_config"** %self.dbg.spill, metadata !2396, metadata !DIExpression()), !dbg !2397
  %1 = bitcast %"unix::linux_like::linux::hwtstamp_config"* %0 to i8*, !dbg !2398
  %2 = bitcast %"unix::linux_like::linux::hwtstamp_config"* %self to i8*, !dbg !2398
  call void @llvm.memcpy.p0i8.p0i8.i64(i8* align 4 %1, i8* align 4 %2, i64 12, i1 false), !dbg !2398
  ret void, !dbg !2399
}

; <libc::unix::linux_like::linux::dirent64 as core::clone::Clone>::clone
; Function Attrs: nonlazybind uwtable
define void @"_ZN78_$LT$libc..unix..linux_like..linux..dirent64$u20$as$u20$core..clone..Clone$GT$5clone17hce8fdb7f5feb4ae9E"(%"unix::linux_like::linux::dirent64"* sret(%"unix::linux_like::linux::dirent64") %0, %"unix::linux_like::linux::dirent64"* align 8 %self) unnamed_addr #0 !dbg !2400 {
start:
  %self.dbg.spill = alloca %"unix::linux_like::linux::dirent64"*, align 8
  store %"unix::linux_like::linux::dirent64"* %self, %"unix::linux_like::linux::dirent64"** %self.dbg.spill, align 8
  call void @llvm.dbg.declare(metadata %"unix::linux_like::linux::dirent64"** %self.dbg.spill, metadata !2413, metadata !DIExpression()), !dbg !2414
  %1 = bitcast %"unix::linux_like::linux::dirent64"* %0 to i8*, !dbg !2415
  %2 = bitcast %"unix::linux_like::linux::dirent64"* %self to i8*, !dbg !2415
  call void @llvm.memcpy.p0i8.p0i8.i64(i8* align 8 %1, i8* align 8 %2, i64 280, i1 false), !dbg !2415
  ret void, !dbg !2416
}

; <libc::unix::linux_like::linux::sched_attr as core::clone::Clone>::clone
; Function Attrs: nonlazybind uwtable
define void @"_ZN80_$LT$libc..unix..linux_like..linux..sched_attr$u20$as$u20$core..clone..Clone$GT$5clone17h61156ff13004b618E"(%"unix::linux_like::linux::sched_attr"* sret(%"unix::linux_like::linux::sched_attr") %0, %"unix::linux_like::linux::sched_attr"* align 8 %self) unnamed_addr #0 !dbg !2417 {
start:
  %self.dbg.spill = alloca %"unix::linux_like::linux::sched_attr"*, align 8
  store %"unix::linux_like::linux::sched_attr"* %self, %"unix::linux_like::linux::sched_attr"** %self.dbg.spill, align 8
  call void @llvm.dbg.declare(metadata %"unix::linux_like::linux::sched_attr"** %self.dbg.spill, metadata !2433, metadata !DIExpression()), !dbg !2434
  %1 = bitcast %"unix::linux_like::linux::sched_attr"* %0 to i8*, !dbg !2435
  %2 = bitcast %"unix::linux_like::linux::sched_attr"* %self to i8*, !dbg !2435
  call void @llvm.memcpy.p0i8.p0i8.i64(i8* align 8 %1, i8* align 8 %2, i64 48, i1 false), !dbg !2435
  ret void, !dbg !2436
}

; <libc::unix::linux_like::linux::sock_txtime as core::clone::Clone>::clone
; Function Attrs: nonlazybind uwtable
define { i32, i32 } @"_ZN81_$LT$libc..unix..linux_like..linux..sock_txtime$u20$as$u20$core..clone..Clone$GT$5clone17hd2b14db5cd63b285E"({ i32, i32 }* align 4 %self) unnamed_addr #0 !dbg !2437 {
start:
  %self.dbg.spill = alloca { i32, i32 }*, align 8
  store { i32, i32 }* %self, { i32, i32 }** %self.dbg.spill, align 8
  call void @llvm.dbg.declare(metadata { i32, i32 }** %self.dbg.spill, metadata !2447, metadata !DIExpression()), !dbg !2448
  %0 = getelementptr inbounds { i32, i32 }, { i32, i32 }* %self, i32 0, i32 0, !dbg !2449
  %1 = load i32, i32* %0, align 4, !dbg !2449
  %2 = getelementptr inbounds { i32, i32 }, { i32, i32 }* %self, i32 0, i32 1, !dbg !2449
  %3 = load i32, i32* %2, align 4, !dbg !2449
  %4 = insertvalue { i32, i32 } undef, i32 %1, 0, !dbg !2450
  %5 = insertvalue { i32, i32 } %4, i32 %3, 1, !dbg !2450
  ret { i32, i32 } %5, !dbg !2450
}

; <libc::unix::linux_like::linux::__c_anonymous_sockaddr_can_can_addr as core::clone::Clone>::clone
; Function Attrs: nonlazybind uwtable
define void @"_ZN105_$LT$libc..unix..linux_like..linux..__c_anonymous_sockaddr_can_can_addr$u20$as$u20$core..clone..Clone$GT$5clone17hebf7f5339ddbad9cE"(%"unix::linux_like::linux::__c_anonymous_sockaddr_can_can_addr"* sret(%"unix::linux_like::linux::__c_anonymous_sockaddr_can_can_addr") %0, %"unix::linux_like::linux::__c_anonymous_sockaddr_can_can_addr"* align 8 %self) unnamed_addr #0 !dbg !2451 {
start:
  %self.dbg.spill = alloca %"unix::linux_like::linux::__c_anonymous_sockaddr_can_can_addr"*, align 8
  store %"unix::linux_like::linux::__c_anonymous_sockaddr_can_can_addr"* %self, %"unix::linux_like::linux::__c_anonymous_sockaddr_can_can_addr"** %self.dbg.spill, align 8
  call void @llvm.dbg.declare(metadata %"unix::linux_like::linux::__c_anonymous_sockaddr_can_can_addr"** %self.dbg.spill, metadata !2461, metadata !DIExpression()), !dbg !2462
  %1 = bitcast %"unix::linux_like::linux::__c_anonymous_sockaddr_can_can_addr"* %0 to i8*, !dbg !2463
  %2 = bitcast %"unix::linux_like::linux::__c_anonymous_sockaddr_can_can_addr"* %self to i8*, !dbg !2463
  call void @llvm.memcpy.p0i8.p0i8.i64(i8* align 8 %1, i8* align 8 %2, i64 16, i1 false), !dbg !2463
  ret void, !dbg !2464
}

; <libc::unix::linux_like::linux::sockaddr_can as core::clone::Clone>::clone
; Function Attrs: nonlazybind uwtable
define void @"_ZN82_$LT$libc..unix..linux_like..linux..sockaddr_can$u20$as$u20$core..clone..Clone$GT$5clone17h138e535e7a68cb30E"(%"unix::linux_like::linux::sockaddr_can"* sret(%"unix::linux_like::linux::sockaddr_can") %0, %"unix::linux_like::linux::sockaddr_can"* align 8 %self) unnamed_addr #0 !dbg !2465 {
start:
  %self.dbg.spill = alloca %"unix::linux_like::linux::sockaddr_can"*, align 8
  store %"unix::linux_like::linux::sockaddr_can"* %self, %"unix::linux_like::linux::sockaddr_can"** %self.dbg.spill, align 8
  call void @llvm.dbg.declare(metadata %"unix::linux_like::linux::sockaddr_can"** %self.dbg.spill, metadata !2476, metadata !DIExpression()), !dbg !2477
  %1 = bitcast %"unix::linux_like::linux::sockaddr_can"* %0 to i8*, !dbg !2478
  %2 = bitcast %"unix::linux_like::linux::sockaddr_can"* %self to i8*, !dbg !2478
  call void @llvm.memcpy.p0i8.p0i8.i64(i8* align 8 %1, i8* align 8 %2, i64 24, i1 false), !dbg !2478
  ret void, !dbg !2479
}

; libc::unix::linux_like::linux::gnu::<impl libc::unix::linux_like::linux::gnu::b64::x86_64::siginfo_t>::si_addr
; Function Attrs: nonlazybind uwtable
define i8* @"_ZN4libc4unix10linux_like5linux3gnu76_$LT$impl$u20$libc..unix..linux_like..linux..gnu..b64..x86_64..siginfo_t$GT$7si_addr17hba320052ac815ea1E"(%"unix::linux_like::linux::gnu::b64::x86_64::siginfo_t"* align 8 %self) unnamed_addr #0 !dbg !2480 {
start:
  %self.dbg.spill = alloca %"unix::linux_like::linux::gnu::b64::x86_64::siginfo_t"*, align 8
  store %"unix::linux_like::linux::gnu::b64::x86_64::siginfo_t"* %self, %"unix::linux_like::linux::gnu::b64::x86_64::siginfo_t"** %self.dbg.spill, align 8
  call void @llvm.dbg.declare(metadata %"unix::linux_like::linux::gnu::b64::x86_64::siginfo_t"** %self.dbg.spill, metadata !2498, metadata !DIExpression()), !dbg !2499
  %_2 = bitcast %"unix::linux_like::linux::gnu::b64::x86_64::siginfo_t"* %self to %"unix::linux_like::linux::gnu::<impl unix::linux_like::linux::gnu::b64::x86_64::siginfo_t>::si_addr::siginfo_sigfault"*, !dbg !2500, !rawptr !2501, !ydy.unsafe !31
  %0 = getelementptr inbounds %"unix::linux_like::linux::gnu::<impl unix::linux_like::linux::gnu::b64::x86_64::siginfo_t>::si_addr::siginfo_sigfault", %"unix::linux_like::linux::gnu::<impl unix::linux_like::linux::gnu::b64::x86_64::siginfo_t>::si_addr::siginfo_sigfault"* %_2, i32 0, i32 4, !dbg !2502, !ydy.unsafe !31
  %1 = load i8*, i8** %0, align 8, !dbg !2502, !rawptr !2501, !ydy.unsafe !31
  ret i8* %1, !dbg !2503, !ydy.unsafe !31
}

; libc::unix::linux_like::linux::gnu::<impl libc::unix::linux_like::linux::gnu::b64::x86_64::siginfo_t>::si_value
; Function Attrs: nonlazybind uwtable
define i64 @"_ZN4libc4unix10linux_like5linux3gnu76_$LT$impl$u20$libc..unix..linux_like..linux..gnu..b64..x86_64..siginfo_t$GT$8si_value17h4a51e52e5faa3c7dE"(%"unix::linux_like::linux::gnu::b64::x86_64::siginfo_t"* align 8 %self) unnamed_addr #0 !dbg !2504 {
start:
  %self.dbg.spill = alloca %"unix::linux_like::linux::gnu::b64::x86_64::siginfo_t"*, align 8
  %0 = alloca %"unix::sigval", align 8
  store %"unix::linux_like::linux::gnu::b64::x86_64::siginfo_t"* %self, %"unix::linux_like::linux::gnu::b64::x86_64::siginfo_t"** %self.dbg.spill, align 8
  call void @llvm.dbg.declare(metadata %"unix::linux_like::linux::gnu::b64::x86_64::siginfo_t"** %self.dbg.spill, metadata !2508, metadata !DIExpression()), !dbg !2509
  %_2 = bitcast %"unix::linux_like::linux::gnu::b64::x86_64::siginfo_t"* %self to %"unix::linux_like::linux::gnu::<impl unix::linux_like::linux::gnu::b64::x86_64::siginfo_t>::si_value::siginfo_timer"*, !dbg !2510, !rawptr !2501, !ydy.unsafe !31
  %1 = getelementptr inbounds %"unix::linux_like::linux::gnu::<impl unix::linux_like::linux::gnu::b64::x86_64::siginfo_t>::si_value::siginfo_timer", %"unix::linux_like::linux::gnu::<impl unix::linux_like::linux::gnu::b64::x86_64::siginfo_t>::si_value::siginfo_timer"* %_2, i32 0, i32 6, !dbg !2511, !ydy.unsafe !31
  %2 = bitcast %"unix::sigval"* %0 to i8*, !dbg !2511, !ydy.unsafe !31
  %3 = bitcast %"unix::sigval"* %1 to i8*, !dbg !2511, !ydy.unsafe !31
  call void @llvm.memcpy.p0i8.p0i8.i64(i8* align 8 %2, i8* align 8 %3, i64 8, i1 false), !dbg !2511, !ydy.unsafe !31
  %4 = bitcast %"unix::sigval"* %0 to i64*, !dbg !2512, !ydy.unsafe !31
  %5 = load i64, i64* %4, align 8, !dbg !2512, !ydy.unsafe !31
  ret i64 %5, !dbg !2512, !ydy.unsafe !31
}

; <libc::unix::linux_like::linux::gnu::statx as core::clone::Clone>::clone
; Function Attrs: nonlazybind uwtable
define void @"_ZN80_$LT$libc..unix..linux_like..linux..gnu..statx$u20$as$u20$core..clone..Clone$GT$5clone17h77d1f3bb3f6d9fb2E"(%"unix::linux_like::linux::gnu::statx"* sret(%"unix::linux_like::linux::gnu::statx") %0, %"unix::linux_like::linux::gnu::statx"* align 8 %self) unnamed_addr #0 !dbg !2513 {
start:
  %self.dbg.spill = alloca %"unix::linux_like::linux::gnu::statx"*, align 8
  store %"unix::linux_like::linux::gnu::statx"* %self, %"unix::linux_like::linux::gnu::statx"** %self.dbg.spill, align 8
  call void @llvm.dbg.declare(metadata %"unix::linux_like::linux::gnu::statx"** %self.dbg.spill, metadata !2555, metadata !DIExpression()), !dbg !2556
  %1 = bitcast %"unix::linux_like::linux::gnu::statx"* %0 to i8*, !dbg !2557
  %2 = bitcast %"unix::linux_like::linux::gnu::statx"* %self to i8*, !dbg !2557
  call void @llvm.memcpy.p0i8.p0i8.i64(i8* align 8 %1, i8* align 8 %2, i64 256, i1 false), !dbg !2557
  ret void, !dbg !2558
}

; <libc::unix::linux_like::linux::gnu::statx_timestamp as core::clone::Clone>::clone
; Function Attrs: nonlazybind uwtable
define void @"_ZN90_$LT$libc..unix..linux_like..linux..gnu..statx_timestamp$u20$as$u20$core..clone..Clone$GT$5clone17h165304aaf161ace4E"(%"unix::linux_like::linux::gnu::statx_timestamp"* sret(%"unix::linux_like::linux::gnu::statx_timestamp") %0, %"unix::linux_like::linux::gnu::statx_timestamp"* align 8 %self) unnamed_addr #0 !dbg !2559 {
start:
  %self.dbg.spill = alloca %"unix::linux_like::linux::gnu::statx_timestamp"*, align 8
  store %"unix::linux_like::linux::gnu::statx_timestamp"* %self, %"unix::linux_like::linux::gnu::statx_timestamp"** %self.dbg.spill, align 8
  call void @llvm.dbg.declare(metadata %"unix::linux_like::linux::gnu::statx_timestamp"** %self.dbg.spill, metadata !2565, metadata !DIExpression()), !dbg !2566
  %1 = bitcast %"unix::linux_like::linux::gnu::statx_timestamp"* %0 to i8*, !dbg !2567
  %2 = bitcast %"unix::linux_like::linux::gnu::statx_timestamp"* %self to i8*, !dbg !2567
  call void @llvm.memcpy.p0i8.p0i8.i64(i8* align 8 %1, i8* align 8 %2, i64 16, i1 false), !dbg !2567
  ret void, !dbg !2568
}

; <libc::unix::linux_like::linux::gnu::aiocb as core::clone::Clone>::clone
; Function Attrs: nonlazybind uwtable
define void @"_ZN80_$LT$libc..unix..linux_like..linux..gnu..aiocb$u20$as$u20$core..clone..Clone$GT$5clone17hce50bb5fa3e74abfE"(%"unix::linux_like::linux::gnu::aiocb"* sret(%"unix::linux_like::linux::gnu::aiocb") %0, %"unix::linux_like::linux::gnu::aiocb"* align 8 %self) unnamed_addr #0 !dbg !2569 {
start:
  %self.dbg.spill = alloca %"unix::linux_like::linux::gnu::aiocb"*, align 8
  store %"unix::linux_like::linux::gnu::aiocb"* %self, %"unix::linux_like::linux::gnu::aiocb"** %self.dbg.spill, align 8
  call void @llvm.dbg.declare(metadata %"unix::linux_like::linux::gnu::aiocb"** %self.dbg.spill, metadata !2593, metadata !DIExpression()), !dbg !2594
  %1 = bitcast %"unix::linux_like::linux::gnu::aiocb"* %0 to i8*, !dbg !2595
  %2 = bitcast %"unix::linux_like::linux::gnu::aiocb"* %self to i8*, !dbg !2595
  call void @llvm.memcpy.p0i8.p0i8.i64(i8* align 8 %1, i8* align 8 %2, i64 168, i1 false), !dbg !2595
  ret void, !dbg !2596
}

; <libc::unix::linux_like::linux::gnu::__exit_status as core::clone::Clone>::clone
; Function Attrs: nonlazybind uwtable
define { i16, i16 } @"_ZN88_$LT$libc..unix..linux_like..linux..gnu..__exit_status$u20$as$u20$core..clone..Clone$GT$5clone17h362359e5e36b33d0E"({ i16, i16 }* align 2 %self) unnamed_addr #0 !dbg !2597 {
start:
  %self.dbg.spill = alloca { i16, i16 }*, align 8
  store { i16, i16 }* %self, { i16, i16 }** %self.dbg.spill, align 8
  call void @llvm.dbg.declare(metadata { i16, i16 }** %self.dbg.spill, metadata !2607, metadata !DIExpression()), !dbg !2608
  %0 = getelementptr inbounds { i16, i16 }, { i16, i16 }* %self, i32 0, i32 0, !dbg !2609
  %1 = load i16, i16* %0, align 2, !dbg !2609
  %2 = getelementptr inbounds { i16, i16 }, { i16, i16 }* %self, i32 0, i32 1, !dbg !2609
  %3 = load i16, i16* %2, align 2, !dbg !2609
  %4 = insertvalue { i16, i16 } undef, i16 %1, 0, !dbg !2610
  %5 = insertvalue { i16, i16 } %4, i16 %3, 1, !dbg !2610
  ret { i16, i16 } %5, !dbg !2610
}

; <libc::unix::linux_like::linux::gnu::__timeval as core::clone::Clone>::clone
; Function Attrs: nonlazybind uwtable
define { i32, i32 } @"_ZN84_$LT$libc..unix..linux_like..linux..gnu..__timeval$u20$as$u20$core..clone..Clone$GT$5clone17h305e1a79d85f08f6E"({ i32, i32 }* align 4 %self) unnamed_addr #0 !dbg !2611 {
start:
  %self.dbg.spill = alloca { i32, i32 }*, align 8
  store { i32, i32 }* %self, { i32, i32 }** %self.dbg.spill, align 8
  call void @llvm.dbg.declare(metadata { i32, i32 }** %self.dbg.spill, metadata !2621, metadata !DIExpression()), !dbg !2622
  %0 = getelementptr inbounds { i32, i32 }, { i32, i32 }* %self, i32 0, i32 0, !dbg !2623
  %1 = load i32, i32* %0, align 4, !dbg !2623
  %2 = getelementptr inbounds { i32, i32 }, { i32, i32 }* %self, i32 0, i32 1, !dbg !2623
  %3 = load i32, i32* %2, align 4, !dbg !2623
  %4 = insertvalue { i32, i32 } undef, i32 %1, 0, !dbg !2624
  %5 = insertvalue { i32, i32 } %4, i32 %3, 1, !dbg !2624
  ret { i32, i32 } %5, !dbg !2624
}

; <libc::unix::linux_like::linux::gnu::glob64_t as core::clone::Clone>::clone
; Function Attrs: nonlazybind uwtable
define void @"_ZN83_$LT$libc..unix..linux_like..linux..gnu..glob64_t$u20$as$u20$core..clone..Clone$GT$5clone17h30f2806177e6c971E"(%"unix::linux_like::linux::gnu::glob64_t"* sret(%"unix::linux_like::linux::gnu::glob64_t") %0, %"unix::linux_like::linux::gnu::glob64_t"* align 8 %self) unnamed_addr #0 !dbg !2625 {
start:
  %self.dbg.spill = alloca %"unix::linux_like::linux::gnu::glob64_t"*, align 8
  store %"unix::linux_like::linux::gnu::glob64_t"* %self, %"unix::linux_like::linux::gnu::glob64_t"** %self.dbg.spill, align 8
  call void @llvm.dbg.declare(metadata %"unix::linux_like::linux::gnu::glob64_t"** %self.dbg.spill, metadata !2642, metadata !DIExpression()), !dbg !2643
  %1 = bitcast %"unix::linux_like::linux::gnu::glob64_t"* %0 to i8*, !dbg !2644
  %2 = bitcast %"unix::linux_like::linux::gnu::glob64_t"* %self to i8*, !dbg !2644
  call void @llvm.memcpy.p0i8.p0i8.i64(i8* align 8 %1, i8* align 8 %2, i64 72, i1 false), !dbg !2644
  ret void, !dbg !2645
}

; <libc::unix::linux_like::linux::gnu::msghdr as core::clone::Clone>::clone
; Function Attrs: nonlazybind uwtable
define void @"_ZN81_$LT$libc..unix..linux_like..linux..gnu..msghdr$u20$as$u20$core..clone..Clone$GT$5clone17h17d2e7a43068c402E"(%"unix::linux_like::linux::gnu::msghdr"* sret(%"unix::linux_like::linux::gnu::msghdr") %0, %"unix::linux_like::linux::gnu::msghdr"* align 8 %self) unnamed_addr #0 !dbg !2646 {
start:
  %self.dbg.spill = alloca %"unix::linux_like::linux::gnu::msghdr"*, align 8
  store %"unix::linux_like::linux::gnu::msghdr"* %self, %"unix::linux_like::linux::gnu::msghdr"** %self.dbg.spill, align 8
  call void @llvm.dbg.declare(metadata %"unix::linux_like::linux::gnu::msghdr"** %self.dbg.spill, metadata !2652, metadata !DIExpression()), !dbg !2653
  %1 = bitcast %"unix::linux_like::linux::gnu::msghdr"* %0 to i8*, !dbg !2654
  %2 = bitcast %"unix::linux_like::linux::gnu::msghdr"* %self to i8*, !dbg !2654
  call void @llvm.memcpy.p0i8.p0i8.i64(i8* align 8 %1, i8* align 8 %2, i64 56, i1 false), !dbg !2654
  ret void, !dbg !2655
}

; <libc::unix::linux_like::linux::gnu::cmsghdr as core::clone::Clone>::clone
; Function Attrs: nonlazybind uwtable
define void @"_ZN82_$LT$libc..unix..linux_like..linux..gnu..cmsghdr$u20$as$u20$core..clone..Clone$GT$5clone17h54a9fe34738ef999E"(%"unix::linux_like::linux::gnu::cmsghdr"* sret(%"unix::linux_like::linux::gnu::cmsghdr") %0, %"unix::linux_like::linux::gnu::cmsghdr"* align 8 %self) unnamed_addr #0 !dbg !2656 {
start:
  %self.dbg.spill = alloca %"unix::linux_like::linux::gnu::cmsghdr"*, align 8
  store %"unix::linux_like::linux::gnu::cmsghdr"* %self, %"unix::linux_like::linux::gnu::cmsghdr"** %self.dbg.spill, align 8
  call void @llvm.dbg.declare(metadata %"unix::linux_like::linux::gnu::cmsghdr"** %self.dbg.spill, metadata !2667, metadata !DIExpression()), !dbg !2668
  %1 = bitcast %"unix::linux_like::linux::gnu::cmsghdr"* %0 to i8*, !dbg !2669
  %2 = bitcast %"unix::linux_like::linux::gnu::cmsghdr"* %self to i8*, !dbg !2669
  call void @llvm.memcpy.p0i8.p0i8.i64(i8* align 8 %1, i8* align 8 %2, i64 16, i1 false), !dbg !2669
  ret void, !dbg !2670
}

; <libc::unix::linux_like::linux::gnu::termios as core::clone::Clone>::clone
; Function Attrs: nonlazybind uwtable
define void @"_ZN82_$LT$libc..unix..linux_like..linux..gnu..termios$u20$as$u20$core..clone..Clone$GT$5clone17h577c15b8e10fa70cE"(%"unix::linux_like::linux::gnu::termios"* sret(%"unix::linux_like::linux::gnu::termios") %0, %"unix::linux_like::linux::gnu::termios"* align 4 %self) unnamed_addr #0 !dbg !2671 {
start:
  %self.dbg.spill = alloca %"unix::linux_like::linux::gnu::termios"*, align 8
  store %"unix::linux_like::linux::gnu::termios"* %self, %"unix::linux_like::linux::gnu::termios"** %self.dbg.spill, align 8
  call void @llvm.dbg.declare(metadata %"unix::linux_like::linux::gnu::termios"** %self.dbg.spill, metadata !2687, metadata !DIExpression()), !dbg !2688
  %1 = bitcast %"unix::linux_like::linux::gnu::termios"* %0 to i8*, !dbg !2689
  %2 = bitcast %"unix::linux_like::linux::gnu::termios"* %self to i8*, !dbg !2689
  call void @llvm.memcpy.p0i8.p0i8.i64(i8* align 4 %1, i8* align 4 %2, i64 60, i1 false), !dbg !2689
  ret void, !dbg !2690
}

; <libc::unix::linux_like::linux::gnu::mallinfo as core::clone::Clone>::clone
; Function Attrs: nonlazybind uwtable
define void @"_ZN83_$LT$libc..unix..linux_like..linux..gnu..mallinfo$u20$as$u20$core..clone..Clone$GT$5clone17h009e497bb59a037fE"(%"unix::linux_like::linux::gnu::mallinfo"* sret(%"unix::linux_like::linux::gnu::mallinfo") %0, %"unix::linux_like::linux::gnu::mallinfo"* align 4 %self) unnamed_addr #0 !dbg !2691 {
start:
  %self.dbg.spill = alloca %"unix::linux_like::linux::gnu::mallinfo"*, align 8
  store %"unix::linux_like::linux::gnu::mallinfo"* %self, %"unix::linux_like::linux::gnu::mallinfo"** %self.dbg.spill, align 8
  call void @llvm.dbg.declare(metadata %"unix::linux_like::linux::gnu::mallinfo"** %self.dbg.spill, metadata !2709, metadata !DIExpression()), !dbg !2710
  %1 = bitcast %"unix::linux_like::linux::gnu::mallinfo"* %0 to i8*, !dbg !2711
  %2 = bitcast %"unix::linux_like::linux::gnu::mallinfo"* %self to i8*, !dbg !2711
  call void @llvm.memcpy.p0i8.p0i8.i64(i8* align 4 %1, i8* align 4 %2, i64 40, i1 false), !dbg !2711
  ret void, !dbg !2712
}

; <libc::unix::linux_like::linux::gnu::mallinfo2 as core::clone::Clone>::clone
; Function Attrs: nonlazybind uwtable
define void @"_ZN84_$LT$libc..unix..linux_like..linux..gnu..mallinfo2$u20$as$u20$core..clone..Clone$GT$5clone17h791b2f9ecedcd577E"(%"unix::linux_like::linux::gnu::mallinfo2"* sret(%"unix::linux_like::linux::gnu::mallinfo2") %0, %"unix::linux_like::linux::gnu::mallinfo2"* align 8 %self) unnamed_addr #0 !dbg !2713 {
start:
  %self.dbg.spill = alloca %"unix::linux_like::linux::gnu::mallinfo2"*, align 8
  store %"unix::linux_like::linux::gnu::mallinfo2"* %self, %"unix::linux_like::linux::gnu::mallinfo2"** %self.dbg.spill, align 8
  call void @llvm.dbg.declare(metadata %"unix::linux_like::linux::gnu::mallinfo2"** %self.dbg.spill, metadata !2731, metadata !DIExpression()), !dbg !2732
  %1 = bitcast %"unix::linux_like::linux::gnu::mallinfo2"* %0 to i8*, !dbg !2733
  %2 = bitcast %"unix::linux_like::linux::gnu::mallinfo2"* %self to i8*, !dbg !2733
  call void @llvm.memcpy.p0i8.p0i8.i64(i8* align 8 %1, i8* align 8 %2, i64 80, i1 false), !dbg !2733
  ret void, !dbg !2734
}

; <libc::unix::linux_like::linux::gnu::nl_pktinfo as core::clone::Clone>::clone
; Function Attrs: nonlazybind uwtable
define i32 @"_ZN85_$LT$libc..unix..linux_like..linux..gnu..nl_pktinfo$u20$as$u20$core..clone..Clone$GT$5clone17h7e6537dc6bcf3424E"(%"unix::linux_like::linux::gnu::nl_pktinfo"* align 4 %self) unnamed_addr #0 !dbg !2735 {
start:
  %self.dbg.spill = alloca %"unix::linux_like::linux::gnu::nl_pktinfo"*, align 8
  %0 = alloca %"unix::linux_like::linux::gnu::nl_pktinfo", align 4
  store %"unix::linux_like::linux::gnu::nl_pktinfo"* %self, %"unix::linux_like::linux::gnu::nl_pktinfo"** %self.dbg.spill, align 8
  call void @llvm.dbg.declare(metadata %"unix::linux_like::linux::gnu::nl_pktinfo"** %self.dbg.spill, metadata !2744, metadata !DIExpression()), !dbg !2745
  %1 = bitcast %"unix::linux_like::linux::gnu::nl_pktinfo"* %0 to i8*, !dbg !2746
  %2 = bitcast %"unix::linux_like::linux::gnu::nl_pktinfo"* %self to i8*, !dbg !2746
  call void @llvm.memcpy.p0i8.p0i8.i64(i8* align 4 %1, i8* align 4 %2, i64 4, i1 false), !dbg !2746
  %3 = bitcast %"unix::linux_like::linux::gnu::nl_pktinfo"* %0 to i32*, !dbg !2747
  %4 = load i32, i32* %3, align 4, !dbg !2747
  ret i32 %4, !dbg !2747
}

; <libc::unix::linux_like::linux::gnu::nl_mmap_req as core::clone::Clone>::clone
; Function Attrs: nonlazybind uwtable
define void @"_ZN86_$LT$libc..unix..linux_like..linux..gnu..nl_mmap_req$u20$as$u20$core..clone..Clone$GT$5clone17h477d2bf6fec247dfE"(%"unix::linux_like::linux::gnu::nl_mmap_req"* sret(%"unix::linux_like::linux::gnu::nl_mmap_req") %0, %"unix::linux_like::linux::gnu::nl_mmap_req"* align 4 %self) unnamed_addr #0 !dbg !2748 {
start:
  %self.dbg.spill = alloca %"unix::linux_like::linux::gnu::nl_mmap_req"*, align 8
  store %"unix::linux_like::linux::gnu::nl_mmap_req"* %self, %"unix::linux_like::linux::gnu::nl_mmap_req"** %self.dbg.spill, align 8
  call void @llvm.dbg.declare(metadata %"unix::linux_like::linux::gnu::nl_mmap_req"** %self.dbg.spill, metadata !2760, metadata !DIExpression()), !dbg !2761
  %1 = bitcast %"unix::linux_like::linux::gnu::nl_mmap_req"* %0 to i8*, !dbg !2762
  %2 = bitcast %"unix::linux_like::linux::gnu::nl_mmap_req"* %self to i8*, !dbg !2762
  call void @llvm.memcpy.p0i8.p0i8.i64(i8* align 4 %1, i8* align 4 %2, i64 16, i1 false), !dbg !2762
  ret void, !dbg !2763
}

; <libc::unix::linux_like::linux::gnu::nl_mmap_hdr as core::clone::Clone>::clone
; Function Attrs: nonlazybind uwtable
define void @"_ZN86_$LT$libc..unix..linux_like..linux..gnu..nl_mmap_hdr$u20$as$u20$core..clone..Clone$GT$5clone17h835755e3478e9af0E"(%"unix::linux_like::linux::gnu::nl_mmap_hdr"* sret(%"unix::linux_like::linux::gnu::nl_mmap_hdr") %0, %"unix::linux_like::linux::gnu::nl_mmap_hdr"* align 4 %self) unnamed_addr #0 !dbg !2764 {
start:
  %self.dbg.spill = alloca %"unix::linux_like::linux::gnu::nl_mmap_hdr"*, align 8
  store %"unix::linux_like::linux::gnu::nl_mmap_hdr"* %self, %"unix::linux_like::linux::gnu::nl_mmap_hdr"** %self.dbg.spill, align 8
  call void @llvm.dbg.declare(metadata %"unix::linux_like::linux::gnu::nl_mmap_hdr"** %self.dbg.spill, metadata !2778, metadata !DIExpression()), !dbg !2779
  %1 = bitcast %"unix::linux_like::linux::gnu::nl_mmap_hdr"* %0 to i8*, !dbg !2780
  %2 = bitcast %"unix::linux_like::linux::gnu::nl_mmap_hdr"* %self to i8*, !dbg !2780
  call void @llvm.memcpy.p0i8.p0i8.i64(i8* align 4 %1, i8* align 4 %2, i64 24, i1 false), !dbg !2780
  ret void, !dbg !2781
}

; <libc::unix::linux_like::linux::gnu::rtentry as core::clone::Clone>::clone
; Function Attrs: nonlazybind uwtable
define void @"_ZN82_$LT$libc..unix..linux_like..linux..gnu..rtentry$u20$as$u20$core..clone..Clone$GT$5clone17h919f3d9bf793034aE"(%"unix::linux_like::linux::gnu::rtentry"* sret(%"unix::linux_like::linux::gnu::rtentry") %0, %"unix::linux_like::linux::gnu::rtentry"* align 8 %self) unnamed_addr #0 !dbg !2782 {
start:
  %self.dbg.spill = alloca %"unix::linux_like::linux::gnu::rtentry"*, align 8
  store %"unix::linux_like::linux::gnu::rtentry"* %self, %"unix::linux_like::linux::gnu::rtentry"** %self.dbg.spill, align 8
  call void @llvm.dbg.declare(metadata %"unix::linux_like::linux::gnu::rtentry"** %self.dbg.spill, metadata !2808, metadata !DIExpression()), !dbg !2809
  %1 = bitcast %"unix::linux_like::linux::gnu::rtentry"* %0 to i8*, !dbg !2810
  %2 = bitcast %"unix::linux_like::linux::gnu::rtentry"* %self to i8*, !dbg !2810
  call void @llvm.memcpy.p0i8.p0i8.i64(i8* align 8 %1, i8* align 8 %2, i64 120, i1 false), !dbg !2810
  ret void, !dbg !2811
}

; <libc::unix::linux_like::linux::gnu::timex as core::clone::Clone>::clone
; Function Attrs: nonlazybind uwtable
define void @"_ZN80_$LT$libc..unix..linux_like..linux..gnu..timex$u20$as$u20$core..clone..Clone$GT$5clone17h3b062f9eafb2fc76E"(%"unix::linux_like::linux::gnu::timex"* sret(%"unix::linux_like::linux::gnu::timex") %0, %"unix::linux_like::linux::gnu::timex"* align 8 %self) unnamed_addr #0 !dbg !2812 {
start:
  %self.dbg.spill = alloca %"unix::linux_like::linux::gnu::timex"*, align 8
  store %"unix::linux_like::linux::gnu::timex"* %self, %"unix::linux_like::linux::gnu::timex"** %self.dbg.spill, align 8
  call void @llvm.dbg.declare(metadata %"unix::linux_like::linux::gnu::timex"** %self.dbg.spill, metadata !2851, metadata !DIExpression()), !dbg !2852
  %1 = bitcast %"unix::linux_like::linux::gnu::timex"* %0 to i8*, !dbg !2853
  %2 = bitcast %"unix::linux_like::linux::gnu::timex"* %self to i8*, !dbg !2853
  call void @llvm.memcpy.p0i8.p0i8.i64(i8* align 8 %1, i8* align 8 %2, i64 208, i1 false), !dbg !2853
  ret void, !dbg !2854
}

; <libc::unix::linux_like::linux::gnu::ntptimeval as core::clone::Clone>::clone
; Function Attrs: nonlazybind uwtable
define void @"_ZN85_$LT$libc..unix..linux_like..linux..gnu..ntptimeval$u20$as$u20$core..clone..Clone$GT$5clone17he51f7bc5faaf33ceE"(%"unix::linux_like::linux::gnu::ntptimeval"* sret(%"unix::linux_like::linux::gnu::ntptimeval") %0, %"unix::linux_like::linux::gnu::ntptimeval"* align 8 %self) unnamed_addr #0 !dbg !2855 {
start:
  %self.dbg.spill = alloca %"unix::linux_like::linux::gnu::ntptimeval"*, align 8
  store %"unix::linux_like::linux::gnu::ntptimeval"* %self, %"unix::linux_like::linux::gnu::ntptimeval"** %self.dbg.spill, align 8
  call void @llvm.dbg.declare(metadata %"unix::linux_like::linux::gnu::ntptimeval"** %self.dbg.spill, metadata !2871, metadata !DIExpression()), !dbg !2872
  %1 = bitcast %"unix::linux_like::linux::gnu::ntptimeval"* %0 to i8*, !dbg !2873
  %2 = bitcast %"unix::linux_like::linux::gnu::ntptimeval"* %self to i8*, !dbg !2873
  call void @llvm.memcpy.p0i8.p0i8.i64(i8* align 8 %1, i8* align 8 %2, i64 72, i1 false), !dbg !2873
  ret void, !dbg !2874
}

; <libc::unix::linux_like::linux::gnu::regex_t as core::clone::Clone>::clone
; Function Attrs: nonlazybind uwtable
define void @"_ZN82_$LT$libc..unix..linux_like..linux..gnu..regex_t$u20$as$u20$core..clone..Clone$GT$5clone17h6a1ef947e084e949E"(%"unix::linux_like::linux::gnu::regex_t"* sret(%"unix::linux_like::linux::gnu::regex_t") %0, %"unix::linux_like::linux::gnu::regex_t"* align 8 %self) unnamed_addr #0 !dbg !2875 {
start:
  %self.dbg.spill = alloca %"unix::linux_like::linux::gnu::regex_t"*, align 8
  store %"unix::linux_like::linux::gnu::regex_t"* %self, %"unix::linux_like::linux::gnu::regex_t"** %self.dbg.spill, align 8
  call void @llvm.dbg.declare(metadata %"unix::linux_like::linux::gnu::regex_t"** %self.dbg.spill, metadata !2891, metadata !DIExpression()), !dbg !2892
  %1 = bitcast %"unix::linux_like::linux::gnu::regex_t"* %0 to i8*, !dbg !2893
  %2 = bitcast %"unix::linux_like::linux::gnu::regex_t"* %self to i8*, !dbg !2893
  call void @llvm.memcpy.p0i8.p0i8.i64(i8* align 8 %1, i8* align 8 %2, i64 64, i1 false), !dbg !2893
  ret void, !dbg !2894
}

; <libc::unix::linux_like::linux::gnu::Elf64_Chdr as core::clone::Clone>::clone
; Function Attrs: nonlazybind uwtable
define void @"_ZN85_$LT$libc..unix..linux_like..linux..gnu..Elf64_Chdr$u20$as$u20$core..clone..Clone$GT$5clone17h1a2ee4e87e80a3e2E"(%"unix::linux_like::linux::gnu::Elf64_Chdr"* sret(%"unix::linux_like::linux::gnu::Elf64_Chdr") %0, %"unix::linux_like::linux::gnu::Elf64_Chdr"* align 8 %self) unnamed_addr #0 !dbg !2895 {
start:
  %self.dbg.spill = alloca %"unix::linux_like::linux::gnu::Elf64_Chdr"*, align 8
  store %"unix::linux_like::linux::gnu::Elf64_Chdr"* %self, %"unix::linux_like::linux::gnu::Elf64_Chdr"** %self.dbg.spill, align 8
  call void @llvm.dbg.declare(metadata %"unix::linux_like::linux::gnu::Elf64_Chdr"** %self.dbg.spill, metadata !2907, metadata !DIExpression()), !dbg !2908
  %1 = bitcast %"unix::linux_like::linux::gnu::Elf64_Chdr"* %0 to i8*, !dbg !2909
  %2 = bitcast %"unix::linux_like::linux::gnu::Elf64_Chdr"* %self to i8*, !dbg !2909
  call void @llvm.memcpy.p0i8.p0i8.i64(i8* align 8 %1, i8* align 8 %2, i64 24, i1 false), !dbg !2909
  ret void, !dbg !2910
}

; <libc::unix::linux_like::linux::gnu::Elf32_Chdr as core::clone::Clone>::clone
; Function Attrs: nonlazybind uwtable
define void @"_ZN85_$LT$libc..unix..linux_like..linux..gnu..Elf32_Chdr$u20$as$u20$core..clone..Clone$GT$5clone17he6e5799978cfb41aE"(%"unix::linux_like::linux::gnu::Elf32_Chdr"* sret(%"unix::linux_like::linux::gnu::Elf32_Chdr") %0, %"unix::linux_like::linux::gnu::Elf32_Chdr"* align 4 %self) unnamed_addr #0 !dbg !2911 {
start:
  %self.dbg.spill = alloca %"unix::linux_like::linux::gnu::Elf32_Chdr"*, align 8
  store %"unix::linux_like::linux::gnu::Elf32_Chdr"* %self, %"unix::linux_like::linux::gnu::Elf32_Chdr"** %self.dbg.spill, align 8
  call void @llvm.dbg.declare(metadata %"unix::linux_like::linux::gnu::Elf32_Chdr"** %self.dbg.spill, metadata !2922, metadata !DIExpression()), !dbg !2923
  %1 = bitcast %"unix::linux_like::linux::gnu::Elf32_Chdr"* %0 to i8*, !dbg !2924
  %2 = bitcast %"unix::linux_like::linux::gnu::Elf32_Chdr"* %self to i8*, !dbg !2924
  call void @llvm.memcpy.p0i8.p0i8.i64(i8* align 4 %1, i8* align 4 %2, i64 12, i1 false), !dbg !2924
  ret void, !dbg !2925
}

; <libc::unix::linux_like::linux::gnu::seminfo as core::clone::Clone>::clone
; Function Attrs: nonlazybind uwtable
define void @"_ZN82_$LT$libc..unix..linux_like..linux..gnu..seminfo$u20$as$u20$core..clone..Clone$GT$5clone17h2c73f16bc6fb4f16E"(%"unix::linux_like::linux::gnu::seminfo"* sret(%"unix::linux_like::linux::gnu::seminfo") %0, %"unix::linux_like::linux::gnu::seminfo"* align 4 %self) unnamed_addr #0 !dbg !2926 {
start:
  %self.dbg.spill = alloca %"unix::linux_like::linux::gnu::seminfo"*, align 8
  store %"unix::linux_like::linux::gnu::seminfo"* %self, %"unix::linux_like::linux::gnu::seminfo"** %self.dbg.spill, align 8
  call void @llvm.dbg.declare(metadata %"unix::linux_like::linux::gnu::seminfo"** %self.dbg.spill, metadata !2944, metadata !DIExpression()), !dbg !2945
  %1 = bitcast %"unix::linux_like::linux::gnu::seminfo"* %0 to i8*, !dbg !2946
  %2 = bitcast %"unix::linux_like::linux::gnu::seminfo"* %self to i8*, !dbg !2946
  call void @llvm.memcpy.p0i8.p0i8.i64(i8* align 4 %1, i8* align 4 %2, i64 40, i1 false), !dbg !2946
  ret void, !dbg !2947
}

; <libc::unix::linux_like::linux::gnu::ptrace_peeksiginfo_args as core::clone::Clone>::clone
; Function Attrs: nonlazybind uwtable
define void @"_ZN98_$LT$libc..unix..linux_like..linux..gnu..ptrace_peeksiginfo_args$u20$as$u20$core..clone..Clone$GT$5clone17h93ec4d7059f8dec8E"(%"unix::linux_like::linux::gnu::ptrace_peeksiginfo_args"* sret(%"unix::linux_like::linux::gnu::ptrace_peeksiginfo_args") %0, %"unix::linux_like::linux::gnu::ptrace_peeksiginfo_args"* align 8 %self) unnamed_addr #0 !dbg !2948 {
start:
  %self.dbg.spill = alloca %"unix::linux_like::linux::gnu::ptrace_peeksiginfo_args"*, align 8
  store %"unix::linux_like::linux::gnu::ptrace_peeksiginfo_args"* %self, %"unix::linux_like::linux::gnu::ptrace_peeksiginfo_args"** %self.dbg.spill, align 8
  call void @llvm.dbg.declare(metadata %"unix::linux_like::linux::gnu::ptrace_peeksiginfo_args"** %self.dbg.spill, metadata !2959, metadata !DIExpression()), !dbg !2960
  %1 = bitcast %"unix::linux_like::linux::gnu::ptrace_peeksiginfo_args"* %0 to i8*, !dbg !2961
  %2 = bitcast %"unix::linux_like::linux::gnu::ptrace_peeksiginfo_args"* %self to i8*, !dbg !2961
  call void @llvm.memcpy.p0i8.p0i8.i64(i8* align 8 %1, i8* align 8 %2, i64 16, i1 false), !dbg !2961
  ret void, !dbg !2962
}

; <libc::unix::linux_like::linux::gnu::__c_anonymous_ptrace_syscall_info_entry as core::clone::Clone>::clone
; Function Attrs: nonlazybind uwtable
define void @"_ZN114_$LT$libc..unix..linux_like..linux..gnu..__c_anonymous_ptrace_syscall_info_entry$u20$as$u20$core..clone..Clone$GT$5clone17h1271a704e39191faE"(%"unix::linux_like::linux::gnu::__c_anonymous_ptrace_syscall_info_entry"* sret(%"unix::linux_like::linux::gnu::__c_anonymous_ptrace_syscall_info_entry") %0, %"unix::linux_like::linux::gnu::__c_anonymous_ptrace_syscall_info_entry"* align 8 %self) unnamed_addr #0 !dbg !2963 {
start:
  %self.dbg.spill = alloca %"unix::linux_like::linux::gnu::__c_anonymous_ptrace_syscall_info_entry"*, align 8
  store %"unix::linux_like::linux::gnu::__c_anonymous_ptrace_syscall_info_entry"* %self, %"unix::linux_like::linux::gnu::__c_anonymous_ptrace_syscall_info_entry"** %self.dbg.spill, align 8
  call void @llvm.dbg.declare(metadata %"unix::linux_like::linux::gnu::__c_anonymous_ptrace_syscall_info_entry"** %self.dbg.spill, metadata !2973, metadata !DIExpression()), !dbg !2974
  %1 = bitcast %"unix::linux_like::linux::gnu::__c_anonymous_ptrace_syscall_info_entry"* %0 to i8*, !dbg !2975
  %2 = bitcast %"unix::linux_like::linux::gnu::__c_anonymous_ptrace_syscall_info_entry"* %self to i8*, !dbg !2975
  call void @llvm.memcpy.p0i8.p0i8.i64(i8* align 8 %1, i8* align 8 %2, i64 56, i1 false), !dbg !2975
  ret void, !dbg !2976
}

; <libc::unix::linux_like::linux::gnu::__c_anonymous_ptrace_syscall_info_exit as core::clone::Clone>::clone
; Function Attrs: nonlazybind uwtable
define { i64, i8 } @"_ZN113_$LT$libc..unix..linux_like..linux..gnu..__c_anonymous_ptrace_syscall_info_exit$u20$as$u20$core..clone..Clone$GT$5clone17ha8142f9e49ebb75aE"({ i64, i8 }* align 8 %self) unnamed_addr #0 !dbg !2977 {
start:
  %self.dbg.spill = alloca { i64, i8 }*, align 8
  store { i64, i8 }* %self, { i64, i8 }** %self.dbg.spill, align 8
  call void @llvm.dbg.declare(metadata { i64, i8 }** %self.dbg.spill, metadata !2987, metadata !DIExpression()), !dbg !2988
  %0 = getelementptr inbounds { i64, i8 }, { i64, i8 }* %self, i32 0, i32 0, !dbg !2989
  %1 = load i64, i64* %0, align 8, !dbg !2989
  %2 = getelementptr inbounds { i64, i8 }, { i64, i8 }* %self, i32 0, i32 1, !dbg !2989
  %3 = load i8, i8* %2, align 8, !dbg !2989
  %4 = insertvalue { i64, i8 } undef, i64 %1, 0, !dbg !2990
  %5 = insertvalue { i64, i8 } %4, i8 %3, 1, !dbg !2990
  ret { i64, i8 } %5, !dbg !2990
}

; <libc::unix::linux_like::linux::gnu::__c_anonymous_ptrace_syscall_info_seccomp as core::clone::Clone>::clone
; Function Attrs: nonlazybind uwtable
define void @"_ZN116_$LT$libc..unix..linux_like..linux..gnu..__c_anonymous_ptrace_syscall_info_seccomp$u20$as$u20$core..clone..Clone$GT$5clone17h0ff397ddfd8a1b2dE"(%"unix::linux_like::linux::gnu::__c_anonymous_ptrace_syscall_info_seccomp"* sret(%"unix::linux_like::linux::gnu::__c_anonymous_ptrace_syscall_info_seccomp") %0, %"unix::linux_like::linux::gnu::__c_anonymous_ptrace_syscall_info_seccomp"* align 8 %self) unnamed_addr #0 !dbg !2991 {
start:
  %self.dbg.spill = alloca %"unix::linux_like::linux::gnu::__c_anonymous_ptrace_syscall_info_seccomp"*, align 8
  store %"unix::linux_like::linux::gnu::__c_anonymous_ptrace_syscall_info_seccomp"* %self, %"unix::linux_like::linux::gnu::__c_anonymous_ptrace_syscall_info_seccomp"** %self.dbg.spill, align 8
  call void @llvm.dbg.declare(metadata %"unix::linux_like::linux::gnu::__c_anonymous_ptrace_syscall_info_seccomp"** %self.dbg.spill, metadata !3002, metadata !DIExpression()), !dbg !3003
  %1 = bitcast %"unix::linux_like::linux::gnu::__c_anonymous_ptrace_syscall_info_seccomp"* %0 to i8*, !dbg !3004
  %2 = bitcast %"unix::linux_like::linux::gnu::__c_anonymous_ptrace_syscall_info_seccomp"* %self to i8*, !dbg !3004
  call void @llvm.memcpy.p0i8.p0i8.i64(i8* align 8 %1, i8* align 8 %2, i64 64, i1 false), !dbg !3004
  ret void, !dbg !3005
}

; <libc::unix::linux_like::linux::gnu::ptrace_syscall_info as core::clone::Clone>::clone
; Function Attrs: nonlazybind uwtable
define void @"_ZN94_$LT$libc..unix..linux_like..linux..gnu..ptrace_syscall_info$u20$as$u20$core..clone..Clone$GT$5clone17hdf0c20482c65b729E"(%"unix::linux_like::linux::gnu::ptrace_syscall_info"* sret(%"unix::linux_like::linux::gnu::ptrace_syscall_info") %0, %"unix::linux_like::linux::gnu::ptrace_syscall_info"* align 8 %self) unnamed_addr #0 !dbg !3006 {
start:
  %self.dbg.spill = alloca %"unix::linux_like::linux::gnu::ptrace_syscall_info"*, align 8
  store %"unix::linux_like::linux::gnu::ptrace_syscall_info"* %self, %"unix::linux_like::linux::gnu::ptrace_syscall_info"** %self.dbg.spill, align 8
  call void @llvm.dbg.declare(metadata %"unix::linux_like::linux::gnu::ptrace_syscall_info"** %self.dbg.spill, metadata !3026, metadata !DIExpression()), !dbg !3027
  %1 = bitcast %"unix::linux_like::linux::gnu::ptrace_syscall_info"* %0 to i8*, !dbg !3028
  %2 = bitcast %"unix::linux_like::linux::gnu::ptrace_syscall_info"* %self to i8*, !dbg !3028
  call void @llvm.memcpy.p0i8.p0i8.i64(i8* align 8 %1, i8* align 8 %2, i64 88, i1 false), !dbg !3028
  ret void, !dbg !3029
}

; <libc::unix::linux_like::linux::gnu::sockaddr_xdp as core::clone::Clone>::clone
; Function Attrs: nonlazybind uwtable
define void @"_ZN87_$LT$libc..unix..linux_like..linux..gnu..sockaddr_xdp$u20$as$u20$core..clone..Clone$GT$5clone17h36fef8b994279777E"(%"unix::linux_like::linux::gnu::sockaddr_xdp"* sret(%"unix::linux_like::linux::gnu::sockaddr_xdp") %0, %"unix::linux_like::linux::gnu::sockaddr_xdp"* align 4 %self) unnamed_addr #0 !dbg !3030 {
start:
  %self.dbg.spill = alloca %"unix::linux_like::linux::gnu::sockaddr_xdp"*, align 8
  store %"unix::linux_like::linux::gnu::sockaddr_xdp"* %self, %"unix::linux_like::linux::gnu::sockaddr_xdp"** %self.dbg.spill, align 8
  call void @llvm.dbg.declare(metadata %"unix::linux_like::linux::gnu::sockaddr_xdp"** %self.dbg.spill, metadata !3043, metadata !DIExpression()), !dbg !3044
  %1 = bitcast %"unix::linux_like::linux::gnu::sockaddr_xdp"* %0 to i8*, !dbg !3045
  %2 = bitcast %"unix::linux_like::linux::gnu::sockaddr_xdp"* %self to i8*, !dbg !3045
  call void @llvm.memcpy.p0i8.p0i8.i64(i8* align 4 %1, i8* align 4 %2, i64 16, i1 false), !dbg !3045
  ret void, !dbg !3046
}

; <libc::unix::linux_like::linux::gnu::xdp_ring_offset as core::clone::Clone>::clone
; Function Attrs: nonlazybind uwtable
define void @"_ZN90_$LT$libc..unix..linux_like..linux..gnu..xdp_ring_offset$u20$as$u20$core..clone..Clone$GT$5clone17h85e09623917ec378E"(%"unix::linux_like::linux::gnu::xdp_ring_offset"* sret(%"unix::linux_like::linux::gnu::xdp_ring_offset") %0, %"unix::linux_like::linux::gnu::xdp_ring_offset"* align 8 %self) unnamed_addr #0 !dbg !3047 {
start:
  %self.dbg.spill = alloca %"unix::linux_like::linux::gnu::xdp_ring_offset"*, align 8
  store %"unix::linux_like::linux::gnu::xdp_ring_offset"* %self, %"unix::linux_like::linux::gnu::xdp_ring_offset"** %self.dbg.spill, align 8
  call void @llvm.dbg.declare(metadata %"unix::linux_like::linux::gnu::xdp_ring_offset"** %self.dbg.spill, metadata !3059, metadata !DIExpression()), !dbg !3060
  %1 = bitcast %"unix::linux_like::linux::gnu::xdp_ring_offset"* %0 to i8*, !dbg !3061
  %2 = bitcast %"unix::linux_like::linux::gnu::xdp_ring_offset"* %self to i8*, !dbg !3061
  call void @llvm.memcpy.p0i8.p0i8.i64(i8* align 8 %1, i8* align 8 %2, i64 32, i1 false), !dbg !3061
  ret void, !dbg !3062
}

; <libc::unix::linux_like::linux::gnu::xdp_mmap_offsets as core::clone::Clone>::clone
; Function Attrs: nonlazybind uwtable
define void @"_ZN91_$LT$libc..unix..linux_like..linux..gnu..xdp_mmap_offsets$u20$as$u20$core..clone..Clone$GT$5clone17h4c9be0ea6ff1d093E"(%"unix::linux_like::linux::gnu::xdp_mmap_offsets"* sret(%"unix::linux_like::linux::gnu::xdp_mmap_offsets") %0, %"unix::linux_like::linux::gnu::xdp_mmap_offsets"* align 8 %self) unnamed_addr #0 !dbg !3063 {
start:
  %self.dbg.spill = alloca %"unix::linux_like::linux::gnu::xdp_mmap_offsets"*, align 8
  store %"unix::linux_like::linux::gnu::xdp_mmap_offsets"* %self, %"unix::linux_like::linux::gnu::xdp_mmap_offsets"** %self.dbg.spill, align 8
  call void @llvm.dbg.declare(metadata %"unix::linux_like::linux::gnu::xdp_mmap_offsets"** %self.dbg.spill, metadata !3075, metadata !DIExpression()), !dbg !3076
  %1 = bitcast %"unix::linux_like::linux::gnu::xdp_mmap_offsets"* %0 to i8*, !dbg !3077
  %2 = bitcast %"unix::linux_like::linux::gnu::xdp_mmap_offsets"* %self to i8*, !dbg !3077
  call void @llvm.memcpy.p0i8.p0i8.i64(i8* align 8 %1, i8* align 8 %2, i64 128, i1 false), !dbg !3077
  ret void, !dbg !3078
}

; <libc::unix::linux_like::linux::gnu::xdp_ring_offset_v1 as core::clone::Clone>::clone
; Function Attrs: nonlazybind uwtable
define void @"_ZN93_$LT$libc..unix..linux_like..linux..gnu..xdp_ring_offset_v1$u20$as$u20$core..clone..Clone$GT$5clone17h40cc4e7a5bcf904eE"(%"unix::linux_like::linux::gnu::xdp_ring_offset_v1"* sret(%"unix::linux_like::linux::gnu::xdp_ring_offset_v1") %0, %"unix::linux_like::linux::gnu::xdp_ring_offset_v1"* align 8 %self) unnamed_addr #0 !dbg !3079 {
start:
  %self.dbg.spill = alloca %"unix::linux_like::linux::gnu::xdp_ring_offset_v1"*, align 8
  store %"unix::linux_like::linux::gnu::xdp_ring_offset_v1"* %self, %"unix::linux_like::linux::gnu::xdp_ring_offset_v1"** %self.dbg.spill, align 8
  call void @llvm.dbg.declare(metadata %"unix::linux_like::linux::gnu::xdp_ring_offset_v1"** %self.dbg.spill, metadata !3090, metadata !DIExpression()), !dbg !3091
  %1 = bitcast %"unix::linux_like::linux::gnu::xdp_ring_offset_v1"* %0 to i8*, !dbg !3092
  %2 = bitcast %"unix::linux_like::linux::gnu::xdp_ring_offset_v1"* %self to i8*, !dbg !3092
  call void @llvm.memcpy.p0i8.p0i8.i64(i8* align 8 %1, i8* align 8 %2, i64 24, i1 false), !dbg !3092
  ret void, !dbg !3093
}

; <libc::unix::linux_like::linux::gnu::xdp_mmap_offsets_v1 as core::clone::Clone>::clone
; Function Attrs: nonlazybind uwtable
define void @"_ZN94_$LT$libc..unix..linux_like..linux..gnu..xdp_mmap_offsets_v1$u20$as$u20$core..clone..Clone$GT$5clone17h82028a12ecb64712E"(%"unix::linux_like::linux::gnu::xdp_mmap_offsets_v1"* sret(%"unix::linux_like::linux::gnu::xdp_mmap_offsets_v1") %0, %"unix::linux_like::linux::gnu::xdp_mmap_offsets_v1"* align 8 %self) unnamed_addr #0 !dbg !3094 {
start:
  %self.dbg.spill = alloca %"unix::linux_like::linux::gnu::xdp_mmap_offsets_v1"*, align 8
  store %"unix::linux_like::linux::gnu::xdp_mmap_offsets_v1"* %self, %"unix::linux_like::linux::gnu::xdp_mmap_offsets_v1"** %self.dbg.spill, align 8
  call void @llvm.dbg.declare(metadata %"unix::linux_like::linux::gnu::xdp_mmap_offsets_v1"** %self.dbg.spill, metadata !3106, metadata !DIExpression()), !dbg !3107
  %1 = bitcast %"unix::linux_like::linux::gnu::xdp_mmap_offsets_v1"* %0 to i8*, !dbg !3108
  %2 = bitcast %"unix::linux_like::linux::gnu::xdp_mmap_offsets_v1"* %self to i8*, !dbg !3108
  call void @llvm.memcpy.p0i8.p0i8.i64(i8* align 8 %1, i8* align 8 %2, i64 96, i1 false), !dbg !3108
  ret void, !dbg !3109
}

; <libc::unix::linux_like::linux::gnu::xdp_umem_reg as core::clone::Clone>::clone
; Function Attrs: nonlazybind uwtable
define void @"_ZN87_$LT$libc..unix..linux_like..linux..gnu..xdp_umem_reg$u20$as$u20$core..clone..Clone$GT$5clone17h0f567fd1532e296dE"(%"unix::linux_like::linux::gnu::xdp_umem_reg"* sret(%"unix::linux_like::linux::gnu::xdp_umem_reg") %0, %"unix::linux_like::linux::gnu::xdp_umem_reg"* align 8 %self) unnamed_addr #0 !dbg !3110 {
start:
  %self.dbg.spill = alloca %"unix::linux_like::linux::gnu::xdp_umem_reg"*, align 8
  store %"unix::linux_like::linux::gnu::xdp_umem_reg"* %self, %"unix::linux_like::linux::gnu::xdp_umem_reg"** %self.dbg.spill, align 8
  call void @llvm.dbg.declare(metadata %"unix::linux_like::linux::gnu::xdp_umem_reg"** %self.dbg.spill, metadata !3123, metadata !DIExpression()), !dbg !3124
  %1 = bitcast %"unix::linux_like::linux::gnu::xdp_umem_reg"* %0 to i8*, !dbg !3125
  %2 = bitcast %"unix::linux_like::linux::gnu::xdp_umem_reg"* %self to i8*, !dbg !3125
  call void @llvm.memcpy.p0i8.p0i8.i64(i8* align 8 %1, i8* align 8 %2, i64 32, i1 false), !dbg !3125
  ret void, !dbg !3126
}

; <libc::unix::linux_like::linux::gnu::xdp_umem_reg_v1 as core::clone::Clone>::clone
; Function Attrs: nonlazybind uwtable
define void @"_ZN90_$LT$libc..unix..linux_like..linux..gnu..xdp_umem_reg_v1$u20$as$u20$core..clone..Clone$GT$5clone17h7123f7410c4d5437E"(%"unix::linux_like::linux::gnu::xdp_umem_reg_v1"* sret(%"unix::linux_like::linux::gnu::xdp_umem_reg_v1") %0, %"unix::linux_like::linux::gnu::xdp_umem_reg_v1"* align 8 %self) unnamed_addr #0 !dbg !3127 {
start:
  %self.dbg.spill = alloca %"unix::linux_like::linux::gnu::xdp_umem_reg_v1"*, align 8
  store %"unix::linux_like::linux::gnu::xdp_umem_reg_v1"* %self, %"unix::linux_like::linux::gnu::xdp_umem_reg_v1"** %self.dbg.spill, align 8
  call void @llvm.dbg.declare(metadata %"unix::linux_like::linux::gnu::xdp_umem_reg_v1"** %self.dbg.spill, metadata !3139, metadata !DIExpression()), !dbg !3140
  %1 = bitcast %"unix::linux_like::linux::gnu::xdp_umem_reg_v1"* %0 to i8*, !dbg !3141
  %2 = bitcast %"unix::linux_like::linux::gnu::xdp_umem_reg_v1"* %self to i8*, !dbg !3141
  call void @llvm.memcpy.p0i8.p0i8.i64(i8* align 8 %1, i8* align 8 %2, i64 24, i1 false), !dbg !3141
  ret void, !dbg !3142
}

; <libc::unix::linux_like::linux::gnu::xdp_statistics as core::clone::Clone>::clone
; Function Attrs: nonlazybind uwtable
define void @"_ZN89_$LT$libc..unix..linux_like..linux..gnu..xdp_statistics$u20$as$u20$core..clone..Clone$GT$5clone17hed6cda3332c0499dE"(%"unix::linux_like::linux::gnu::xdp_statistics"* sret(%"unix::linux_like::linux::gnu::xdp_statistics") %0, %"unix::linux_like::linux::gnu::xdp_statistics"* align 8 %self) unnamed_addr #0 !dbg !3143 {
start:
  %self.dbg.spill = alloca %"unix::linux_like::linux::gnu::xdp_statistics"*, align 8
  store %"unix::linux_like::linux::gnu::xdp_statistics"* %self, %"unix::linux_like::linux::gnu::xdp_statistics"** %self.dbg.spill, align 8
  call void @llvm.dbg.declare(metadata %"unix::linux_like::linux::gnu::xdp_statistics"** %self.dbg.spill, metadata !3157, metadata !DIExpression()), !dbg !3158
  %1 = bitcast %"unix::linux_like::linux::gnu::xdp_statistics"* %0 to i8*, !dbg !3159
  %2 = bitcast %"unix::linux_like::linux::gnu::xdp_statistics"* %self to i8*, !dbg !3159
  call void @llvm.memcpy.p0i8.p0i8.i64(i8* align 8 %1, i8* align 8 %2, i64 48, i1 false), !dbg !3159
  ret void, !dbg !3160
}

; <libc::unix::linux_like::linux::gnu::xdp_statistics_v1 as core::clone::Clone>::clone
; Function Attrs: nonlazybind uwtable
define void @"_ZN92_$LT$libc..unix..linux_like..linux..gnu..xdp_statistics_v1$u20$as$u20$core..clone..Clone$GT$5clone17hf2ea31e2f9174b21E"(%"unix::linux_like::linux::gnu::xdp_statistics_v1"* sret(%"unix::linux_like::linux::gnu::xdp_statistics_v1") %0, %"unix::linux_like::linux::gnu::xdp_statistics_v1"* align 8 %self) unnamed_addr #0 !dbg !3161 {
start:
  %self.dbg.spill = alloca %"unix::linux_like::linux::gnu::xdp_statistics_v1"*, align 8
  store %"unix::linux_like::linux::gnu::xdp_statistics_v1"* %self, %"unix::linux_like::linux::gnu::xdp_statistics_v1"** %self.dbg.spill, align 8
  call void @llvm.dbg.declare(metadata %"unix::linux_like::linux::gnu::xdp_statistics_v1"** %self.dbg.spill, metadata !3172, metadata !DIExpression()), !dbg !3173
  %1 = bitcast %"unix::linux_like::linux::gnu::xdp_statistics_v1"* %0 to i8*, !dbg !3174
  %2 = bitcast %"unix::linux_like::linux::gnu::xdp_statistics_v1"* %self to i8*, !dbg !3174
  call void @llvm.memcpy.p0i8.p0i8.i64(i8* align 8 %1, i8* align 8 %2, i64 24, i1 false), !dbg !3174
  ret void, !dbg !3175
}

; <libc::unix::linux_like::linux::gnu::xdp_options as core::clone::Clone>::clone
; Function Attrs: nonlazybind uwtable
define i32 @"_ZN86_$LT$libc..unix..linux_like..linux..gnu..xdp_options$u20$as$u20$core..clone..Clone$GT$5clone17h3f7fdce814d6f449E"(%"unix::linux_like::linux::gnu::xdp_options"* align 4 %self) unnamed_addr #0 !dbg !3176 {
start:
  %self.dbg.spill = alloca %"unix::linux_like::linux::gnu::xdp_options"*, align 8
  %0 = alloca %"unix::linux_like::linux::gnu::xdp_options", align 4
  store %"unix::linux_like::linux::gnu::xdp_options"* %self, %"unix::linux_like::linux::gnu::xdp_options"** %self.dbg.spill, align 8
  call void @llvm.dbg.declare(metadata %"unix::linux_like::linux::gnu::xdp_options"** %self.dbg.spill, metadata !3185, metadata !DIExpression()), !dbg !3186
  %1 = bitcast %"unix::linux_like::linux::gnu::xdp_options"* %0 to i8*, !dbg !3187
  %2 = bitcast %"unix::linux_like::linux::gnu::xdp_options"* %self to i8*, !dbg !3187
  call void @llvm.memcpy.p0i8.p0i8.i64(i8* align 4 %1, i8* align 4 %2, i64 4, i1 false), !dbg !3187
  %3 = bitcast %"unix::linux_like::linux::gnu::xdp_options"* %0 to i32*, !dbg !3188
  %4 = load i32, i32* %3, align 4, !dbg !3188
  ret i32 %4, !dbg !3188
}

; <libc::unix::linux_like::linux::gnu::xdp_desc as core::clone::Clone>::clone
; Function Attrs: nonlazybind uwtable
define void @"_ZN83_$LT$libc..unix..linux_like..linux..gnu..xdp_desc$u20$as$u20$core..clone..Clone$GT$5clone17haff0655d78ee6c69E"(%"unix::linux_like::linux::gnu::xdp_desc"* sret(%"unix::linux_like::linux::gnu::xdp_desc") %0, %"unix::linux_like::linux::gnu::xdp_desc"* align 8 %self) unnamed_addr #0 !dbg !3189 {
start:
  %self.dbg.spill = alloca %"unix::linux_like::linux::gnu::xdp_desc"*, align 8
  store %"unix::linux_like::linux::gnu::xdp_desc"* %self, %"unix::linux_like::linux::gnu::xdp_desc"** %self.dbg.spill, align 8
  call void @llvm.dbg.declare(metadata %"unix::linux_like::linux::gnu::xdp_desc"** %self.dbg.spill, metadata !3200, metadata !DIExpression()), !dbg !3201
  %1 = bitcast %"unix::linux_like::linux::gnu::xdp_desc"* %0 to i8*, !dbg !3202
  %2 = bitcast %"unix::linux_like::linux::gnu::xdp_desc"* %self to i8*, !dbg !3202
  call void @llvm.memcpy.p0i8.p0i8.i64(i8* align 8 %1, i8* align 8 %2, i64 16, i1 false), !dbg !3202
  ret void, !dbg !3203
}

; <libc::unix::linux_like::linux::gnu::iocb as core::clone::Clone>::clone
; Function Attrs: nonlazybind uwtable
define void @"_ZN79_$LT$libc..unix..linux_like..linux..gnu..iocb$u20$as$u20$core..clone..Clone$GT$5clone17h561832093f52b88eE"(%"unix::linux_like::linux::gnu::iocb"* sret(%"unix::linux_like::linux::gnu::iocb") %0, %"unix::linux_like::linux::gnu::iocb"* align 8 %self) unnamed_addr #0 !dbg !3204 {
start:
  %self.dbg.spill = alloca %"unix::linux_like::linux::gnu::iocb"*, align 8
  store %"unix::linux_like::linux::gnu::iocb"* %self, %"unix::linux_like::linux::gnu::iocb"** %self.dbg.spill, align 8
  call void @llvm.dbg.declare(metadata %"unix::linux_like::linux::gnu::iocb"** %self.dbg.spill, metadata !3224, metadata !DIExpression()), !dbg !3225
  %1 = bitcast %"unix::linux_like::linux::gnu::iocb"* %0 to i8*, !dbg !3226
  %2 = bitcast %"unix::linux_like::linux::gnu::iocb"* %self to i8*, !dbg !3226
  call void @llvm.memcpy.p0i8.p0i8.i64(i8* align 8 %1, i8* align 8 %2, i64 64, i1 false), !dbg !3226
  ret void, !dbg !3227
}

; <libc::unix::linux_like::linux::gnu::sifields_sigchld as core::clone::Clone>::clone
; Function Attrs: nonlazybind uwtable
define void @"_ZN91_$LT$libc..unix..linux_like..linux..gnu..sifields_sigchld$u20$as$u20$core..clone..Clone$GT$5clone17hab56629073122e97E"(%"unix::linux_like::linux::gnu::sifields_sigchld"* sret(%"unix::linux_like::linux::gnu::sifields_sigchld") %0, %"unix::linux_like::linux::gnu::sifields_sigchld"* align 8 %self) unnamed_addr #0 !dbg !3228 {
start:
  %self.dbg.spill = alloca %"unix::linux_like::linux::gnu::sifields_sigchld"*, align 8
  store %"unix::linux_like::linux::gnu::sifields_sigchld"* %self, %"unix::linux_like::linux::gnu::sifields_sigchld"** %self.dbg.spill, align 8
  call void @llvm.dbg.declare(metadata %"unix::linux_like::linux::gnu::sifields_sigchld"** %self.dbg.spill, metadata !3241, metadata !DIExpression()), !dbg !3242
  %1 = bitcast %"unix::linux_like::linux::gnu::sifields_sigchld"* %0 to i8*, !dbg !3243
  %2 = bitcast %"unix::linux_like::linux::gnu::sifields_sigchld"* %self to i8*, !dbg !3243
  call void @llvm.memcpy.p0i8.p0i8.i64(i8* align 8 %1, i8* align 8 %2, i64 32, i1 false), !dbg !3243
  ret void, !dbg !3244
}

; libc::unix::linux_like::linux::gnu::<impl libc::unix::linux_like::linux::gnu::b64::x86_64::siginfo_t>::sifields
; Function Attrs: nonlazybind uwtable
define internal align 8 %"unix::linux_like::linux::gnu::sifields"* @"_ZN4libc4unix10linux_like5linux3gnu76_$LT$impl$u20$libc..unix..linux_like..linux..gnu..b64..x86_64..siginfo_t$GT$8sifields17h55421faf3b6cd57bE"(%"unix::linux_like::linux::gnu::b64::x86_64::siginfo_t"* align 8 %self) unnamed_addr #0 !dbg !3245 {
start:
  %self.dbg.spill = alloca %"unix::linux_like::linux::gnu::b64::x86_64::siginfo_t"*, align 8
  store %"unix::linux_like::linux::gnu::b64::x86_64::siginfo_t"* %self, %"unix::linux_like::linux::gnu::b64::x86_64::siginfo_t"** %self.dbg.spill, align 8
  call void @llvm.dbg.declare(metadata %"unix::linux_like::linux::gnu::b64::x86_64::siginfo_t"** %self.dbg.spill, metadata !3254, metadata !DIExpression()), !dbg !3255
  %_2 = bitcast %"unix::linux_like::linux::gnu::b64::x86_64::siginfo_t"* %self to %"unix::linux_like::linux::gnu::siginfo_f"*, !dbg !3256, !rawptr !2501, !ydy.unsafe !31
  %0 = getelementptr inbounds %"unix::linux_like::linux::gnu::siginfo_f", %"unix::linux_like::linux::gnu::siginfo_f"* %_2, i32 0, i32 2, !dbg !3257, !ydy.unsafe !31
  ret %"unix::linux_like::linux::gnu::sifields"* %0, !dbg !3258, !ydy.unsafe !31
}

; libc::unix::linux_like::linux::gnu::<impl libc::unix::linux_like::linux::gnu::b64::x86_64::siginfo_t>::si_pid
; Function Attrs: nonlazybind uwtable
define i32 @"_ZN4libc4unix10linux_like5linux3gnu76_$LT$impl$u20$libc..unix..linux_like..linux..gnu..b64..x86_64..siginfo_t$GT$6si_pid17h4d0b306b2b22e3eaE"(%"unix::linux_like::linux::gnu::b64::x86_64::siginfo_t"* align 8 %self) unnamed_addr #0 !dbg !3259 {
start:
  %self.dbg.spill = alloca %"unix::linux_like::linux::gnu::b64::x86_64::siginfo_t"*, align 8
  store %"unix::linux_like::linux::gnu::b64::x86_64::siginfo_t"* %self, %"unix::linux_like::linux::gnu::b64::x86_64::siginfo_t"** %self.dbg.spill, align 8
  call void @llvm.dbg.declare(metadata %"unix::linux_like::linux::gnu::b64::x86_64::siginfo_t"** %self.dbg.spill, metadata !3263, metadata !DIExpression()), !dbg !3264
; call libc::unix::linux_like::linux::gnu::<impl libc::unix::linux_like::linux::gnu::b64::x86_64::siginfo_t>::sifields
  %_2 = call align 8 %"unix::linux_like::linux::gnu::sifields"* @"_ZN4libc4unix10linux_like5linux3gnu76_$LT$impl$u20$libc..unix..linux_like..linux..gnu..b64..x86_64..siginfo_t$GT$8sifields17h55421faf3b6cd57bE"(%"unix::linux_like::linux::gnu::b64::x86_64::siginfo_t"* align 8 %self), !dbg !3265, !ydy.unsafe !31
  br label %bb1, !dbg !3265, !ydy.unsafe !31

bb1:                                              ; preds = %start
  %0 = bitcast %"unix::linux_like::linux::gnu::sifields"* %_2 to %"unix::linux_like::linux::gnu::sifields_sigchld"*, !dbg !3265, !ydy.unsafe !31
  %1 = bitcast %"unix::linux_like::linux::gnu::sifields_sigchld"* %0 to i32*, !dbg !3265, !ydy.unsafe !31
  %2 = load i32, i32* %1, align 8, !dbg !3265, !ydy.unsafe !31
  ret i32 %2, !dbg !3266, !ydy.unsafe !31
}

; libc::unix::linux_like::linux::gnu::<impl libc::unix::linux_like::linux::gnu::b64::x86_64::siginfo_t>::si_uid
; Function Attrs: nonlazybind uwtable
define i32 @"_ZN4libc4unix10linux_like5linux3gnu76_$LT$impl$u20$libc..unix..linux_like..linux..gnu..b64..x86_64..siginfo_t$GT$6si_uid17h54968cc09950b022E"(%"unix::linux_like::linux::gnu::b64::x86_64::siginfo_t"* align 8 %self) unnamed_addr #0 !dbg !3267 {
start:
  %self.dbg.spill = alloca %"unix::linux_like::linux::gnu::b64::x86_64::siginfo_t"*, align 8
  store %"unix::linux_like::linux::gnu::b64::x86_64::siginfo_t"* %self, %"unix::linux_like::linux::gnu::b64::x86_64::siginfo_t"** %self.dbg.spill, align 8
  call void @llvm.dbg.declare(metadata %"unix::linux_like::linux::gnu::b64::x86_64::siginfo_t"** %self.dbg.spill, metadata !3271, metadata !DIExpression()), !dbg !3272
; call libc::unix::linux_like::linux::gnu::<impl libc::unix::linux_like::linux::gnu::b64::x86_64::siginfo_t>::sifields
  %_2 = call align 8 %"unix::linux_like::linux::gnu::sifields"* @"_ZN4libc4unix10linux_like5linux3gnu76_$LT$impl$u20$libc..unix..linux_like..linux..gnu..b64..x86_64..siginfo_t$GT$8sifields17h55421faf3b6cd57bE"(%"unix::linux_like::linux::gnu::b64::x86_64::siginfo_t"* align 8 %self), !dbg !3273, !ydy.unsafe !31
  br label %bb1, !dbg !3273, !ydy.unsafe !31

bb1:                                              ; preds = %start
  %0 = bitcast %"unix::linux_like::linux::gnu::sifields"* %_2 to %"unix::linux_like::linux::gnu::sifields_sigchld"*, !dbg !3273, !ydy.unsafe !31
  %1 = getelementptr inbounds %"unix::linux_like::linux::gnu::sifields_sigchld", %"unix::linux_like::linux::gnu::sifields_sigchld"* %0, i32 0, i32 1, !dbg !3273, !ydy.unsafe !31
  %2 = load i32, i32* %1, align 4, !dbg !3273, !ydy.unsafe !31
  ret i32 %2, !dbg !3274, !ydy.unsafe !31
}

; libc::unix::linux_like::linux::gnu::<impl libc::unix::linux_like::linux::gnu::b64::x86_64::siginfo_t>::si_status
; Function Attrs: nonlazybind uwtable
define i32 @"_ZN4libc4unix10linux_like5linux3gnu76_$LT$impl$u20$libc..unix..linux_like..linux..gnu..b64..x86_64..siginfo_t$GT$9si_status17hc3ac81ff43a87d07E"(%"unix::linux_like::linux::gnu::b64::x86_64::siginfo_t"* align 8 %self) unnamed_addr #0 !dbg !3275 {
start:
  %self.dbg.spill = alloca %"unix::linux_like::linux::gnu::b64::x86_64::siginfo_t"*, align 8
  store %"unix::linux_like::linux::gnu::b64::x86_64::siginfo_t"* %self, %"unix::linux_like::linux::gnu::b64::x86_64::siginfo_t"** %self.dbg.spill, align 8
  call void @llvm.dbg.declare(metadata %"unix::linux_like::linux::gnu::b64::x86_64::siginfo_t"** %self.dbg.spill, metadata !3277, metadata !DIExpression()), !dbg !3278
; call libc::unix::linux_like::linux::gnu::<impl libc::unix::linux_like::linux::gnu::b64::x86_64::siginfo_t>::sifields
  %_2 = call align 8 %"unix::linux_like::linux::gnu::sifields"* @"_ZN4libc4unix10linux_like5linux3gnu76_$LT$impl$u20$libc..unix..linux_like..linux..gnu..b64..x86_64..siginfo_t$GT$8sifields17h55421faf3b6cd57bE"(%"unix::linux_like::linux::gnu::b64::x86_64::siginfo_t"* align 8 %self), !dbg !3279, !ydy.unsafe !31
  br label %bb1, !dbg !3279, !ydy.unsafe !31

bb1:                                              ; preds = %start
  %0 = bitcast %"unix::linux_like::linux::gnu::sifields"* %_2 to %"unix::linux_like::linux::gnu::sifields_sigchld"*, !dbg !3279, !ydy.unsafe !31
  %1 = getelementptr inbounds %"unix::linux_like::linux::gnu::sifields_sigchld", %"unix::linux_like::linux::gnu::sifields_sigchld"* %0, i32 0, i32 2, !dbg !3279, !ydy.unsafe !31
  %2 = load i32, i32* %1, align 8, !dbg !3279, !ydy.unsafe !31
  ret i32 %2, !dbg !3280, !ydy.unsafe !31
}

; libc::unix::linux_like::linux::gnu::<impl libc::unix::linux_like::linux::gnu::b64::x86_64::siginfo_t>::si_utime
; Function Attrs: nonlazybind uwtable
define i64 @"_ZN4libc4unix10linux_like5linux3gnu76_$LT$impl$u20$libc..unix..linux_like..linux..gnu..b64..x86_64..siginfo_t$GT$8si_utime17h8d3fe2fdc9959b0cE"(%"unix::linux_like::linux::gnu::b64::x86_64::siginfo_t"* align 8 %self) unnamed_addr #0 !dbg !3281 {
start:
  %self.dbg.spill = alloca %"unix::linux_like::linux::gnu::b64::x86_64::siginfo_t"*, align 8
  store %"unix::linux_like::linux::gnu::b64::x86_64::siginfo_t"* %self, %"unix::linux_like::linux::gnu::b64::x86_64::siginfo_t"** %self.dbg.spill, align 8
  call void @llvm.dbg.declare(metadata %"unix::linux_like::linux::gnu::b64::x86_64::siginfo_t"** %self.dbg.spill, metadata !3285, metadata !DIExpression()), !dbg !3286
; call libc::unix::linux_like::linux::gnu::<impl libc::unix::linux_like::linux::gnu::b64::x86_64::siginfo_t>::sifields
  %_2 = call align 8 %"unix::linux_like::linux::gnu::sifields"* @"_ZN4libc4unix10linux_like5linux3gnu76_$LT$impl$u20$libc..unix..linux_like..linux..gnu..b64..x86_64..siginfo_t$GT$8sifields17h55421faf3b6cd57bE"(%"unix::linux_like::linux::gnu::b64::x86_64::siginfo_t"* align 8 %self), !dbg !3287, !ydy.unsafe !31
  br label %bb1, !dbg !3287, !ydy.unsafe !31

bb1:                                              ; preds = %start
  %0 = bitcast %"unix::linux_like::linux::gnu::sifields"* %_2 to %"unix::linux_like::linux::gnu::sifields_sigchld"*, !dbg !3287, !ydy.unsafe !31
  %1 = getelementptr inbounds %"unix::linux_like::linux::gnu::sifields_sigchld", %"unix::linux_like::linux::gnu::sifields_sigchld"* %0, i32 0, i32 4, !dbg !3287, !ydy.unsafe !31
  %2 = load i64, i64* %1, align 8, !dbg !3287, !ydy.unsafe !31
  ret i64 %2, !dbg !3288, !ydy.unsafe !31
}

; libc::unix::linux_like::linux::gnu::<impl libc::unix::linux_like::linux::gnu::b64::x86_64::siginfo_t>::si_stime
; Function Attrs: nonlazybind uwtable
define i64 @"_ZN4libc4unix10linux_like5linux3gnu76_$LT$impl$u20$libc..unix..linux_like..linux..gnu..b64..x86_64..siginfo_t$GT$8si_stime17hde36db80df80338fE"(%"unix::linux_like::linux::gnu::b64::x86_64::siginfo_t"* align 8 %self) unnamed_addr #0 !dbg !3289 {
start:
  %self.dbg.spill = alloca %"unix::linux_like::linux::gnu::b64::x86_64::siginfo_t"*, align 8
  store %"unix::linux_like::linux::gnu::b64::x86_64::siginfo_t"* %self, %"unix::linux_like::linux::gnu::b64::x86_64::siginfo_t"** %self.dbg.spill, align 8
  call void @llvm.dbg.declare(metadata %"unix::linux_like::linux::gnu::b64::x86_64::siginfo_t"** %self.dbg.spill, metadata !3291, metadata !DIExpression()), !dbg !3292
; call libc::unix::linux_like::linux::gnu::<impl libc::unix::linux_like::linux::gnu::b64::x86_64::siginfo_t>::sifields
  %_2 = call align 8 %"unix::linux_like::linux::gnu::sifields"* @"_ZN4libc4unix10linux_like5linux3gnu76_$LT$impl$u20$libc..unix..linux_like..linux..gnu..b64..x86_64..siginfo_t$GT$8sifields17h55421faf3b6cd57bE"(%"unix::linux_like::linux::gnu::b64::x86_64::siginfo_t"* align 8 %self), !dbg !3293, !ydy.unsafe !31
  br label %bb1, !dbg !3293, !ydy.unsafe !31

bb1:                                              ; preds = %start
  %0 = bitcast %"unix::linux_like::linux::gnu::sifields"* %_2 to %"unix::linux_like::linux::gnu::sifields_sigchld"*, !dbg !3293, !ydy.unsafe !31
  %1 = getelementptr inbounds %"unix::linux_like::linux::gnu::sifields_sigchld", %"unix::linux_like::linux::gnu::sifields_sigchld"* %0, i32 0, i32 5, !dbg !3293, !ydy.unsafe !31
  %2 = load i64, i64* %1, align 8, !dbg !3293, !ydy.unsafe !31
  ret i64 %2, !dbg !3294, !ydy.unsafe !31
}

; <libc::unix::linux_like::linux::gnu::__c_anonymous_ptrace_syscall_info_data as core::clone::Clone>::clone
; Function Attrs: nonlazybind uwtable
define void @"_ZN113_$LT$libc..unix..linux_like..linux..gnu..__c_anonymous_ptrace_syscall_info_data$u20$as$u20$core..clone..Clone$GT$5clone17ha097640aa8bf9d12E"(%"unix::linux_like::linux::gnu::__c_anonymous_ptrace_syscall_info_data"* sret(%"unix::linux_like::linux::gnu::__c_anonymous_ptrace_syscall_info_data") %0, %"unix::linux_like::linux::gnu::__c_anonymous_ptrace_syscall_info_data"* align 8 %self) unnamed_addr #0 !dbg !3295 {
start:
  %self.dbg.spill = alloca %"unix::linux_like::linux::gnu::__c_anonymous_ptrace_syscall_info_data"*, align 8
  store %"unix::linux_like::linux::gnu::__c_anonymous_ptrace_syscall_info_data"* %self, %"unix::linux_like::linux::gnu::__c_anonymous_ptrace_syscall_info_data"** %self.dbg.spill, align 8
  call void @llvm.dbg.declare(metadata %"unix::linux_like::linux::gnu::__c_anonymous_ptrace_syscall_info_data"** %self.dbg.spill, metadata !3301, metadata !DIExpression()), !dbg !3302
  %1 = bitcast %"unix::linux_like::linux::gnu::__c_anonymous_ptrace_syscall_info_data"* %0 to i8*, !dbg !3303
  %2 = bitcast %"unix::linux_like::linux::gnu::__c_anonymous_ptrace_syscall_info_data"* %self to i8*, !dbg !3303
  call void @llvm.memcpy.p0i8.p0i8.i64(i8* align 8 %1, i8* align 8 %2, i64 64, i1 false), !dbg !3303
  ret void, !dbg !3304
}

; <libc::unix::linux_like::linux::gnu::utmpx as core::clone::Clone>::clone
; Function Attrs: nonlazybind uwtable
define void @"_ZN80_$LT$libc..unix..linux_like..linux..gnu..utmpx$u20$as$u20$core..clone..Clone$GT$5clone17hbf9d79058386feffE"(%"unix::linux_like::linux::gnu::utmpx"* sret(%"unix::linux_like::linux::gnu::utmpx") %0, %"unix::linux_like::linux::gnu::utmpx"* align 4 %self) unnamed_addr #0 !dbg !3305 {
start:
  %self.dbg.spill = alloca %"unix::linux_like::linux::gnu::utmpx"*, align 8
  store %"unix::linux_like::linux::gnu::utmpx"* %self, %"unix::linux_like::linux::gnu::utmpx"** %self.dbg.spill, align 8
  call void @llvm.dbg.declare(metadata %"unix::linux_like::linux::gnu::utmpx"** %self.dbg.spill, metadata !3329, metadata !DIExpression()), !dbg !3330
  %1 = bitcast %"unix::linux_like::linux::gnu::utmpx"* %0 to i8*, !dbg !3331
  %2 = bitcast %"unix::linux_like::linux::gnu::utmpx"* %self to i8*, !dbg !3331
  call void @llvm.memcpy.p0i8.p0i8.i64(i8* align 4 %1, i8* align 4 %2, i64 384, i1 false), !dbg !3331
  ret void, !dbg !3332
}

; <libc::unix::linux_like::linux::gnu::b64::sigset_t as core::clone::Clone>::clone
; Function Attrs: nonlazybind uwtable
define void @"_ZN88_$LT$libc..unix..linux_like..linux..gnu..b64..sigset_t$u20$as$u20$core..clone..Clone$GT$5clone17h4226f42e292e31e6E"(%"unix::linux_like::linux::gnu::b64::sigset_t"* sret(%"unix::linux_like::linux::gnu::b64::sigset_t") %0, %"unix::linux_like::linux::gnu::b64::sigset_t"* align 8 %self) unnamed_addr #0 !dbg !3333 {
start:
  %self.dbg.spill = alloca %"unix::linux_like::linux::gnu::b64::sigset_t"*, align 8
  store %"unix::linux_like::linux::gnu::b64::sigset_t"* %self, %"unix::linux_like::linux::gnu::b64::sigset_t"** %self.dbg.spill, align 8
  call void @llvm.dbg.declare(metadata %"unix::linux_like::linux::gnu::b64::sigset_t"** %self.dbg.spill, metadata !3339, metadata !DIExpression()), !dbg !3340
  %1 = bitcast %"unix::linux_like::linux::gnu::b64::sigset_t"* %0 to i8*, !dbg !3341
  %2 = bitcast %"unix::linux_like::linux::gnu::b64::sigset_t"* %self to i8*, !dbg !3341
  call void @llvm.memcpy.p0i8.p0i8.i64(i8* align 8 %1, i8* align 8 %2, i64 128, i1 false), !dbg !3341
  ret void, !dbg !3342
}

; <libc::unix::linux_like::linux::gnu::b64::sysinfo as core::clone::Clone>::clone
; Function Attrs: nonlazybind uwtable
define void @"_ZN87_$LT$libc..unix..linux_like..linux..gnu..b64..sysinfo$u20$as$u20$core..clone..Clone$GT$5clone17hd4d7c9d94aa27a91E"(%"unix::linux_like::linux::gnu::b64::sysinfo"* sret(%"unix::linux_like::linux::gnu::b64::sysinfo") %0, %"unix::linux_like::linux::gnu::b64::sysinfo"* align 8 %self) unnamed_addr #0 !dbg !3343 {
start:
  %self.dbg.spill = alloca %"unix::linux_like::linux::gnu::b64::sysinfo"*, align 8
  store %"unix::linux_like::linux::gnu::b64::sysinfo"* %self, %"unix::linux_like::linux::gnu::b64::sysinfo"** %self.dbg.spill, align 8
  call void @llvm.dbg.declare(metadata %"unix::linux_like::linux::gnu::b64::sysinfo"** %self.dbg.spill, metadata !3367, metadata !DIExpression()), !dbg !3368
  %1 = bitcast %"unix::linux_like::linux::gnu::b64::sysinfo"* %0 to i8*, !dbg !3369
  %2 = bitcast %"unix::linux_like::linux::gnu::b64::sysinfo"* %self to i8*, !dbg !3369
  call void @llvm.memcpy.p0i8.p0i8.i64(i8* align 8 %1, i8* align 8 %2, i64 112, i1 false), !dbg !3369
  ret void, !dbg !3370
}

; <libc::unix::linux_like::linux::gnu::b64::msqid_ds as core::clone::Clone>::clone
; Function Attrs: nonlazybind uwtable
define void @"_ZN88_$LT$libc..unix..linux_like..linux..gnu..b64..msqid_ds$u20$as$u20$core..clone..Clone$GT$5clone17hd37b24ee38e28b7fE"(%"unix::linux_like::linux::gnu::b64::msqid_ds"* sret(%"unix::linux_like::linux::gnu::b64::msqid_ds") %0, %"unix::linux_like::linux::gnu::b64::msqid_ds"* align 8 %self) unnamed_addr #0 !dbg !3371 {
start:
  %self.dbg.spill = alloca %"unix::linux_like::linux::gnu::b64::msqid_ds"*, align 8
  store %"unix::linux_like::linux::gnu::b64::msqid_ds"* %self, %"unix::linux_like::linux::gnu::b64::msqid_ds"** %self.dbg.spill, align 8
  call void @llvm.dbg.declare(metadata %"unix::linux_like::linux::gnu::b64::msqid_ds"** %self.dbg.spill, metadata !3403, metadata !DIExpression()), !dbg !3404
  %1 = bitcast %"unix::linux_like::linux::gnu::b64::msqid_ds"* %0 to i8*, !dbg !3405
  %2 = bitcast %"unix::linux_like::linux::gnu::b64::msqid_ds"* %self to i8*, !dbg !3405
  call void @llvm.memcpy.p0i8.p0i8.i64(i8* align 8 %1, i8* align 8 %2, i64 120, i1 false), !dbg !3405
  ret void, !dbg !3406
}

; <libc::unix::linux_like::linux::gnu::b64::semid_ds as core::clone::Clone>::clone
; Function Attrs: nonlazybind uwtable
define void @"_ZN88_$LT$libc..unix..linux_like..linux..gnu..b64..semid_ds$u20$as$u20$core..clone..Clone$GT$5clone17h4ccb0f89199212c8E"(%"unix::linux_like::linux::gnu::b64::semid_ds"* sret(%"unix::linux_like::linux::gnu::b64::semid_ds") %0, %"unix::linux_like::linux::gnu::b64::semid_ds"* align 8 %self) unnamed_addr #0 !dbg !3407 {
start:
  %self.dbg.spill = alloca %"unix::linux_like::linux::gnu::b64::semid_ds"*, align 8
  store %"unix::linux_like::linux::gnu::b64::semid_ds"* %self, %"unix::linux_like::linux::gnu::b64::semid_ds"** %self.dbg.spill, align 8
  call void @llvm.dbg.declare(metadata %"unix::linux_like::linux::gnu::b64::semid_ds"** %self.dbg.spill, metadata !3423, metadata !DIExpression()), !dbg !3424
  %1 = bitcast %"unix::linux_like::linux::gnu::b64::semid_ds"* %0 to i8*, !dbg !3425
  %2 = bitcast %"unix::linux_like::linux::gnu::b64::semid_ds"* %self to i8*, !dbg !3425
  call void @llvm.memcpy.p0i8.p0i8.i64(i8* align 8 %1, i8* align 8 %2, i64 104, i1 false), !dbg !3425
  ret void, !dbg !3426
}

; <libc::unix::linux_like::linux::gnu::b64::x86_64::sigaction as core::clone::Clone>::clone
; Function Attrs: nonlazybind uwtable
define void @"_ZN97_$LT$libc..unix..linux_like..linux..gnu..b64..x86_64..sigaction$u20$as$u20$core..clone..Clone$GT$5clone17he7258cf0ebfa7682E"(%"unix::linux_like::linux::gnu::b64::x86_64::sigaction"* sret(%"unix::linux_like::linux::gnu::b64::x86_64::sigaction") %0, %"unix::linux_like::linux::gnu::b64::x86_64::sigaction"* align 8 %self) unnamed_addr #0 !dbg !3427 {
start:
  %self.dbg.spill = alloca %"unix::linux_like::linux::gnu::b64::x86_64::sigaction"*, align 8
  store %"unix::linux_like::linux::gnu::b64::x86_64::sigaction"* %self, %"unix::linux_like::linux::gnu::b64::x86_64::sigaction"** %self.dbg.spill, align 8
  call void @llvm.dbg.declare(metadata %"unix::linux_like::linux::gnu::b64::x86_64::sigaction"** %self.dbg.spill, metadata !3456, metadata !DIExpression()), !dbg !3457
  %1 = bitcast %"unix::linux_like::linux::gnu::b64::x86_64::sigaction"* %0 to i8*, !dbg !3458
  %2 = bitcast %"unix::linux_like::linux::gnu::b64::x86_64::sigaction"* %self to i8*, !dbg !3458
  call void @llvm.memcpy.p0i8.p0i8.i64(i8* align 8 %1, i8* align 8 %2, i64 152, i1 false), !dbg !3458
  ret void, !dbg !3459
}

; <libc::unix::linux_like::linux::gnu::b64::x86_64::statfs as core::clone::Clone>::clone
; Function Attrs: nonlazybind uwtable
define void @"_ZN94_$LT$libc..unix..linux_like..linux..gnu..b64..x86_64..statfs$u20$as$u20$core..clone..Clone$GT$5clone17h00d5864b3b9329d6E"(%"unix::linux_like::linux::gnu::b64::x86_64::statfs"* sret(%"unix::linux_like::linux::gnu::b64::x86_64::statfs") %0, %"unix::linux_like::linux::gnu::b64::x86_64::statfs"* align 8 %self) unnamed_addr #0 !dbg !3460 {
start:
  %self.dbg.spill = alloca %"unix::linux_like::linux::gnu::b64::x86_64::statfs"*, align 8
  store %"unix::linux_like::linux::gnu::b64::x86_64::statfs"* %self, %"unix::linux_like::linux::gnu::b64::x86_64::statfs"** %self.dbg.spill, align 8
  call void @llvm.dbg.declare(metadata %"unix::linux_like::linux::gnu::b64::x86_64::statfs"** %self.dbg.spill, metadata !3482, metadata !DIExpression()), !dbg !3483
  %1 = bitcast %"unix::linux_like::linux::gnu::b64::x86_64::statfs"* %0 to i8*, !dbg !3484
  %2 = bitcast %"unix::linux_like::linux::gnu::b64::x86_64::statfs"* %self to i8*, !dbg !3484
  call void @llvm.memcpy.p0i8.p0i8.i64(i8* align 8 %1, i8* align 8 %2, i64 120, i1 false), !dbg !3484
  ret void, !dbg !3485
}

; <libc::unix::linux_like::linux::gnu::b64::x86_64::flock as core::clone::Clone>::clone
; Function Attrs: nonlazybind uwtable
define void @"_ZN93_$LT$libc..unix..linux_like..linux..gnu..b64..x86_64..flock$u20$as$u20$core..clone..Clone$GT$5clone17hca079dad8407d78aE"(%"unix::linux_like::linux::gnu::b64::x86_64::flock"* sret(%"unix::linux_like::linux::gnu::b64::x86_64::flock") %0, %"unix::linux_like::linux::gnu::b64::x86_64::flock"* align 8 %self) unnamed_addr #0 !dbg !3486 {
start:
  %self.dbg.spill = alloca %"unix::linux_like::linux::gnu::b64::x86_64::flock"*, align 8
  store %"unix::linux_like::linux::gnu::b64::x86_64::flock"* %self, %"unix::linux_like::linux::gnu::b64::x86_64::flock"** %self.dbg.spill, align 8
  call void @llvm.dbg.declare(metadata %"unix::linux_like::linux::gnu::b64::x86_64::flock"** %self.dbg.spill, metadata !3499, metadata !DIExpression()), !dbg !3500
  %1 = bitcast %"unix::linux_like::linux::gnu::b64::x86_64::flock"* %0 to i8*, !dbg !3501
  %2 = bitcast %"unix::linux_like::linux::gnu::b64::x86_64::flock"* %self to i8*, !dbg !3501
  call void @llvm.memcpy.p0i8.p0i8.i64(i8* align 8 %1, i8* align 8 %2, i64 32, i1 false), !dbg !3501
  ret void, !dbg !3502
}

; <libc::unix::linux_like::linux::gnu::b64::x86_64::flock64 as core::clone::Clone>::clone
; Function Attrs: nonlazybind uwtable
define void @"_ZN95_$LT$libc..unix..linux_like..linux..gnu..b64..x86_64..flock64$u20$as$u20$core..clone..Clone$GT$5clone17h0a33e95035066a23E"(%"unix::linux_like::linux::gnu::b64::x86_64::flock64"* sret(%"unix::linux_like::linux::gnu::b64::x86_64::flock64") %0, %"unix::linux_like::linux::gnu::b64::x86_64::flock64"* align 8 %self) unnamed_addr #0 !dbg !3503 {
start:
  %self.dbg.spill = alloca %"unix::linux_like::linux::gnu::b64::x86_64::flock64"*, align 8
  store %"unix::linux_like::linux::gnu::b64::x86_64::flock64"* %self, %"unix::linux_like::linux::gnu::b64::x86_64::flock64"** %self.dbg.spill, align 8
  call void @llvm.dbg.declare(metadata %"unix::linux_like::linux::gnu::b64::x86_64::flock64"** %self.dbg.spill, metadata !3516, metadata !DIExpression()), !dbg !3517
  %1 = bitcast %"unix::linux_like::linux::gnu::b64::x86_64::flock64"* %0 to i8*, !dbg !3518
  %2 = bitcast %"unix::linux_like::linux::gnu::b64::x86_64::flock64"* %self to i8*, !dbg !3518
  call void @llvm.memcpy.p0i8.p0i8.i64(i8* align 8 %1, i8* align 8 %2, i64 32, i1 false), !dbg !3518
  ret void, !dbg !3519
}

; <libc::unix::linux_like::linux::gnu::b64::x86_64::siginfo_t as core::clone::Clone>::clone
; Function Attrs: nonlazybind uwtable
define void @"_ZN97_$LT$libc..unix..linux_like..linux..gnu..b64..x86_64..siginfo_t$u20$as$u20$core..clone..Clone$GT$5clone17hcc81a6aac980cbacE"(%"unix::linux_like::linux::gnu::b64::x86_64::siginfo_t"* sret(%"unix::linux_like::linux::gnu::b64::x86_64::siginfo_t") %0, %"unix::linux_like::linux::gnu::b64::x86_64::siginfo_t"* align 8 %self) unnamed_addr #0 !dbg !3520 {
start:
  %self.dbg.spill = alloca %"unix::linux_like::linux::gnu::b64::x86_64::siginfo_t"*, align 8
  store %"unix::linux_like::linux::gnu::b64::x86_64::siginfo_t"* %self, %"unix::linux_like::linux::gnu::b64::x86_64::siginfo_t"** %self.dbg.spill, align 8
  call void @llvm.dbg.declare(metadata %"unix::linux_like::linux::gnu::b64::x86_64::siginfo_t"** %self.dbg.spill, metadata !3525, metadata !DIExpression()), !dbg !3526
  %1 = bitcast %"unix::linux_like::linux::gnu::b64::x86_64::siginfo_t"* %0 to i8*, !dbg !3527
  %2 = bitcast %"unix::linux_like::linux::gnu::b64::x86_64::siginfo_t"* %self to i8*, !dbg !3527
  call void @llvm.memcpy.p0i8.p0i8.i64(i8* align 8 %1, i8* align 8 %2, i64 128, i1 false), !dbg !3527
  ret void, !dbg !3528
}

; <libc::unix::linux_like::linux::gnu::b64::x86_64::stack_t as core::clone::Clone>::clone
; Function Attrs: nonlazybind uwtable
define void @"_ZN95_$LT$libc..unix..linux_like..linux..gnu..b64..x86_64..stack_t$u20$as$u20$core..clone..Clone$GT$5clone17haad5555901e2a209E"(%"unix::linux_like::linux::gnu::b64::x86_64::stack_t"* sret(%"unix::linux_like::linux::gnu::b64::x86_64::stack_t") %0, %"unix::linux_like::linux::gnu::b64::x86_64::stack_t"* align 8 %self) unnamed_addr #0 !dbg !3529 {
start:
  %self.dbg.spill = alloca %"unix::linux_like::linux::gnu::b64::x86_64::stack_t"*, align 8
  store %"unix::linux_like::linux::gnu::b64::x86_64::stack_t"* %self, %"unix::linux_like::linux::gnu::b64::x86_64::stack_t"** %self.dbg.spill, align 8
  call void @llvm.dbg.declare(metadata %"unix::linux_like::linux::gnu::b64::x86_64::stack_t"** %self.dbg.spill, metadata !3540, metadata !DIExpression()), !dbg !3541
  %1 = bitcast %"unix::linux_like::linux::gnu::b64::x86_64::stack_t"* %0 to i8*, !dbg !3542
  %2 = bitcast %"unix::linux_like::linux::gnu::b64::x86_64::stack_t"* %self to i8*, !dbg !3542
  call void @llvm.memcpy.p0i8.p0i8.i64(i8* align 8 %1, i8* align 8 %2, i64 24, i1 false), !dbg !3542
  ret void, !dbg !3543
}

; <libc::unix::linux_like::linux::gnu::b64::x86_64::stat as core::clone::Clone>::clone
; Function Attrs: nonlazybind uwtable
define void @"_ZN92_$LT$libc..unix..linux_like..linux..gnu..b64..x86_64..stat$u20$as$u20$core..clone..Clone$GT$5clone17h41cdac6a935c34fdE"(%"unix::linux_like::linux::gnu::b64::x86_64::stat"* sret(%"unix::linux_like::linux::gnu::b64::x86_64::stat") %0, %"unix::linux_like::linux::gnu::b64::x86_64::stat"* align 8 %self) unnamed_addr #0 !dbg !3544 {
start:
  %self.dbg.spill = alloca %"unix::linux_like::linux::gnu::b64::x86_64::stat"*, align 8
  store %"unix::linux_like::linux::gnu::b64::x86_64::stat"* %self, %"unix::linux_like::linux::gnu::b64::x86_64::stat"** %self.dbg.spill, align 8
  call void @llvm.dbg.declare(metadata %"unix::linux_like::linux::gnu::b64::x86_64::stat"** %self.dbg.spill, metadata !3571, metadata !DIExpression()), !dbg !3572
  %1 = bitcast %"unix::linux_like::linux::gnu::b64::x86_64::stat"* %0 to i8*, !dbg !3573
  %2 = bitcast %"unix::linux_like::linux::gnu::b64::x86_64::stat"* %self to i8*, !dbg !3573
  call void @llvm.memcpy.p0i8.p0i8.i64(i8* align 8 %1, i8* align 8 %2, i64 144, i1 false), !dbg !3573
  ret void, !dbg !3574
}

; <libc::unix::linux_like::linux::gnu::b64::x86_64::stat64 as core::clone::Clone>::clone
; Function Attrs: nonlazybind uwtable
define void @"_ZN94_$LT$libc..unix..linux_like..linux..gnu..b64..x86_64..stat64$u20$as$u20$core..clone..Clone$GT$5clone17hcf102e22a29bbd27E"(%"unix::linux_like::linux::gnu::b64::x86_64::stat64"* sret(%"unix::linux_like::linux::gnu::b64::x86_64::stat64") %0, %"unix::linux_like::linux::gnu::b64::x86_64::stat64"* align 8 %self) unnamed_addr #0 !dbg !3575 {
start:
  %self.dbg.spill = alloca %"unix::linux_like::linux::gnu::b64::x86_64::stat64"*, align 8
  store %"unix::linux_like::linux::gnu::b64::x86_64::stat64"* %self, %"unix::linux_like::linux::gnu::b64::x86_64::stat64"** %self.dbg.spill, align 8
  call void @llvm.dbg.declare(metadata %"unix::linux_like::linux::gnu::b64::x86_64::stat64"** %self.dbg.spill, metadata !3601, metadata !DIExpression()), !dbg !3602
  %1 = bitcast %"unix::linux_like::linux::gnu::b64::x86_64::stat64"* %0 to i8*, !dbg !3603
  %2 = bitcast %"unix::linux_like::linux::gnu::b64::x86_64::stat64"* %self to i8*, !dbg !3603
  call void @llvm.memcpy.p0i8.p0i8.i64(i8* align 8 %1, i8* align 8 %2, i64 144, i1 false), !dbg !3603
  ret void, !dbg !3604
}

; <libc::unix::linux_like::linux::gnu::b64::x86_64::statfs64 as core::clone::Clone>::clone
; Function Attrs: nonlazybind uwtable
define void @"_ZN96_$LT$libc..unix..linux_like..linux..gnu..b64..x86_64..statfs64$u20$as$u20$core..clone..Clone$GT$5clone17hf086a986ce7f3129E"(%"unix::linux_like::linux::gnu::b64::x86_64::statfs64"* sret(%"unix::linux_like::linux::gnu::b64::x86_64::statfs64") %0, %"unix::linux_like::linux::gnu::b64::x86_64::statfs64"* align 8 %self) unnamed_addr #0 !dbg !3605 {
start:
  %self.dbg.spill = alloca %"unix::linux_like::linux::gnu::b64::x86_64::statfs64"*, align 8
  store %"unix::linux_like::linux::gnu::b64::x86_64::statfs64"* %self, %"unix::linux_like::linux::gnu::b64::x86_64::statfs64"** %self.dbg.spill, align 8
  call void @llvm.dbg.declare(metadata %"unix::linux_like::linux::gnu::b64::x86_64::statfs64"** %self.dbg.spill, metadata !3625, metadata !DIExpression()), !dbg !3626
  %1 = bitcast %"unix::linux_like::linux::gnu::b64::x86_64::statfs64"* %0 to i8*, !dbg !3627
  %2 = bitcast %"unix::linux_like::linux::gnu::b64::x86_64::statfs64"* %self to i8*, !dbg !3627
  call void @llvm.memcpy.p0i8.p0i8.i64(i8* align 8 %1, i8* align 8 %2, i64 120, i1 false), !dbg !3627
  ret void, !dbg !3628
}

; <libc::unix::linux_like::linux::gnu::b64::x86_64::statvfs64 as core::clone::Clone>::clone
; Function Attrs: nonlazybind uwtable
define void @"_ZN97_$LT$libc..unix..linux_like..linux..gnu..b64..x86_64..statvfs64$u20$as$u20$core..clone..Clone$GT$5clone17hfeebfb24456a0a26E"(%"unix::linux_like::linux::gnu::b64::x86_64::statvfs64"* sret(%"unix::linux_like::linux::gnu::b64::x86_64::statvfs64") %0, %"unix::linux_like::linux::gnu::b64::x86_64::statvfs64"* align 8 %self) unnamed_addr #0 !dbg !3629 {
start:
  %self.dbg.spill = alloca %"unix::linux_like::linux::gnu::b64::x86_64::statvfs64"*, align 8
  store %"unix::linux_like::linux::gnu::b64::x86_64::statvfs64"* %self, %"unix::linux_like::linux::gnu::b64::x86_64::statvfs64"** %self.dbg.spill, align 8
  call void @llvm.dbg.declare(metadata %"unix::linux_like::linux::gnu::b64::x86_64::statvfs64"** %self.dbg.spill, metadata !3650, metadata !DIExpression()), !dbg !3651
  %1 = bitcast %"unix::linux_like::linux::gnu::b64::x86_64::statvfs64"* %0 to i8*, !dbg !3652
  %2 = bitcast %"unix::linux_like::linux::gnu::b64::x86_64::statvfs64"* %self to i8*, !dbg !3652
  call void @llvm.memcpy.p0i8.p0i8.i64(i8* align 8 %1, i8* align 8 %2, i64 112, i1 false), !dbg !3652
  ret void, !dbg !3653
}

; <libc::unix::linux_like::linux::gnu::b64::x86_64::pthread_attr_t as core::clone::Clone>::clone
; Function Attrs: nonlazybind uwtable
define void @"_ZN102_$LT$libc..unix..linux_like..linux..gnu..b64..x86_64..pthread_attr_t$u20$as$u20$core..clone..Clone$GT$5clone17h498ba8b00e7f737bE"(%"unix::linux_like::linux::gnu::b64::x86_64::pthread_attr_t"* sret(%"unix::linux_like::linux::gnu::b64::x86_64::pthread_attr_t") %0, %"unix::linux_like::linux::gnu::b64::x86_64::pthread_attr_t"* align 8 %self) unnamed_addr #0 !dbg !3654 {
start:
  %self.dbg.spill = alloca %"unix::linux_like::linux::gnu::b64::x86_64::pthread_attr_t"*, align 8
  store %"unix::linux_like::linux::gnu::b64::x86_64::pthread_attr_t"* %self, %"unix::linux_like::linux::gnu::b64::x86_64::pthread_attr_t"** %self.dbg.spill, align 8
  call void @llvm.dbg.declare(metadata %"unix::linux_like::linux::gnu::b64::x86_64::pthread_attr_t"** %self.dbg.spill, metadata !3664, metadata !DIExpression()), !dbg !3665
  %1 = bitcast %"unix::linux_like::linux::gnu::b64::x86_64::pthread_attr_t"* %0 to i8*, !dbg !3666
  %2 = bitcast %"unix::linux_like::linux::gnu::b64::x86_64::pthread_attr_t"* %self to i8*, !dbg !3666
  call void @llvm.memcpy.p0i8.p0i8.i64(i8* align 8 %1, i8* align 8 %2, i64 56, i1 false), !dbg !3666
  ret void, !dbg !3667
}

; <libc::unix::linux_like::linux::gnu::b64::x86_64::_libc_fpxreg as core::clone::Clone>::clone
; Function Attrs: nonlazybind uwtable
define void @"_ZN100_$LT$libc..unix..linux_like..linux..gnu..b64..x86_64.._libc_fpxreg$u20$as$u20$core..clone..Clone$GT$5clone17hb81bba9b91f764d6E"(%"unix::linux_like::linux::gnu::b64::x86_64::_libc_fpxreg"* sret(%"unix::linux_like::linux::gnu::b64::x86_64::_libc_fpxreg") %0, %"unix::linux_like::linux::gnu::b64::x86_64::_libc_fpxreg"* align 2 %self) unnamed_addr #0 !dbg !3668 {
start:
  %self.dbg.spill = alloca %"unix::linux_like::linux::gnu::b64::x86_64::_libc_fpxreg"*, align 8
  store %"unix::linux_like::linux::gnu::b64::x86_64::_libc_fpxreg"* %self, %"unix::linux_like::linux::gnu::b64::x86_64::_libc_fpxreg"** %self.dbg.spill, align 8
  call void @llvm.dbg.declare(metadata %"unix::linux_like::linux::gnu::b64::x86_64::_libc_fpxreg"** %self.dbg.spill, metadata !3681, metadata !DIExpression()), !dbg !3682
  %1 = bitcast %"unix::linux_like::linux::gnu::b64::x86_64::_libc_fpxreg"* %0 to i8*, !dbg !3683
  %2 = bitcast %"unix::linux_like::linux::gnu::b64::x86_64::_libc_fpxreg"* %self to i8*, !dbg !3683
  call void @llvm.memcpy.p0i8.p0i8.i64(i8* align 2 %1, i8* align 2 %2, i64 16, i1 false), !dbg !3683
  ret void, !dbg !3684
}

; <libc::unix::linux_like::linux::gnu::b64::x86_64::_libc_xmmreg as core::clone::Clone>::clone
; Function Attrs: nonlazybind uwtable
define void @"_ZN100_$LT$libc..unix..linux_like..linux..gnu..b64..x86_64.._libc_xmmreg$u20$as$u20$core..clone..Clone$GT$5clone17h4cf39e9e8967bffdE"(%"unix::linux_like::linux::gnu::b64::x86_64::_libc_xmmreg"* sret(%"unix::linux_like::linux::gnu::b64::x86_64::_libc_xmmreg") %0, %"unix::linux_like::linux::gnu::b64::x86_64::_libc_xmmreg"* align 4 %self) unnamed_addr #0 !dbg !3685 {
start:
  %self.dbg.spill = alloca %"unix::linux_like::linux::gnu::b64::x86_64::_libc_xmmreg"*, align 8
  store %"unix::linux_like::linux::gnu::b64::x86_64::_libc_xmmreg"* %self, %"unix::linux_like::linux::gnu::b64::x86_64::_libc_xmmreg"** %self.dbg.spill, align 8
  call void @llvm.dbg.declare(metadata %"unix::linux_like::linux::gnu::b64::x86_64::_libc_xmmreg"** %self.dbg.spill, metadata !3695, metadata !DIExpression()), !dbg !3696
  %1 = bitcast %"unix::linux_like::linux::gnu::b64::x86_64::_libc_xmmreg"* %0 to i8*, !dbg !3697
  %2 = bitcast %"unix::linux_like::linux::gnu::b64::x86_64::_libc_xmmreg"* %self to i8*, !dbg !3697
  call void @llvm.memcpy.p0i8.p0i8.i64(i8* align 4 %1, i8* align 4 %2, i64 16, i1 false), !dbg !3697
  ret void, !dbg !3698
}

; <libc::unix::linux_like::linux::gnu::b64::x86_64::_libc_fpstate as core::clone::Clone>::clone
; Function Attrs: nonlazybind uwtable
define void @"_ZN101_$LT$libc..unix..linux_like..linux..gnu..b64..x86_64.._libc_fpstate$u20$as$u20$core..clone..Clone$GT$5clone17h4a18adeb3ecf14dbE"(%"unix::linux_like::linux::gnu::b64::x86_64::_libc_fpstate"* sret(%"unix::linux_like::linux::gnu::b64::x86_64::_libc_fpstate") %0, %"unix::linux_like::linux::gnu::b64::x86_64::_libc_fpstate"* align 8 %self) unnamed_addr #0 !dbg !3699 {
start:
  %self.dbg.spill = alloca %"unix::linux_like::linux::gnu::b64::x86_64::_libc_fpstate"*, align 8
  store %"unix::linux_like::linux::gnu::b64::x86_64::_libc_fpstate"* %self, %"unix::linux_like::linux::gnu::b64::x86_64::_libc_fpstate"** %self.dbg.spill, align 8
  call void @llvm.dbg.declare(metadata %"unix::linux_like::linux::gnu::b64::x86_64::_libc_fpstate"** %self.dbg.spill, metadata !3720, metadata !DIExpression()), !dbg !3721
